
Szeloba.elf:     file format elf32-littlearm

Sections:
Idx Name          Size      VMA       LMA       File off  Algn
  0 .isr_vector   000000c0  08000000  08000000  00010000  2**0
                  CONTENTS, ALLOC, LOAD, READONLY, DATA
  1 .text         00005144  080000c0  080000c0  000100c0  2**2
                  CONTENTS, ALLOC, LOAD, READONLY, CODE
  2 .rodata       00002cd4  08005204  08005204  00015204  2**2
                  CONTENTS, ALLOC, LOAD, READONLY, DATA
  3 .ARM.extab    00000000  08007ed8  08007ed8  00020084  2**0
                  CONTENTS
  4 .ARM          00000008  08007ed8  08007ed8  00017ed8  2**2
                  CONTENTS, ALLOC, LOAD, READONLY, DATA
  5 .preinit_array 00000000  08007ee0  08007ee0  00020084  2**0
                  CONTENTS, ALLOC, LOAD, DATA
  6 .init_array   00000004  08007ee0  08007ee0  00017ee0  2**2
                  CONTENTS, ALLOC, LOAD, DATA
  7 .fini_array   00000004  08007ee4  08007ee4  00017ee4  2**2
                  CONTENTS, ALLOC, LOAD, DATA
  8 .data         00000084  20000000  08007ee8  00020000  2**2
                  CONTENTS, ALLOC, LOAD, DATA
  9 .bss          00000794  20000084  08007f6c  00020084  2**2
                  ALLOC
 10 ._user_heap_stack 00000600  20000818  08007f6c  00020818  2**0
                  ALLOC
 11 .ARM.attributes 00000028  00000000  00000000  00020084  2**0
                  CONTENTS, READONLY
 12 .debug_info   0001aa3c  00000000  00000000  000200ac  2**0
                  CONTENTS, READONLY, DEBUGGING, OCTETS
 13 .debug_abbrev 00002fba  00000000  00000000  0003aae8  2**0
                  CONTENTS, READONLY, DEBUGGING, OCTETS
 14 .debug_aranges 00000ff0  00000000  00000000  0003daa8  2**3
                  CONTENTS, READONLY, DEBUGGING, OCTETS
 15 .debug_ranges 000010f8  00000000  00000000  0003ea98  2**3
                  CONTENTS, READONLY, DEBUGGING, OCTETS
 16 .debug_macro  00016ce2  00000000  00000000  0003fb90  2**0
                  CONTENTS, READONLY, DEBUGGING, OCTETS
 17 .debug_line   0001b332  00000000  00000000  00056872  2**0
                  CONTENTS, READONLY, DEBUGGING, OCTETS
 18 .debug_str    00086fed  00000000  00000000  00071ba4  2**0
                  CONTENTS, READONLY, DEBUGGING, OCTETS
 19 .comment      00000050  00000000  00000000  000f8b91  2**0
                  CONTENTS, READONLY
 20 .debug_frame  00002f6c  00000000  00000000  000f8be4  2**2
                  CONTENTS, READONLY, DEBUGGING, OCTETS
 21 .debug_loc    000126fb  00000000  00000000  000fbb50  2**0
                  CONTENTS, READONLY, DEBUGGING, OCTETS

Disassembly of section .text:

080000c0 <__do_global_dtors_aux>:
 80000c0:	b510      	push	{r4, lr}
 80000c2:	4c06      	ldr	r4, [pc, #24]	; (80000dc <__do_global_dtors_aux+0x1c>)
 80000c4:	7823      	ldrb	r3, [r4, #0]
 80000c6:	2b00      	cmp	r3, #0
 80000c8:	d107      	bne.n	80000da <__do_global_dtors_aux+0x1a>
 80000ca:	4b05      	ldr	r3, [pc, #20]	; (80000e0 <__do_global_dtors_aux+0x20>)
 80000cc:	2b00      	cmp	r3, #0
 80000ce:	d002      	beq.n	80000d6 <__do_global_dtors_aux+0x16>
 80000d0:	4804      	ldr	r0, [pc, #16]	; (80000e4 <__do_global_dtors_aux+0x24>)
 80000d2:	e000      	b.n	80000d6 <__do_global_dtors_aux+0x16>
 80000d4:	bf00      	nop
 80000d6:	2301      	movs	r3, #1
 80000d8:	7023      	strb	r3, [r4, #0]
 80000da:	bd10      	pop	{r4, pc}
 80000dc:	20000084 	.word	0x20000084
 80000e0:	00000000 	.word	0x00000000
 80000e4:	080051ec 	.word	0x080051ec

080000e8 <frame_dummy>:
 80000e8:	4b04      	ldr	r3, [pc, #16]	; (80000fc <frame_dummy+0x14>)
 80000ea:	b510      	push	{r4, lr}
 80000ec:	2b00      	cmp	r3, #0
 80000ee:	d003      	beq.n	80000f8 <frame_dummy+0x10>
 80000f0:	4903      	ldr	r1, [pc, #12]	; (8000100 <frame_dummy+0x18>)
 80000f2:	4804      	ldr	r0, [pc, #16]	; (8000104 <frame_dummy+0x1c>)
 80000f4:	e000      	b.n	80000f8 <frame_dummy+0x10>
 80000f6:	bf00      	nop
 80000f8:	bd10      	pop	{r4, pc}
 80000fa:	46c0      	nop			; (mov r8, r8)
 80000fc:	00000000 	.word	0x00000000
 8000100:	20000088 	.word	0x20000088
 8000104:	080051ec 	.word	0x080051ec

08000108 <__gnu_thumb1_case_shi>:
 8000108:	b403      	push	{r0, r1}
 800010a:	4671      	mov	r1, lr
 800010c:	0849      	lsrs	r1, r1, #1
 800010e:	0040      	lsls	r0, r0, #1
 8000110:	0049      	lsls	r1, r1, #1
 8000112:	5e09      	ldrsh	r1, [r1, r0]
 8000114:	0049      	lsls	r1, r1, #1
 8000116:	448e      	add	lr, r1
 8000118:	bc03      	pop	{r0, r1}
 800011a:	4770      	bx	lr

0800011c <__udivsi3>:
 800011c:	2200      	movs	r2, #0
 800011e:	0843      	lsrs	r3, r0, #1
 8000120:	428b      	cmp	r3, r1
 8000122:	d374      	bcc.n	800020e <__udivsi3+0xf2>
 8000124:	0903      	lsrs	r3, r0, #4
 8000126:	428b      	cmp	r3, r1
 8000128:	d35f      	bcc.n	80001ea <__udivsi3+0xce>
 800012a:	0a03      	lsrs	r3, r0, #8
 800012c:	428b      	cmp	r3, r1
 800012e:	d344      	bcc.n	80001ba <__udivsi3+0x9e>
 8000130:	0b03      	lsrs	r3, r0, #12
 8000132:	428b      	cmp	r3, r1
 8000134:	d328      	bcc.n	8000188 <__udivsi3+0x6c>
 8000136:	0c03      	lsrs	r3, r0, #16
 8000138:	428b      	cmp	r3, r1
 800013a:	d30d      	bcc.n	8000158 <__udivsi3+0x3c>
 800013c:	22ff      	movs	r2, #255	; 0xff
 800013e:	0209      	lsls	r1, r1, #8
 8000140:	ba12      	rev	r2, r2
 8000142:	0c03      	lsrs	r3, r0, #16
 8000144:	428b      	cmp	r3, r1
 8000146:	d302      	bcc.n	800014e <__udivsi3+0x32>
 8000148:	1212      	asrs	r2, r2, #8
 800014a:	0209      	lsls	r1, r1, #8
 800014c:	d065      	beq.n	800021a <__udivsi3+0xfe>
 800014e:	0b03      	lsrs	r3, r0, #12
 8000150:	428b      	cmp	r3, r1
 8000152:	d319      	bcc.n	8000188 <__udivsi3+0x6c>
 8000154:	e000      	b.n	8000158 <__udivsi3+0x3c>
 8000156:	0a09      	lsrs	r1, r1, #8
 8000158:	0bc3      	lsrs	r3, r0, #15
 800015a:	428b      	cmp	r3, r1
 800015c:	d301      	bcc.n	8000162 <__udivsi3+0x46>
 800015e:	03cb      	lsls	r3, r1, #15
 8000160:	1ac0      	subs	r0, r0, r3
 8000162:	4152      	adcs	r2, r2
 8000164:	0b83      	lsrs	r3, r0, #14
 8000166:	428b      	cmp	r3, r1
 8000168:	d301      	bcc.n	800016e <__udivsi3+0x52>
 800016a:	038b      	lsls	r3, r1, #14
 800016c:	1ac0      	subs	r0, r0, r3
 800016e:	4152      	adcs	r2, r2
 8000170:	0b43      	lsrs	r3, r0, #13
 8000172:	428b      	cmp	r3, r1
 8000174:	d301      	bcc.n	800017a <__udivsi3+0x5e>
 8000176:	034b      	lsls	r3, r1, #13
 8000178:	1ac0      	subs	r0, r0, r3
 800017a:	4152      	adcs	r2, r2
 800017c:	0b03      	lsrs	r3, r0, #12
 800017e:	428b      	cmp	r3, r1
 8000180:	d301      	bcc.n	8000186 <__udivsi3+0x6a>
 8000182:	030b      	lsls	r3, r1, #12
 8000184:	1ac0      	subs	r0, r0, r3
 8000186:	4152      	adcs	r2, r2
 8000188:	0ac3      	lsrs	r3, r0, #11
 800018a:	428b      	cmp	r3, r1
 800018c:	d301      	bcc.n	8000192 <__udivsi3+0x76>
 800018e:	02cb      	lsls	r3, r1, #11
 8000190:	1ac0      	subs	r0, r0, r3
 8000192:	4152      	adcs	r2, r2
 8000194:	0a83      	lsrs	r3, r0, #10
 8000196:	428b      	cmp	r3, r1
 8000198:	d301      	bcc.n	800019e <__udivsi3+0x82>
 800019a:	028b      	lsls	r3, r1, #10
 800019c:	1ac0      	subs	r0, r0, r3
 800019e:	4152      	adcs	r2, r2
 80001a0:	0a43      	lsrs	r3, r0, #9
 80001a2:	428b      	cmp	r3, r1
 80001a4:	d301      	bcc.n	80001aa <__udivsi3+0x8e>
 80001a6:	024b      	lsls	r3, r1, #9
 80001a8:	1ac0      	subs	r0, r0, r3
 80001aa:	4152      	adcs	r2, r2
 80001ac:	0a03      	lsrs	r3, r0, #8
 80001ae:	428b      	cmp	r3, r1
 80001b0:	d301      	bcc.n	80001b6 <__udivsi3+0x9a>
 80001b2:	020b      	lsls	r3, r1, #8
 80001b4:	1ac0      	subs	r0, r0, r3
 80001b6:	4152      	adcs	r2, r2
 80001b8:	d2cd      	bcs.n	8000156 <__udivsi3+0x3a>
 80001ba:	09c3      	lsrs	r3, r0, #7
 80001bc:	428b      	cmp	r3, r1
 80001be:	d301      	bcc.n	80001c4 <__udivsi3+0xa8>
 80001c0:	01cb      	lsls	r3, r1, #7
 80001c2:	1ac0      	subs	r0, r0, r3
 80001c4:	4152      	adcs	r2, r2
 80001c6:	0983      	lsrs	r3, r0, #6
 80001c8:	428b      	cmp	r3, r1
 80001ca:	d301      	bcc.n	80001d0 <__udivsi3+0xb4>
 80001cc:	018b      	lsls	r3, r1, #6
 80001ce:	1ac0      	subs	r0, r0, r3
 80001d0:	4152      	adcs	r2, r2
 80001d2:	0943      	lsrs	r3, r0, #5
 80001d4:	428b      	cmp	r3, r1
 80001d6:	d301      	bcc.n	80001dc <__udivsi3+0xc0>
 80001d8:	014b      	lsls	r3, r1, #5
 80001da:	1ac0      	subs	r0, r0, r3
 80001dc:	4152      	adcs	r2, r2
 80001de:	0903      	lsrs	r3, r0, #4
 80001e0:	428b      	cmp	r3, r1
 80001e2:	d301      	bcc.n	80001e8 <__udivsi3+0xcc>
 80001e4:	010b      	lsls	r3, r1, #4
 80001e6:	1ac0      	subs	r0, r0, r3
 80001e8:	4152      	adcs	r2, r2
 80001ea:	08c3      	lsrs	r3, r0, #3
 80001ec:	428b      	cmp	r3, r1
 80001ee:	d301      	bcc.n	80001f4 <__udivsi3+0xd8>
 80001f0:	00cb      	lsls	r3, r1, #3
 80001f2:	1ac0      	subs	r0, r0, r3
 80001f4:	4152      	adcs	r2, r2
 80001f6:	0883      	lsrs	r3, r0, #2
 80001f8:	428b      	cmp	r3, r1
 80001fa:	d301      	bcc.n	8000200 <__udivsi3+0xe4>
 80001fc:	008b      	lsls	r3, r1, #2
 80001fe:	1ac0      	subs	r0, r0, r3
 8000200:	4152      	adcs	r2, r2
 8000202:	0843      	lsrs	r3, r0, #1
 8000204:	428b      	cmp	r3, r1
 8000206:	d301      	bcc.n	800020c <__udivsi3+0xf0>
 8000208:	004b      	lsls	r3, r1, #1
 800020a:	1ac0      	subs	r0, r0, r3
 800020c:	4152      	adcs	r2, r2
 800020e:	1a41      	subs	r1, r0, r1
 8000210:	d200      	bcs.n	8000214 <__udivsi3+0xf8>
 8000212:	4601      	mov	r1, r0
 8000214:	4152      	adcs	r2, r2
 8000216:	4610      	mov	r0, r2
 8000218:	4770      	bx	lr
 800021a:	e7ff      	b.n	800021c <__udivsi3+0x100>
 800021c:	b501      	push	{r0, lr}
 800021e:	2000      	movs	r0, #0
 8000220:	f000 f806 	bl	8000230 <__aeabi_idiv0>
 8000224:	bd02      	pop	{r1, pc}
 8000226:	46c0      	nop			; (mov r8, r8)

08000228 <__aeabi_uidivmod>:
 8000228:	2900      	cmp	r1, #0
 800022a:	d0f7      	beq.n	800021c <__udivsi3+0x100>
 800022c:	e776      	b.n	800011c <__udivsi3>
 800022e:	4770      	bx	lr

08000230 <__aeabi_idiv0>:
 8000230:	4770      	bx	lr
 8000232:	46c0      	nop			; (mov r8, r8)

08000234 <__aeabi_uldivmod>:
 8000234:	2b00      	cmp	r3, #0
 8000236:	d111      	bne.n	800025c <__aeabi_uldivmod+0x28>
 8000238:	2a00      	cmp	r2, #0
 800023a:	d10f      	bne.n	800025c <__aeabi_uldivmod+0x28>
 800023c:	2900      	cmp	r1, #0
 800023e:	d100      	bne.n	8000242 <__aeabi_uldivmod+0xe>
 8000240:	2800      	cmp	r0, #0
 8000242:	d002      	beq.n	800024a <__aeabi_uldivmod+0x16>
 8000244:	2100      	movs	r1, #0
 8000246:	43c9      	mvns	r1, r1
 8000248:	0008      	movs	r0, r1
 800024a:	b407      	push	{r0, r1, r2}
 800024c:	4802      	ldr	r0, [pc, #8]	; (8000258 <__aeabi_uldivmod+0x24>)
 800024e:	a102      	add	r1, pc, #8	; (adr r1, 8000258 <__aeabi_uldivmod+0x24>)
 8000250:	1840      	adds	r0, r0, r1
 8000252:	9002      	str	r0, [sp, #8]
 8000254:	bd03      	pop	{r0, r1, pc}
 8000256:	46c0      	nop			; (mov r8, r8)
 8000258:	ffffffd9 	.word	0xffffffd9
 800025c:	b403      	push	{r0, r1}
 800025e:	4668      	mov	r0, sp
 8000260:	b501      	push	{r0, lr}
 8000262:	9802      	ldr	r0, [sp, #8]
 8000264:	f000 f834 	bl	80002d0 <__udivmoddi4>
 8000268:	9b01      	ldr	r3, [sp, #4]
 800026a:	469e      	mov	lr, r3
 800026c:	b002      	add	sp, #8
 800026e:	bc0c      	pop	{r2, r3}
 8000270:	4770      	bx	lr
 8000272:	46c0      	nop			; (mov r8, r8)

08000274 <__aeabi_lmul>:
 8000274:	b5f0      	push	{r4, r5, r6, r7, lr}
 8000276:	46ce      	mov	lr, r9
 8000278:	4647      	mov	r7, r8
 800027a:	b580      	push	{r7, lr}
 800027c:	0007      	movs	r7, r0
 800027e:	4699      	mov	r9, r3
 8000280:	0c3b      	lsrs	r3, r7, #16
 8000282:	469c      	mov	ip, r3
 8000284:	0413      	lsls	r3, r2, #16
 8000286:	0c1b      	lsrs	r3, r3, #16
 8000288:	001d      	movs	r5, r3
 800028a:	000e      	movs	r6, r1
 800028c:	4661      	mov	r1, ip
 800028e:	0400      	lsls	r0, r0, #16
 8000290:	0c14      	lsrs	r4, r2, #16
 8000292:	0c00      	lsrs	r0, r0, #16
 8000294:	4345      	muls	r5, r0
 8000296:	434b      	muls	r3, r1
 8000298:	4360      	muls	r0, r4
 800029a:	4361      	muls	r1, r4
 800029c:	18c0      	adds	r0, r0, r3
 800029e:	0c2c      	lsrs	r4, r5, #16
 80002a0:	1820      	adds	r0, r4, r0
 80002a2:	468c      	mov	ip, r1
 80002a4:	4283      	cmp	r3, r0
 80002a6:	d903      	bls.n	80002b0 <__aeabi_lmul+0x3c>
 80002a8:	2380      	movs	r3, #128	; 0x80
 80002aa:	025b      	lsls	r3, r3, #9
 80002ac:	4698      	mov	r8, r3
 80002ae:	44c4      	add	ip, r8
 80002b0:	4649      	mov	r1, r9
 80002b2:	4379      	muls	r1, r7
 80002b4:	4372      	muls	r2, r6
 80002b6:	0c03      	lsrs	r3, r0, #16
 80002b8:	4463      	add	r3, ip
 80002ba:	042d      	lsls	r5, r5, #16
 80002bc:	0c2d      	lsrs	r5, r5, #16
 80002be:	18c9      	adds	r1, r1, r3
 80002c0:	0400      	lsls	r0, r0, #16
 80002c2:	1940      	adds	r0, r0, r5
 80002c4:	1889      	adds	r1, r1, r2
 80002c6:	bcc0      	pop	{r6, r7}
 80002c8:	46b9      	mov	r9, r7
 80002ca:	46b0      	mov	r8, r6
 80002cc:	bdf0      	pop	{r4, r5, r6, r7, pc}
 80002ce:	46c0      	nop			; (mov r8, r8)

080002d0 <__udivmoddi4>:
 80002d0:	b5f0      	push	{r4, r5, r6, r7, lr}
 80002d2:	4657      	mov	r7, sl
 80002d4:	464e      	mov	r6, r9
 80002d6:	4645      	mov	r5, r8
 80002d8:	46de      	mov	lr, fp
 80002da:	b5e0      	push	{r5, r6, r7, lr}
 80002dc:	0004      	movs	r4, r0
 80002de:	000d      	movs	r5, r1
 80002e0:	4692      	mov	sl, r2
 80002e2:	4699      	mov	r9, r3
 80002e4:	b083      	sub	sp, #12
 80002e6:	428b      	cmp	r3, r1
 80002e8:	d830      	bhi.n	800034c <__udivmoddi4+0x7c>
 80002ea:	d02d      	beq.n	8000348 <__udivmoddi4+0x78>
 80002ec:	4649      	mov	r1, r9
 80002ee:	4650      	mov	r0, sl
 80002f0:	f000 f8ba 	bl	8000468 <__clzdi2>
 80002f4:	0029      	movs	r1, r5
 80002f6:	0006      	movs	r6, r0
 80002f8:	0020      	movs	r0, r4
 80002fa:	f000 f8b5 	bl	8000468 <__clzdi2>
 80002fe:	1a33      	subs	r3, r6, r0
 8000300:	4698      	mov	r8, r3
 8000302:	3b20      	subs	r3, #32
 8000304:	469b      	mov	fp, r3
 8000306:	d433      	bmi.n	8000370 <__udivmoddi4+0xa0>
 8000308:	465a      	mov	r2, fp
 800030a:	4653      	mov	r3, sl
 800030c:	4093      	lsls	r3, r2
 800030e:	4642      	mov	r2, r8
 8000310:	001f      	movs	r7, r3
 8000312:	4653      	mov	r3, sl
 8000314:	4093      	lsls	r3, r2
 8000316:	001e      	movs	r6, r3
 8000318:	42af      	cmp	r7, r5
 800031a:	d83a      	bhi.n	8000392 <__udivmoddi4+0xc2>
 800031c:	42af      	cmp	r7, r5
 800031e:	d100      	bne.n	8000322 <__udivmoddi4+0x52>
 8000320:	e078      	b.n	8000414 <__udivmoddi4+0x144>
 8000322:	465b      	mov	r3, fp
 8000324:	1ba4      	subs	r4, r4, r6
 8000326:	41bd      	sbcs	r5, r7
 8000328:	2b00      	cmp	r3, #0
 800032a:	da00      	bge.n	800032e <__udivmoddi4+0x5e>
 800032c:	e075      	b.n	800041a <__udivmoddi4+0x14a>
 800032e:	2200      	movs	r2, #0
 8000330:	2300      	movs	r3, #0
 8000332:	9200      	str	r2, [sp, #0]
 8000334:	9301      	str	r3, [sp, #4]
 8000336:	2301      	movs	r3, #1
 8000338:	465a      	mov	r2, fp
 800033a:	4093      	lsls	r3, r2
 800033c:	9301      	str	r3, [sp, #4]
 800033e:	2301      	movs	r3, #1
 8000340:	4642      	mov	r2, r8
 8000342:	4093      	lsls	r3, r2
 8000344:	9300      	str	r3, [sp, #0]
 8000346:	e028      	b.n	800039a <__udivmoddi4+0xca>
 8000348:	4282      	cmp	r2, r0
 800034a:	d9cf      	bls.n	80002ec <__udivmoddi4+0x1c>
 800034c:	2200      	movs	r2, #0
 800034e:	2300      	movs	r3, #0
 8000350:	9200      	str	r2, [sp, #0]
 8000352:	9301      	str	r3, [sp, #4]
 8000354:	9b0c      	ldr	r3, [sp, #48]	; 0x30
 8000356:	2b00      	cmp	r3, #0
 8000358:	d001      	beq.n	800035e <__udivmoddi4+0x8e>
 800035a:	601c      	str	r4, [r3, #0]
 800035c:	605d      	str	r5, [r3, #4]
 800035e:	9800      	ldr	r0, [sp, #0]
 8000360:	9901      	ldr	r1, [sp, #4]
 8000362:	b003      	add	sp, #12
 8000364:	bcf0      	pop	{r4, r5, r6, r7}
 8000366:	46bb      	mov	fp, r7
 8000368:	46b2      	mov	sl, r6
 800036a:	46a9      	mov	r9, r5
 800036c:	46a0      	mov	r8, r4
 800036e:	bdf0      	pop	{r4, r5, r6, r7, pc}
 8000370:	4642      	mov	r2, r8
 8000372:	2320      	movs	r3, #32
 8000374:	1a9b      	subs	r3, r3, r2
 8000376:	4652      	mov	r2, sl
 8000378:	40da      	lsrs	r2, r3
 800037a:	4641      	mov	r1, r8
 800037c:	0013      	movs	r3, r2
 800037e:	464a      	mov	r2, r9
 8000380:	408a      	lsls	r2, r1
 8000382:	0017      	movs	r7, r2
 8000384:	4642      	mov	r2, r8
 8000386:	431f      	orrs	r7, r3
 8000388:	4653      	mov	r3, sl
 800038a:	4093      	lsls	r3, r2
 800038c:	001e      	movs	r6, r3
 800038e:	42af      	cmp	r7, r5
 8000390:	d9c4      	bls.n	800031c <__udivmoddi4+0x4c>
 8000392:	2200      	movs	r2, #0
 8000394:	2300      	movs	r3, #0
 8000396:	9200      	str	r2, [sp, #0]
 8000398:	9301      	str	r3, [sp, #4]
 800039a:	4643      	mov	r3, r8
 800039c:	2b00      	cmp	r3, #0
 800039e:	d0d9      	beq.n	8000354 <__udivmoddi4+0x84>
 80003a0:	07fb      	lsls	r3, r7, #31
 80003a2:	0872      	lsrs	r2, r6, #1
 80003a4:	431a      	orrs	r2, r3
 80003a6:	4646      	mov	r6, r8
 80003a8:	087b      	lsrs	r3, r7, #1
 80003aa:	e00e      	b.n	80003ca <__udivmoddi4+0xfa>
 80003ac:	42ab      	cmp	r3, r5
 80003ae:	d101      	bne.n	80003b4 <__udivmoddi4+0xe4>
 80003b0:	42a2      	cmp	r2, r4
 80003b2:	d80c      	bhi.n	80003ce <__udivmoddi4+0xfe>
 80003b4:	1aa4      	subs	r4, r4, r2
 80003b6:	419d      	sbcs	r5, r3
 80003b8:	2001      	movs	r0, #1
 80003ba:	1924      	adds	r4, r4, r4
 80003bc:	416d      	adcs	r5, r5
 80003be:	2100      	movs	r1, #0
 80003c0:	3e01      	subs	r6, #1
 80003c2:	1824      	adds	r4, r4, r0
 80003c4:	414d      	adcs	r5, r1
 80003c6:	2e00      	cmp	r6, #0
 80003c8:	d006      	beq.n	80003d8 <__udivmoddi4+0x108>
 80003ca:	42ab      	cmp	r3, r5
 80003cc:	d9ee      	bls.n	80003ac <__udivmoddi4+0xdc>
 80003ce:	3e01      	subs	r6, #1
 80003d0:	1924      	adds	r4, r4, r4
 80003d2:	416d      	adcs	r5, r5
 80003d4:	2e00      	cmp	r6, #0
 80003d6:	d1f8      	bne.n	80003ca <__udivmoddi4+0xfa>
 80003d8:	9800      	ldr	r0, [sp, #0]
 80003da:	9901      	ldr	r1, [sp, #4]
 80003dc:	465b      	mov	r3, fp
 80003de:	1900      	adds	r0, r0, r4
 80003e0:	4169      	adcs	r1, r5
 80003e2:	2b00      	cmp	r3, #0
 80003e4:	db24      	blt.n	8000430 <__udivmoddi4+0x160>
 80003e6:	002b      	movs	r3, r5
 80003e8:	465a      	mov	r2, fp
 80003ea:	4644      	mov	r4, r8
 80003ec:	40d3      	lsrs	r3, r2
 80003ee:	002a      	movs	r2, r5
 80003f0:	40e2      	lsrs	r2, r4
 80003f2:	001c      	movs	r4, r3
 80003f4:	465b      	mov	r3, fp
 80003f6:	0015      	movs	r5, r2
 80003f8:	2b00      	cmp	r3, #0
 80003fa:	db2a      	blt.n	8000452 <__udivmoddi4+0x182>
 80003fc:	0026      	movs	r6, r4
 80003fe:	409e      	lsls	r6, r3
 8000400:	0033      	movs	r3, r6
 8000402:	0026      	movs	r6, r4
 8000404:	4647      	mov	r7, r8
 8000406:	40be      	lsls	r6, r7
 8000408:	0032      	movs	r2, r6
 800040a:	1a80      	subs	r0, r0, r2
 800040c:	4199      	sbcs	r1, r3
 800040e:	9000      	str	r0, [sp, #0]
 8000410:	9101      	str	r1, [sp, #4]
 8000412:	e79f      	b.n	8000354 <__udivmoddi4+0x84>
 8000414:	42a3      	cmp	r3, r4
 8000416:	d8bc      	bhi.n	8000392 <__udivmoddi4+0xc2>
 8000418:	e783      	b.n	8000322 <__udivmoddi4+0x52>
 800041a:	4642      	mov	r2, r8
 800041c:	2320      	movs	r3, #32
 800041e:	2100      	movs	r1, #0
 8000420:	1a9b      	subs	r3, r3, r2
 8000422:	2200      	movs	r2, #0
 8000424:	9100      	str	r1, [sp, #0]
 8000426:	9201      	str	r2, [sp, #4]
 8000428:	2201      	movs	r2, #1
 800042a:	40da      	lsrs	r2, r3
 800042c:	9201      	str	r2, [sp, #4]
 800042e:	e786      	b.n	800033e <__udivmoddi4+0x6e>
 8000430:	4642      	mov	r2, r8
 8000432:	2320      	movs	r3, #32
 8000434:	1a9b      	subs	r3, r3, r2
 8000436:	002a      	movs	r2, r5
 8000438:	4646      	mov	r6, r8
 800043a:	409a      	lsls	r2, r3
 800043c:	0023      	movs	r3, r4
 800043e:	40f3      	lsrs	r3, r6
 8000440:	4644      	mov	r4, r8
 8000442:	4313      	orrs	r3, r2
 8000444:	002a      	movs	r2, r5
 8000446:	40e2      	lsrs	r2, r4
 8000448:	001c      	movs	r4, r3
 800044a:	465b      	mov	r3, fp
 800044c:	0015      	movs	r5, r2
 800044e:	2b00      	cmp	r3, #0
 8000450:	dad4      	bge.n	80003fc <__udivmoddi4+0x12c>
 8000452:	4642      	mov	r2, r8
 8000454:	002f      	movs	r7, r5
 8000456:	2320      	movs	r3, #32
 8000458:	0026      	movs	r6, r4
 800045a:	4097      	lsls	r7, r2
 800045c:	1a9b      	subs	r3, r3, r2
 800045e:	40de      	lsrs	r6, r3
 8000460:	003b      	movs	r3, r7
 8000462:	4333      	orrs	r3, r6
 8000464:	e7cd      	b.n	8000402 <__udivmoddi4+0x132>
 8000466:	46c0      	nop			; (mov r8, r8)

08000468 <__clzdi2>:
 8000468:	b510      	push	{r4, lr}
 800046a:	2900      	cmp	r1, #0
 800046c:	d103      	bne.n	8000476 <__clzdi2+0xe>
 800046e:	f000 f807 	bl	8000480 <__clzsi2>
 8000472:	3020      	adds	r0, #32
 8000474:	e002      	b.n	800047c <__clzdi2+0x14>
 8000476:	0008      	movs	r0, r1
 8000478:	f000 f802 	bl	8000480 <__clzsi2>
 800047c:	bd10      	pop	{r4, pc}
 800047e:	46c0      	nop			; (mov r8, r8)

08000480 <__clzsi2>:
 8000480:	211c      	movs	r1, #28
 8000482:	2301      	movs	r3, #1
 8000484:	041b      	lsls	r3, r3, #16
 8000486:	4298      	cmp	r0, r3
 8000488:	d301      	bcc.n	800048e <__clzsi2+0xe>
 800048a:	0c00      	lsrs	r0, r0, #16
 800048c:	3910      	subs	r1, #16
 800048e:	0a1b      	lsrs	r3, r3, #8
 8000490:	4298      	cmp	r0, r3
 8000492:	d301      	bcc.n	8000498 <__clzsi2+0x18>
 8000494:	0a00      	lsrs	r0, r0, #8
 8000496:	3908      	subs	r1, #8
 8000498:	091b      	lsrs	r3, r3, #4
 800049a:	4298      	cmp	r0, r3
 800049c:	d301      	bcc.n	80004a2 <__clzsi2+0x22>
 800049e:	0900      	lsrs	r0, r0, #4
 80004a0:	3904      	subs	r1, #4
 80004a2:	a202      	add	r2, pc, #8	; (adr r2, 80004ac <__clzsi2+0x2c>)
 80004a4:	5c10      	ldrb	r0, [r2, r0]
 80004a6:	1840      	adds	r0, r0, r1
 80004a8:	4770      	bx	lr
 80004aa:	46c0      	nop			; (mov r8, r8)
 80004ac:	02020304 	.word	0x02020304
 80004b0:	01010101 	.word	0x01010101
	...

080004bc <MX_GPIO_Init>:
        * EXTI
        * Free pins are configured automatically as Analog (this feature is enabled through
        * the Code Generation settings)
*/
void MX_GPIO_Init(void)
{
 80004bc:	b5f0      	push	{r4, r5, r6, r7, lr}
 80004be:	46ce      	mov	lr, r9
 80004c0:	4647      	mov	r7, r8
 80004c2:	b580      	push	{r7, lr}
 80004c4:	b08b      	sub	sp, #44	; 0x2c

  GPIO_InitTypeDef GPIO_InitStruct = {0};
 80004c6:	2214      	movs	r2, #20
 80004c8:	2100      	movs	r1, #0
 80004ca:	a805      	add	r0, sp, #20
 80004cc:	f004 fa25 	bl	800491a <memset>

  /* GPIO Ports Clock Enable */
  __HAL_RCC_GPIOC_CLK_ENABLE();
 80004d0:	4b3d      	ldr	r3, [pc, #244]	; (80005c8 <MX_GPIO_Init+0x10c>)
 80004d2:	6ada      	ldr	r2, [r3, #44]	; 0x2c
 80004d4:	2104      	movs	r1, #4
 80004d6:	4688      	mov	r8, r1
 80004d8:	430a      	orrs	r2, r1
 80004da:	62da      	str	r2, [r3, #44]	; 0x2c
 80004dc:	6ada      	ldr	r2, [r3, #44]	; 0x2c
 80004de:	400a      	ands	r2, r1
 80004e0:	9200      	str	r2, [sp, #0]
 80004e2:	9a00      	ldr	r2, [sp, #0]
  __HAL_RCC_GPIOH_CLK_ENABLE();
 80004e4:	6ad9      	ldr	r1, [r3, #44]	; 0x2c
 80004e6:	2280      	movs	r2, #128	; 0x80
 80004e8:	4311      	orrs	r1, r2
 80004ea:	62d9      	str	r1, [r3, #44]	; 0x2c
 80004ec:	6ad9      	ldr	r1, [r3, #44]	; 0x2c
 80004ee:	400a      	ands	r2, r1
 80004f0:	9201      	str	r2, [sp, #4]
 80004f2:	9a01      	ldr	r2, [sp, #4]
  __HAL_RCC_GPIOA_CLK_ENABLE();
 80004f4:	6ada      	ldr	r2, [r3, #44]	; 0x2c
 80004f6:	2701      	movs	r7, #1
 80004f8:	433a      	orrs	r2, r7
 80004fa:	62da      	str	r2, [r3, #44]	; 0x2c
 80004fc:	6ada      	ldr	r2, [r3, #44]	; 0x2c
 80004fe:	403a      	ands	r2, r7
 8000500:	9202      	str	r2, [sp, #8]
 8000502:	9a02      	ldr	r2, [sp, #8]
  __HAL_RCC_GPIOB_CLK_ENABLE();
 8000504:	6ada      	ldr	r2, [r3, #44]	; 0x2c
 8000506:	2102      	movs	r1, #2
 8000508:	4689      	mov	r9, r1
 800050a:	430a      	orrs	r2, r1
 800050c:	62da      	str	r2, [r3, #44]	; 0x2c
 800050e:	6ada      	ldr	r2, [r3, #44]	; 0x2c
 8000510:	400a      	ands	r2, r1
 8000512:	9203      	str	r2, [sp, #12]
 8000514:	9a03      	ldr	r2, [sp, #12]
  __HAL_RCC_GPIOD_CLK_ENABLE();
 8000516:	6ad9      	ldr	r1, [r3, #44]	; 0x2c
 8000518:	2208      	movs	r2, #8
 800051a:	4311      	orrs	r1, r2
 800051c:	62d9      	str	r1, [r3, #44]	; 0x2c
 800051e:	6adb      	ldr	r3, [r3, #44]	; 0x2c
 8000520:	401a      	ands	r2, r3
 8000522:	9204      	str	r2, [sp, #16]
 8000524:	9b04      	ldr	r3, [sp, #16]

  /*Configure GPIO pin Output Level */
  HAL_GPIO_WritePin(C_LED_GPIO_Port, C_LED_Pin, GPIO_PIN_RESET);
 8000526:	26a0      	movs	r6, #160	; 0xa0
 8000528:	05f6      	lsls	r6, r6, #23
 800052a:	2200      	movs	r2, #0
 800052c:	2120      	movs	r1, #32
 800052e:	0030      	movs	r0, r6
 8000530:	f002 f960 	bl	80027f4 <HAL_GPIO_WritePin>

  /*Configure GPIO pins : PC13 PC0 PC1 PC2
                           PC3 PC4 PC5 PC6
                           PC7 PC8 PC9 PC10
                           PC11 PC12 */
  GPIO_InitStruct.Pin = GPIO_PIN_13|GPIO_PIN_0|GPIO_PIN_1|GPIO_PIN_2
 8000534:	4b25      	ldr	r3, [pc, #148]	; (80005cc <MX_GPIO_Init+0x110>)
 8000536:	9305      	str	r3, [sp, #20]
                          |GPIO_PIN_3|GPIO_PIN_4|GPIO_PIN_5|GPIO_PIN_6
                          |GPIO_PIN_7|GPIO_PIN_8|GPIO_PIN_9|GPIO_PIN_10
                          |GPIO_PIN_11|GPIO_PIN_12;
  GPIO_InitStruct.Mode = GPIO_MODE_ANALOG;
 8000538:	2503      	movs	r5, #3
 800053a:	9506      	str	r5, [sp, #24]
  GPIO_InitStruct.Pull = GPIO_NOPULL;
 800053c:	2400      	movs	r4, #0
 800053e:	9407      	str	r4, [sp, #28]
  HAL_GPIO_Init(GPIOC, &GPIO_InitStruct);
 8000540:	a905      	add	r1, sp, #20
 8000542:	4823      	ldr	r0, [pc, #140]	; (80005d0 <MX_GPIO_Init+0x114>)
 8000544:	f002 f856 	bl	80025f4 <HAL_GPIO_Init>

  /*Configure GPIO pin : PH1 */
  GPIO_InitStruct.Pin = GPIO_PIN_1;
 8000548:	464b      	mov	r3, r9
 800054a:	9305      	str	r3, [sp, #20]
  GPIO_InitStruct.Mode = GPIO_MODE_ANALOG;
 800054c:	9506      	str	r5, [sp, #24]
  GPIO_InitStruct.Pull = GPIO_NOPULL;
 800054e:	9407      	str	r4, [sp, #28]
  HAL_GPIO_Init(GPIOH, &GPIO_InitStruct);
 8000550:	a905      	add	r1, sp, #20
 8000552:	4820      	ldr	r0, [pc, #128]	; (80005d4 <MX_GPIO_Init+0x118>)
 8000554:	f002 f84e 	bl	80025f4 <HAL_GPIO_Init>

  /*Configure GPIO pin : PtPin */
  GPIO_InitStruct.Pin = MAIN_BTN_Pin;
 8000558:	2310      	movs	r3, #16
 800055a:	9305      	str	r3, [sp, #20]
  GPIO_InitStruct.Mode = GPIO_MODE_IT_FALLING;
 800055c:	2384      	movs	r3, #132	; 0x84
 800055e:	039b      	lsls	r3, r3, #14
 8000560:	9306      	str	r3, [sp, #24]
  GPIO_InitStruct.Pull = GPIO_PULLUP;
 8000562:	9707      	str	r7, [sp, #28]
  HAL_GPIO_Init(MAIN_BTN_GPIO_Port, &GPIO_InitStruct);
 8000564:	a905      	add	r1, sp, #20
 8000566:	0030      	movs	r0, r6
 8000568:	f002 f844 	bl	80025f4 <HAL_GPIO_Init>

  /*Configure GPIO pin : PtPin */
  GPIO_InitStruct.Pin = C_LED_Pin;
 800056c:	2320      	movs	r3, #32
 800056e:	9305      	str	r3, [sp, #20]
  GPIO_InitStruct.Mode = GPIO_MODE_OUTPUT_PP;
 8000570:	9706      	str	r7, [sp, #24]
  GPIO_InitStruct.Pull = GPIO_NOPULL;
 8000572:	9407      	str	r4, [sp, #28]
  GPIO_InitStruct.Speed = GPIO_SPEED_FREQ_LOW;
 8000574:	9408      	str	r4, [sp, #32]
  HAL_GPIO_Init(C_LED_GPIO_Port, &GPIO_InitStruct);
 8000576:	a905      	add	r1, sp, #20
 8000578:	0030      	movs	r0, r6
 800057a:	f002 f83b 	bl	80025f4 <HAL_GPIO_Init>

  /*Configure GPIO pins : PA6 PA7 PA8 PA9
                           PA10 PA11 PA12 PA15 */
  GPIO_InitStruct.Pin = GPIO_PIN_6|GPIO_PIN_7|GPIO_PIN_8|GPIO_PIN_9
 800057e:	4b16      	ldr	r3, [pc, #88]	; (80005d8 <MX_GPIO_Init+0x11c>)
 8000580:	9305      	str	r3, [sp, #20]
                          |GPIO_PIN_10|GPIO_PIN_11|GPIO_PIN_12|GPIO_PIN_15;
  GPIO_InitStruct.Mode = GPIO_MODE_ANALOG;
 8000582:	9506      	str	r5, [sp, #24]
  GPIO_InitStruct.Pull = GPIO_NOPULL;
 8000584:	9407      	str	r4, [sp, #28]
  HAL_GPIO_Init(GPIOA, &GPIO_InitStruct);
 8000586:	a905      	add	r1, sp, #20
 8000588:	0030      	movs	r0, r6
 800058a:	f002 f833 	bl	80025f4 <HAL_GPIO_Init>

  /*Configure GPIO pins : PB0 PB1 PB2 PB10
                           PB11 PB12 PB14 PB15
                           PB3 PB4 PB5 PB6
                           PB7 */
  GPIO_InitStruct.Pin = GPIO_PIN_0|GPIO_PIN_1|GPIO_PIN_2|GPIO_PIN_10
 800058e:	4b13      	ldr	r3, [pc, #76]	; (80005dc <MX_GPIO_Init+0x120>)
 8000590:	9305      	str	r3, [sp, #20]
                          |GPIO_PIN_11|GPIO_PIN_12|GPIO_PIN_14|GPIO_PIN_15
                          |GPIO_PIN_3|GPIO_PIN_4|GPIO_PIN_5|GPIO_PIN_6
                          |GPIO_PIN_7;
  GPIO_InitStruct.Mode = GPIO_MODE_ANALOG;
 8000592:	9506      	str	r5, [sp, #24]
  GPIO_InitStruct.Pull = GPIO_NOPULL;
 8000594:	9407      	str	r4, [sp, #28]
  HAL_GPIO_Init(GPIOB, &GPIO_InitStruct);
 8000596:	a905      	add	r1, sp, #20
 8000598:	4811      	ldr	r0, [pc, #68]	; (80005e0 <MX_GPIO_Init+0x124>)
 800059a:	f002 f82b 	bl	80025f4 <HAL_GPIO_Init>

  /*Configure GPIO pin : PD2 */
  GPIO_InitStruct.Pin = GPIO_PIN_2;
 800059e:	4643      	mov	r3, r8
 80005a0:	9305      	str	r3, [sp, #20]
  GPIO_InitStruct.Mode = GPIO_MODE_ANALOG;
 80005a2:	9506      	str	r5, [sp, #24]
  GPIO_InitStruct.Pull = GPIO_NOPULL;
 80005a4:	9407      	str	r4, [sp, #28]
  HAL_GPIO_Init(GPIOD, &GPIO_InitStruct);
 80005a6:	a905      	add	r1, sp, #20
 80005a8:	480e      	ldr	r0, [pc, #56]	; (80005e4 <MX_GPIO_Init+0x128>)
 80005aa:	f002 f823 	bl	80025f4 <HAL_GPIO_Init>

  /* EXTI interrupt init*/
  HAL_NVIC_SetPriority(EXTI4_15_IRQn, 0, 0);
 80005ae:	2200      	movs	r2, #0
 80005b0:	2100      	movs	r1, #0
 80005b2:	2007      	movs	r0, #7
 80005b4:	f001 ffc4 	bl	8002540 <HAL_NVIC_SetPriority>
  HAL_NVIC_EnableIRQ(EXTI4_15_IRQn);
 80005b8:	2007      	movs	r0, #7
 80005ba:	f001 fff3 	bl	80025a4 <HAL_NVIC_EnableIRQ>

}
 80005be:	b00b      	add	sp, #44	; 0x2c
 80005c0:	bcc0      	pop	{r6, r7}
 80005c2:	46b9      	mov	r9, r7
 80005c4:	46b0      	mov	r8, r6
 80005c6:	bdf0      	pop	{r4, r5, r6, r7, pc}
 80005c8:	40021000 	.word	0x40021000
 80005cc:	00003fff 	.word	0x00003fff
 80005d0:	50000800 	.word	0x50000800
 80005d4:	50001c00 	.word	0x50001c00
 80005d8:	00009fc0 	.word	0x00009fc0
 80005dc:	0000dcff 	.word	0x0000dcff
 80005e0:	50000400 	.word	0x50000400
 80005e4:	50000c00 	.word	0x50000c00

080005e8 <MX_I2C1_Init>:

I2C_HandleTypeDef hi2c1;

/* I2C1 init function */
void MX_I2C1_Init(void)
{
 80005e8:	b510      	push	{r4, lr}
  /* USER CODE END I2C1_Init 0 */

  /* USER CODE BEGIN I2C1_Init 1 */

  /* USER CODE END I2C1_Init 1 */
  hi2c1.Instance = I2C1;
 80005ea:	4814      	ldr	r0, [pc, #80]	; (800063c <MX_I2C1_Init+0x54>)
 80005ec:	4b14      	ldr	r3, [pc, #80]	; (8000640 <MX_I2C1_Init+0x58>)
 80005ee:	6003      	str	r3, [r0, #0]
  hi2c1.Init.Timing = 0x0010061A;
 80005f0:	4b14      	ldr	r3, [pc, #80]	; (8000644 <MX_I2C1_Init+0x5c>)
 80005f2:	6043      	str	r3, [r0, #4]
  hi2c1.Init.OwnAddress1 = 0;
 80005f4:	2300      	movs	r3, #0
 80005f6:	6083      	str	r3, [r0, #8]
  hi2c1.Init.AddressingMode = I2C_ADDRESSINGMODE_7BIT;
 80005f8:	2201      	movs	r2, #1
 80005fa:	60c2      	str	r2, [r0, #12]
  hi2c1.Init.DualAddressMode = I2C_DUALADDRESS_DISABLE;
 80005fc:	6103      	str	r3, [r0, #16]
  hi2c1.Init.OwnAddress2 = 0;
 80005fe:	6143      	str	r3, [r0, #20]
  hi2c1.Init.OwnAddress2Masks = I2C_OA2_NOMASK;
 8000600:	6183      	str	r3, [r0, #24]
  hi2c1.Init.GeneralCallMode = I2C_GENERALCALL_DISABLE;
 8000602:	61c3      	str	r3, [r0, #28]
  hi2c1.Init.NoStretchMode = I2C_NOSTRETCH_DISABLE;
 8000604:	6203      	str	r3, [r0, #32]
  if (HAL_I2C_Init(&hi2c1) != HAL_OK)
 8000606:	f002 fa01 	bl	8002a0c <HAL_I2C_Init>
 800060a:	2800      	cmp	r0, #0
 800060c:	d10c      	bne.n	8000628 <MX_I2C1_Init+0x40>
    Error_Handler();
  }

  /** Configure Analogue filter
  */
  if (HAL_I2CEx_ConfigAnalogFilter(&hi2c1, I2C_ANALOGFILTER_ENABLE) != HAL_OK)
 800060e:	2100      	movs	r1, #0
 8000610:	480a      	ldr	r0, [pc, #40]	; (800063c <MX_I2C1_Init+0x54>)
 8000612:	f002 fbeb 	bl	8002dec <HAL_I2CEx_ConfigAnalogFilter>
 8000616:	2800      	cmp	r0, #0
 8000618:	d109      	bne.n	800062e <MX_I2C1_Init+0x46>
    Error_Handler();
  }

  /** Configure Digital filter
  */
  if (HAL_I2CEx_ConfigDigitalFilter(&hi2c1, 0) != HAL_OK)
 800061a:	2100      	movs	r1, #0
 800061c:	4807      	ldr	r0, [pc, #28]	; (800063c <MX_I2C1_Init+0x54>)
 800061e:	f002 fc11 	bl	8002e44 <HAL_I2CEx_ConfigDigitalFilter>
 8000622:	2800      	cmp	r0, #0
 8000624:	d106      	bne.n	8000634 <MX_I2C1_Init+0x4c>
  }
  /* USER CODE BEGIN I2C1_Init 2 */

  /* USER CODE END I2C1_Init 2 */

}
 8000626:	bd10      	pop	{r4, pc}
    Error_Handler();
 8000628:	f000 fa54 	bl	8000ad4 <Error_Handler>
 800062c:	e7ef      	b.n	800060e <MX_I2C1_Init+0x26>
    Error_Handler();
 800062e:	f000 fa51 	bl	8000ad4 <Error_Handler>
 8000632:	e7f2      	b.n	800061a <MX_I2C1_Init+0x32>
    Error_Handler();
 8000634:	f000 fa4e 	bl	8000ad4 <Error_Handler>
}
 8000638:	e7f5      	b.n	8000626 <MX_I2C1_Init+0x3e>
 800063a:	46c0      	nop			; (mov r8, r8)
 800063c:	200000a0 	.word	0x200000a0
 8000640:	40005400 	.word	0x40005400
 8000644:	0010061a 	.word	0x0010061a

08000648 <HAL_I2C_MspInit>:

void HAL_I2C_MspInit(I2C_HandleTypeDef* i2cHandle)
{
 8000648:	b510      	push	{r4, lr}
 800064a:	b086      	sub	sp, #24
 800064c:	0004      	movs	r4, r0

  GPIO_InitTypeDef GPIO_InitStruct = {0};
 800064e:	2214      	movs	r2, #20
 8000650:	2100      	movs	r1, #0
 8000652:	a801      	add	r0, sp, #4
 8000654:	f004 f961 	bl	800491a <memset>
  if(i2cHandle->Instance==I2C1)
 8000658:	4b10      	ldr	r3, [pc, #64]	; (800069c <HAL_I2C_MspInit+0x54>)
 800065a:	6822      	ldr	r2, [r4, #0]
 800065c:	429a      	cmp	r2, r3
 800065e:	d001      	beq.n	8000664 <HAL_I2C_MspInit+0x1c>
    __HAL_RCC_I2C1_CLK_ENABLE();
  /* USER CODE BEGIN I2C1_MspInit 1 */

  /* USER CODE END I2C1_MspInit 1 */
  }
}
 8000660:	b006      	add	sp, #24
 8000662:	bd10      	pop	{r4, pc}
    __HAL_RCC_GPIOB_CLK_ENABLE();
 8000664:	4c0e      	ldr	r4, [pc, #56]	; (80006a0 <HAL_I2C_MspInit+0x58>)
 8000666:	6ae2      	ldr	r2, [r4, #44]	; 0x2c
 8000668:	2302      	movs	r3, #2
 800066a:	431a      	orrs	r2, r3
 800066c:	62e2      	str	r2, [r4, #44]	; 0x2c
 800066e:	6ae2      	ldr	r2, [r4, #44]	; 0x2c
 8000670:	4013      	ands	r3, r2
 8000672:	9300      	str	r3, [sp, #0]
 8000674:	9b00      	ldr	r3, [sp, #0]
    GPIO_InitStruct.Pin = GPIO_PIN_8|GPIO_PIN_9;
 8000676:	23c0      	movs	r3, #192	; 0xc0
 8000678:	009b      	lsls	r3, r3, #2
 800067a:	9301      	str	r3, [sp, #4]
    GPIO_InitStruct.Mode = GPIO_MODE_AF_OD;
 800067c:	2312      	movs	r3, #18
 800067e:	9302      	str	r3, [sp, #8]
    GPIO_InitStruct.Speed = GPIO_SPEED_FREQ_VERY_HIGH;
 8000680:	3b0f      	subs	r3, #15
 8000682:	9304      	str	r3, [sp, #16]
    GPIO_InitStruct.Alternate = GPIO_AF4_I2C1;
 8000684:	3301      	adds	r3, #1
 8000686:	9305      	str	r3, [sp, #20]
    HAL_GPIO_Init(GPIOB, &GPIO_InitStruct);
 8000688:	a901      	add	r1, sp, #4
 800068a:	4806      	ldr	r0, [pc, #24]	; (80006a4 <HAL_I2C_MspInit+0x5c>)
 800068c:	f001 ffb2 	bl	80025f4 <HAL_GPIO_Init>
    __HAL_RCC_I2C1_CLK_ENABLE();
 8000690:	6ba2      	ldr	r2, [r4, #56]	; 0x38
 8000692:	2380      	movs	r3, #128	; 0x80
 8000694:	039b      	lsls	r3, r3, #14
 8000696:	4313      	orrs	r3, r2
 8000698:	63a3      	str	r3, [r4, #56]	; 0x38
}
 800069a:	e7e1      	b.n	8000660 <HAL_I2C_MspInit+0x18>
 800069c:	40005400 	.word	0x40005400
 80006a0:	40021000 	.word	0x40021000
 80006a4:	50000400 	.word	0x50000400

080006a8 <SystemClock_Config>:
/**
  * @brief System Clock Configuration
  * @retval None
  */
void SystemClock_Config(void)
{
 80006a8:	b500      	push	{lr}
 80006aa:	b09f      	sub	sp, #124	; 0x7c
  RCC_OscInitTypeDef RCC_OscInitStruct = {0};
 80006ac:	2238      	movs	r2, #56	; 0x38
 80006ae:	2100      	movs	r1, #0
 80006b0:	a810      	add	r0, sp, #64	; 0x40
 80006b2:	f004 f932 	bl	800491a <memset>
  RCC_ClkInitTypeDef RCC_ClkInitStruct = {0};
 80006b6:	2214      	movs	r2, #20
 80006b8:	2100      	movs	r1, #0
 80006ba:	a80b      	add	r0, sp, #44	; 0x2c
 80006bc:	f004 f92d 	bl	800491a <memset>
  RCC_PeriphCLKInitTypeDef PeriphClkInit = {0};
 80006c0:	2228      	movs	r2, #40	; 0x28
 80006c2:	2100      	movs	r1, #0
 80006c4:	a801      	add	r0, sp, #4
 80006c6:	f004 f928 	bl	800491a <memset>

  /** Configure the main internal regulator output voltage
  */
  __HAL_PWR_VOLTAGESCALING_CONFIG(PWR_REGULATOR_VOLTAGE_SCALE1);
 80006ca:	491f      	ldr	r1, [pc, #124]	; (8000748 <SystemClock_Config+0xa0>)
 80006cc:	680b      	ldr	r3, [r1, #0]
 80006ce:	4a1f      	ldr	r2, [pc, #124]	; (800074c <SystemClock_Config+0xa4>)
 80006d0:	401a      	ands	r2, r3
 80006d2:	2380      	movs	r3, #128	; 0x80
 80006d4:	011b      	lsls	r3, r3, #4
 80006d6:	4313      	orrs	r3, r2
 80006d8:	600b      	str	r3, [r1, #0]

  /** Initializes the RCC Oscillators according to the specified parameters
  * in the RCC_OscInitTypeDef structure.
  */
  RCC_OscInitStruct.OscillatorType = RCC_OSCILLATORTYPE_HSE;
 80006da:	2301      	movs	r3, #1
 80006dc:	9310      	str	r3, [sp, #64]	; 0x40
  RCC_OscInitStruct.HSEState = RCC_HSE_BYPASS;
 80006de:	23a0      	movs	r3, #160	; 0xa0
 80006e0:	02db      	lsls	r3, r3, #11
 80006e2:	9311      	str	r3, [sp, #68]	; 0x44
  RCC_OscInitStruct.PLL.PLLState = RCC_PLL_ON;
 80006e4:	2302      	movs	r3, #2
 80006e6:	931a      	str	r3, [sp, #104]	; 0x68
  RCC_OscInitStruct.PLL.PLLSource = RCC_PLLSOURCE_HSE;
 80006e8:	2380      	movs	r3, #128	; 0x80
 80006ea:	025b      	lsls	r3, r3, #9
 80006ec:	931b      	str	r3, [sp, #108]	; 0x6c
  RCC_OscInitStruct.PLL.PLLMUL = RCC_PLLMUL_4;
 80006ee:	2380      	movs	r3, #128	; 0x80
 80006f0:	02db      	lsls	r3, r3, #11
 80006f2:	931c      	str	r3, [sp, #112]	; 0x70
  RCC_OscInitStruct.PLL.PLLDIV = RCC_PLLDIV_2;
 80006f4:	2380      	movs	r3, #128	; 0x80
 80006f6:	03db      	lsls	r3, r3, #15
 80006f8:	931d      	str	r3, [sp, #116]	; 0x74
  if (HAL_RCC_OscConfig(&RCC_OscInitStruct) != HAL_OK)
 80006fa:	a810      	add	r0, sp, #64	; 0x40
 80006fc:	f002 fc26 	bl	8002f4c <HAL_RCC_OscConfig>
 8000700:	2800      	cmp	r0, #0
 8000702:	d11a      	bne.n	800073a <SystemClock_Config+0x92>
    Error_Handler();
  }

  /** Initializes the CPU, AHB and APB buses clocks
  */
  RCC_ClkInitStruct.ClockType = RCC_CLOCKTYPE_HCLK|RCC_CLOCKTYPE_SYSCLK
 8000704:	230f      	movs	r3, #15
 8000706:	930b      	str	r3, [sp, #44]	; 0x2c
                              |RCC_CLOCKTYPE_PCLK1|RCC_CLOCKTYPE_PCLK2;
  RCC_ClkInitStruct.SYSCLKSource = RCC_SYSCLKSOURCE_PLLCLK;
 8000708:	3b0c      	subs	r3, #12
 800070a:	930c      	str	r3, [sp, #48]	; 0x30
  RCC_ClkInitStruct.AHBCLKDivider = RCC_SYSCLK_DIV1;
 800070c:	2300      	movs	r3, #0
 800070e:	930d      	str	r3, [sp, #52]	; 0x34
  RCC_ClkInitStruct.APB1CLKDivider = RCC_HCLK_DIV1;
 8000710:	930e      	str	r3, [sp, #56]	; 0x38
  RCC_ClkInitStruct.APB2CLKDivider = RCC_HCLK_DIV1;
 8000712:	930f      	str	r3, [sp, #60]	; 0x3c

  if (HAL_RCC_ClockConfig(&RCC_ClkInitStruct, FLASH_LATENCY_0) != HAL_OK)
 8000714:	2100      	movs	r1, #0
 8000716:	a80b      	add	r0, sp, #44	; 0x2c
 8000718:	f002 ff1e 	bl	8003558 <HAL_RCC_ClockConfig>
 800071c:	2800      	cmp	r0, #0
 800071e:	d10e      	bne.n	800073e <SystemClock_Config+0x96>
  {
    Error_Handler();
  }
  PeriphClkInit.PeriphClockSelection = RCC_PERIPHCLK_USART2|RCC_PERIPHCLK_I2C1;
 8000720:	230a      	movs	r3, #10
 8000722:	9301      	str	r3, [sp, #4]
  PeriphClkInit.Usart2ClockSelection = RCC_USART2CLKSOURCE_SYSCLK;
 8000724:	3b06      	subs	r3, #6
 8000726:	9305      	str	r3, [sp, #20]
  PeriphClkInit.I2c1ClockSelection = RCC_I2C1CLKSOURCE_PCLK1;
 8000728:	2300      	movs	r3, #0
 800072a:	9307      	str	r3, [sp, #28]
  if (HAL_RCCEx_PeriphCLKConfig(&PeriphClkInit) != HAL_OK)
 800072c:	a801      	add	r0, sp, #4
 800072e:	f003 f833 	bl	8003798 <HAL_RCCEx_PeriphCLKConfig>
 8000732:	2800      	cmp	r0, #0
 8000734:	d105      	bne.n	8000742 <SystemClock_Config+0x9a>
  {
    Error_Handler();
  }
}
 8000736:	b01f      	add	sp, #124	; 0x7c
 8000738:	bd00      	pop	{pc}
  \details Disables IRQ interrupts by setting the I-bit in the CPSR.
           Can only be executed in Privileged modes.
 */
__STATIC_FORCEINLINE void __disable_irq(void)
{
  __ASM volatile ("cpsid i" : : : "memory");
 800073a:	b672      	cpsid	i
void Error_Handler(void)
{
  /* USER CODE BEGIN Error_Handler_Debug */
  /* User can add his own implementation to report the HAL error return state */
  __disable_irq();
  while (1)
 800073c:	e7fe      	b.n	800073c <SystemClock_Config+0x94>
 800073e:	b672      	cpsid	i
 8000740:	e7fe      	b.n	8000740 <SystemClock_Config+0x98>
 8000742:	b672      	cpsid	i
 8000744:	e7fe      	b.n	8000744 <SystemClock_Config+0x9c>
 8000746:	46c0      	nop			; (mov r8, r8)
 8000748:	40007000 	.word	0x40007000
 800074c:	ffffe7ff 	.word	0xffffe7ff

08000750 <main>:
{
 8000750:	b510      	push	{r4, lr}
  HAL_Init();
 8000752:	f001 febd 	bl	80024d0 <HAL_Init>
  SystemClock_Config();
 8000756:	f7ff ffa7 	bl	80006a8 <SystemClock_Config>
  MX_GPIO_Init();
 800075a:	f7ff feaf 	bl	80004bc <MX_GPIO_Init>
  MX_USART2_UART_Init();
 800075e:	f001 fe1b 	bl	8002398 <MX_USART2_UART_Init>
  MX_I2C1_Init();
 8000762:	f7ff ff41 	bl	80005e8 <MX_I2C1_Init>
  MX_TIM2_Init();
 8000766:	f001 fc3d 	bl	8001fe4 <MX_TIM2_Init>
  MX_TIM6_Init();
 800076a:	f001 fc73 	bl	8002054 <MX_TIM6_Init>
  MX_TIM7_Init();
 800076e:	f001 fc9d 	bl	80020ac <MX_TIM7_Init>
  MX_TIM21_Init();
 8000772:	f001 fdaf 	bl	80022d4 <MX_TIM21_Init>
  MX_TIM22_Init();
 8000776:	f001 fcc5 	bl	8002104 <MX_TIM22_Init>
  Structures_Init();
 800077a:	f001 fb01 	bl	8001d80 <Structures_Init>
  SSD1306_Init();
 800077e:	f000 fc53 	bl	8001028 <SSD1306_Init>
  SSD1306_SetContrast(0);
 8000782:	2000      	movs	r0, #0
 8000784:	f000 fd06 	bl	8001194 <SSD1306_SetContrast>
  Set_Theme();
 8000788:	f001 fa14 	bl	8001bb4 <Set_Theme>
  __HAL_TIM_SET_COUNTER(&TIMER_ENCODER, 32000);
 800078c:	4804      	ldr	r0, [pc, #16]	; (80007a0 <main+0x50>)
 800078e:	6803      	ldr	r3, [r0, #0]
 8000790:	22fa      	movs	r2, #250	; 0xfa
 8000792:	01d2      	lsls	r2, r2, #7
 8000794:	625a      	str	r2, [r3, #36]	; 0x24
  HAL_TIM_Encoder_Start_IT(&TIMER_ENCODER, TIM_CHANNEL_ALL);
 8000796:	213c      	movs	r1, #60	; 0x3c
 8000798:	f003 fb0e 	bl	8003db8 <HAL_TIM_Encoder_Start_IT>
  while (1)
 800079c:	e7fe      	b.n	800079c <main+0x4c>
 800079e:	46c0      	nop			; (mov r8, r8)
 80007a0:	20000640 	.word	0x20000640

080007a4 <HAL_TIM_IC_CaptureCallback>:
{
 80007a4:	b510      	push	{r4, lr}
	if (htim->Instance == TIM2)
 80007a6:	2380      	movs	r3, #128	; 0x80
 80007a8:	05db      	lsls	r3, r3, #23
 80007aa:	6802      	ldr	r2, [r0, #0]
 80007ac:	429a      	cmp	r2, r3
 80007ae:	d000      	beq.n	80007b2 <HAL_TIM_IC_CaptureCallback+0xe>
}
 80007b0:	bd10      	pop	{r4, pc}
		uint8_t tim7BusyFlag = HAL_TIM_Base_GetState(&TIMER_ENCODER_BUFFER);
 80007b2:	4807      	ldr	r0, [pc, #28]	; (80007d0 <HAL_TIM_IC_CaptureCallback+0x2c>)
 80007b4:	f003 fd88 	bl	80042c8 <HAL_TIM_Base_GetState>
 80007b8:	0004      	movs	r4, r0
		uint8_t encoderBusyFlag = HAL_TIM_Encoder_GetState(&TIMER_ENCODER);
 80007ba:	4806      	ldr	r0, [pc, #24]	; (80007d4 <HAL_TIM_IC_CaptureCallback+0x30>)
 80007bc:	f003 fd88 	bl	80042d0 <HAL_TIM_Encoder_GetState>
		if (tim7BusyFlag == 1 && encoderBusyFlag == 1) HAL_TIM_Base_Start_IT(&TIMER_ENCODER_BUFFER);
 80007c0:	2c01      	cmp	r4, #1
 80007c2:	d1f5      	bne.n	80007b0 <HAL_TIM_IC_CaptureCallback+0xc>
 80007c4:	2801      	cmp	r0, #1
 80007c6:	d1f3      	bne.n	80007b0 <HAL_TIM_IC_CaptureCallback+0xc>
 80007c8:	4801      	ldr	r0, [pc, #4]	; (80007d0 <HAL_TIM_IC_CaptureCallback+0x2c>)
 80007ca:	f003 fa2b 	bl	8003c24 <HAL_TIM_Base_Start_IT>
}
 80007ce:	e7ef      	b.n	80007b0 <HAL_TIM_IC_CaptureCallback+0xc>
 80007d0:	20000740 	.word	0x20000740
 80007d4:	20000640 	.word	0x20000640

080007d8 <HAL_TIM_PeriodElapsedCallback>:
{
 80007d8:	b570      	push	{r4, r5, r6, lr}
 80007da:	0004      	movs	r4, r0
	if (htim->Instance == TIM22)
 80007dc:	4b9c      	ldr	r3, [pc, #624]	; (8000a50 <HAL_TIM_PeriodElapsedCallback+0x278>)
 80007de:	6802      	ldr	r2, [r0, #0]
 80007e0:	429a      	cmp	r2, r3
 80007e2:	d009      	beq.n	80007f8 <HAL_TIM_PeriodElapsedCallback+0x20>
	if (htim->Instance == TIM6)
 80007e4:	4b9b      	ldr	r3, [pc, #620]	; (8000a54 <HAL_TIM_PeriodElapsedCallback+0x27c>)
 80007e6:	6822      	ldr	r2, [r4, #0]
 80007e8:	429a      	cmp	r2, r3
 80007ea:	d00b      	beq.n	8000804 <HAL_TIM_PeriodElapsedCallback+0x2c>
	if (htim->Instance == TIM7)
 80007ec:	4b9a      	ldr	r3, [pc, #616]	; (8000a58 <HAL_TIM_PeriodElapsedCallback+0x280>)
 80007ee:	6822      	ldr	r2, [r4, #0]
 80007f0:	429a      	cmp	r2, r3
 80007f2:	d100      	bne.n	80007f6 <HAL_TIM_PeriodElapsedCallback+0x1e>
 80007f4:	e0c4      	b.n	8000980 <HAL_TIM_PeriodElapsedCallback+0x1a8>
}
 80007f6:	bd70      	pop	{r4, r5, r6, pc}
		HAL_GPIO_TogglePin(C_LED_GPIO_Port, C_LED_Pin);
 80007f8:	20a0      	movs	r0, #160	; 0xa0
 80007fa:	2120      	movs	r1, #32
 80007fc:	05c0      	lsls	r0, r0, #23
 80007fe:	f001 ffff 	bl	8002800 <HAL_GPIO_TogglePin>
 8000802:	e7ef      	b.n	80007e4 <HAL_TIM_PeriodElapsedCallback+0xc>
		bool btnBusyFlag = HAL_GPIO_ReadPin(GPIOA, MAIN_BTN_Pin);
 8000804:	20a0      	movs	r0, #160	; 0xa0
 8000806:	2110      	movs	r1, #16
 8000808:	05c0      	lsls	r0, r0, #23
 800080a:	f001 ffed 	bl	80027e8 <HAL_GPIO_ReadPin>
 800080e:	0005      	movs	r5, r0
		HAL_TIM_Base_Stop_IT(&TIMER_BUTTON_BUFFER);
 8000810:	4892      	ldr	r0, [pc, #584]	; (8000a5c <HAL_TIM_PeriodElapsedCallback+0x284>)
 8000812:	f003 fa3b 	bl	8003c8c <HAL_TIM_Base_Stop_IT>
		if (!btnBusyFlag)
 8000816:	2d00      	cmp	r5, #0
 8000818:	d00b      	beq.n	8000832 <HAL_TIM_PeriodElapsedCallback+0x5a>
			pressBtnCounter = 0;
 800081a:	4b91      	ldr	r3, [pc, #580]	; (8000a60 <HAL_TIM_PeriodElapsedCallback+0x288>)
 800081c:	2200      	movs	r2, #0
 800081e:	701a      	strb	r2, [r3, #0]
			switch (g_workStep)
 8000820:	4b90      	ldr	r3, [pc, #576]	; (8000a64 <HAL_TIM_PeriodElapsedCallback+0x28c>)
 8000822:	781b      	ldrb	r3, [r3, #0]
 8000824:	b2db      	uxtb	r3, r3
 8000826:	2b0b      	cmp	r3, #11
 8000828:	d8e0      	bhi.n	80007ec <HAL_TIM_PeriodElapsedCallback+0x14>
 800082a:	009b      	lsls	r3, r3, #2
 800082c:	4a8e      	ldr	r2, [pc, #568]	; (8000a68 <HAL_TIM_PeriodElapsedCallback+0x290>)
 800082e:	58d3      	ldr	r3, [r2, r3]
 8000830:	469f      	mov	pc, r3
			HAL_TIM_Base_Start_IT(&TIMER_BUTTON_BUFFER);
 8000832:	488a      	ldr	r0, [pc, #552]	; (8000a5c <HAL_TIM_PeriodElapsedCallback+0x284>)
 8000834:	f003 f9f6 	bl	8003c24 <HAL_TIM_Base_Start_IT>
			if ((g_workStep >= 2 && g_workStep <=61)) pressBtnCounter++;
 8000838:	4b8a      	ldr	r3, [pc, #552]	; (8000a64 <HAL_TIM_PeriodElapsedCallback+0x28c>)
 800083a:	781b      	ldrb	r3, [r3, #0]
 800083c:	b2db      	uxtb	r3, r3
 800083e:	2b01      	cmp	r3, #1
 8000840:	d909      	bls.n	8000856 <HAL_TIM_PeriodElapsedCallback+0x7e>
 8000842:	4b88      	ldr	r3, [pc, #544]	; (8000a64 <HAL_TIM_PeriodElapsedCallback+0x28c>)
 8000844:	781b      	ldrb	r3, [r3, #0]
 8000846:	b2db      	uxtb	r3, r3
 8000848:	2b3d      	cmp	r3, #61	; 0x3d
 800084a:	d804      	bhi.n	8000856 <HAL_TIM_PeriodElapsedCallback+0x7e>
 800084c:	4a84      	ldr	r2, [pc, #528]	; (8000a60 <HAL_TIM_PeriodElapsedCallback+0x288>)
 800084e:	7813      	ldrb	r3, [r2, #0]
 8000850:	3301      	adds	r3, #1
 8000852:	b2db      	uxtb	r3, r3
 8000854:	7013      	strb	r3, [r2, #0]
			if (pressBtnCounter > PRESS_BTN_TIME)
 8000856:	4b82      	ldr	r3, [pc, #520]	; (8000a60 <HAL_TIM_PeriodElapsedCallback+0x288>)
 8000858:	781b      	ldrb	r3, [r3, #0]
 800085a:	b2db      	uxtb	r3, r3
 800085c:	2b0a      	cmp	r3, #10
 800085e:	d9c5      	bls.n	80007ec <HAL_TIM_PeriodElapsedCallback+0x14>
				HAL_TIM_Base_Stop_IT(&TIMER_BUTTON_BUFFER);
 8000860:	487e      	ldr	r0, [pc, #504]	; (8000a5c <HAL_TIM_PeriodElapsedCallback+0x284>)
 8000862:	f003 fa13 	bl	8003c8c <HAL_TIM_Base_Stop_IT>
				switch (g_workStep)
 8000866:	4b7f      	ldr	r3, [pc, #508]	; (8000a64 <HAL_TIM_PeriodElapsedCallback+0x28c>)
 8000868:	781b      	ldrb	r3, [r3, #0]
 800086a:	b2db      	uxtb	r3, r3
 800086c:	2b0c      	cmp	r3, #12
 800086e:	d807      	bhi.n	8000880 <HAL_TIM_PeriodElapsedCallback+0xa8>
 8000870:	2b01      	cmp	r3, #1
 8000872:	d922      	bls.n	80008ba <HAL_TIM_PeriodElapsedCallback+0xe2>
 8000874:	2b0c      	cmp	r3, #12
 8000876:	d820      	bhi.n	80008ba <HAL_TIM_PeriodElapsedCallback+0xe2>
 8000878:	009b      	lsls	r3, r3, #2
 800087a:	4a7c      	ldr	r2, [pc, #496]	; (8000a6c <HAL_TIM_PeriodElapsedCallback+0x294>)
 800087c:	58d3      	ldr	r3, [r2, r3]
 800087e:	469f      	mov	pc, r3
 8000880:	2b3d      	cmp	r3, #61	; 0x3d
 8000882:	d11a      	bne.n	80008ba <HAL_TIM_PeriodElapsedCallback+0xe2>
						if (!g_selector) g_workStep = STEP_START_POSITION_SET;
 8000884:	4b7a      	ldr	r3, [pc, #488]	; (8000a70 <HAL_TIM_PeriodElapsedCallback+0x298>)
 8000886:	781b      	ldrb	r3, [r3, #0]
 8000888:	2b00      	cmp	r3, #0
 800088a:	d13c      	bne.n	8000906 <HAL_TIM_PeriodElapsedCallback+0x12e>
 800088c:	4b75      	ldr	r3, [pc, #468]	; (8000a64 <HAL_TIM_PeriodElapsedCallback+0x28c>)
 800088e:	2207      	movs	r2, #7
 8000890:	701a      	strb	r2, [r3, #0]
						g_selector = 0;
 8000892:	4b77      	ldr	r3, [pc, #476]	; (8000a70 <HAL_TIM_PeriodElapsedCallback+0x298>)
 8000894:	2200      	movs	r2, #0
 8000896:	701a      	strb	r2, [r3, #0]
				if (!exception)
 8000898:	e014      	b.n	80008c4 <HAL_TIM_PeriodElapsedCallback+0xec>
						g_workStep = STEP_PROJECT_TASKS_LIST;
 800089a:	4b72      	ldr	r3, [pc, #456]	; (8000a64 <HAL_TIM_PeriodElapsedCallback+0x28c>)
 800089c:	220c      	movs	r2, #12
 800089e:	701a      	strb	r2, [r3, #0]
				if (!exception)
 80008a0:	e010      	b.n	80008c4 <HAL_TIM_PeriodElapsedCallback+0xec>
						g_workStep = STEP_SELECT_PROJECT;
 80008a2:	4b70      	ldr	r3, [pc, #448]	; (8000a64 <HAL_TIM_PeriodElapsedCallback+0x28c>)
 80008a4:	2201      	movs	r2, #1
 80008a6:	701a      	strb	r2, [r3, #0]
				if (!exception)
 80008a8:	e00c      	b.n	80008c4 <HAL_TIM_PeriodElapsedCallback+0xec>
						g_width_MAIN = Array_To_Int_Change_Value();
 80008aa:	f000 fd13 	bl	80012d4 <Array_To_Int_Change_Value>
 80008ae:	4b71      	ldr	r3, [pc, #452]	; (8000a74 <HAL_TIM_PeriodElapsedCallback+0x29c>)
 80008b0:	8018      	strh	r0, [r3, #0]
						Save_Set_Value(g_width_MAIN);
 80008b2:	8818      	ldrh	r0, [r3, #0]
 80008b4:	b280      	uxth	r0, r0
 80008b6:	f000 fdbd 	bl	8001434 <Save_Set_Value>
					g_workStep++;
 80008ba:	4a6a      	ldr	r2, [pc, #424]	; (8000a64 <HAL_TIM_PeriodElapsedCallback+0x28c>)
 80008bc:	7813      	ldrb	r3, [r2, #0]
 80008be:	3301      	adds	r3, #1
 80008c0:	b2db      	uxtb	r3, r3
 80008c2:	7013      	strb	r3, [r2, #0]
				pressBtnCounter = 0;
 80008c4:	4b66      	ldr	r3, [pc, #408]	; (8000a60 <HAL_TIM_PeriodElapsedCallback+0x288>)
 80008c6:	2200      	movs	r2, #0
 80008c8:	701a      	strb	r2, [r3, #0]
				Set_Theme();
 80008ca:	f001 f973 	bl	8001bb4 <Set_Theme>
 80008ce:	e78d      	b.n	80007ec <HAL_TIM_PeriodElapsedCallback+0x14>
						g_turns_MAIN = Array_To_Int_Change_Value();
 80008d0:	f000 fd00 	bl	80012d4 <Array_To_Int_Change_Value>
 80008d4:	4b68      	ldr	r3, [pc, #416]	; (8000a78 <HAL_TIM_PeriodElapsedCallback+0x2a0>)
 80008d6:	8018      	strh	r0, [r3, #0]
						Save_Set_Value(g_turns_MAIN);
 80008d8:	8818      	ldrh	r0, [r3, #0]
 80008da:	b280      	uxth	r0, r0
 80008dc:	f000 fdaa 	bl	8001434 <Save_Set_Value>
				if (!exception)
 80008e0:	e7eb      	b.n	80008ba <HAL_TIM_PeriodElapsedCallback+0xe2>
						g_diameter_MAIN = Array_To_Int_Change_Value();
 80008e2:	f000 fcf7 	bl	80012d4 <Array_To_Int_Change_Value>
 80008e6:	4b65      	ldr	r3, [pc, #404]	; (8000a7c <HAL_TIM_PeriodElapsedCallback+0x2a4>)
 80008e8:	8018      	strh	r0, [r3, #0]
						Save_Set_Value(g_diameter_MAIN);
 80008ea:	8818      	ldrh	r0, [r3, #0]
 80008ec:	b280      	uxth	r0, r0
 80008ee:	f000 fda1 	bl	8001434 <Save_Set_Value>
				if (!exception)
 80008f2:	e7e2      	b.n	80008ba <HAL_TIM_PeriodElapsedCallback+0xe2>
						g_speed_MAIN = Array_To_Int_Change_Value();
 80008f4:	f000 fcee 	bl	80012d4 <Array_To_Int_Change_Value>
 80008f8:	4b61      	ldr	r3, [pc, #388]	; (8000a80 <HAL_TIM_PeriodElapsedCallback+0x2a8>)
 80008fa:	8018      	strh	r0, [r3, #0]
						Save_Set_Value(g_speed_MAIN);
 80008fc:	8818      	ldrh	r0, [r3, #0]
 80008fe:	b280      	uxth	r0, r0
 8000900:	f000 fd98 	bl	8001434 <Save_Set_Value>
				if (!exception)
 8000904:	e7d9      	b.n	80008ba <HAL_TIM_PeriodElapsedCallback+0xe2>
							g_workStep = STEP_WIDTH_SET;
 8000906:	4b57      	ldr	r3, [pc, #348]	; (8000a64 <HAL_TIM_PeriodElapsedCallback+0x28c>)
 8000908:	2202      	movs	r2, #2
 800090a:	701a      	strb	r2, [r3, #0]
							g_correctionFlag = 1;
 800090c:	4b5d      	ldr	r3, [pc, #372]	; (8000a84 <HAL_TIM_PeriodElapsedCallback+0x2ac>)
 800090e:	3a01      	subs	r2, #1
 8000910:	701a      	strb	r2, [r3, #0]
 8000912:	e7be      	b.n	8000892 <HAL_TIM_PeriodElapsedCallback+0xba>
					if (g_projectSelect == 0) g_workStep = STEP_WIDTH_SET;
 8000914:	4b5c      	ldr	r3, [pc, #368]	; (8000a88 <HAL_TIM_PeriodElapsedCallback+0x2b0>)
 8000916:	781b      	ldrb	r3, [r3, #0]
 8000918:	2b00      	cmp	r3, #0
 800091a:	d105      	bne.n	8000928 <HAL_TIM_PeriodElapsedCallback+0x150>
 800091c:	4b51      	ldr	r3, [pc, #324]	; (8000a64 <HAL_TIM_PeriodElapsedCallback+0x28c>)
 800091e:	2202      	movs	r2, #2
 8000920:	701a      	strb	r2, [r3, #0]
					Set_Theme();
 8000922:	f001 f947 	bl	8001bb4 <Set_Theme>
					break;
 8000926:	e761      	b.n	80007ec <HAL_TIM_PeriodElapsedCallback+0x14>
					else g_workStep = STEP_PROJECT_DETAILS;
 8000928:	4b4e      	ldr	r3, [pc, #312]	; (8000a64 <HAL_TIM_PeriodElapsedCallback+0x28c>)
 800092a:	220b      	movs	r2, #11
 800092c:	701a      	strb	r2, [r3, #0]
 800092e:	e7f8      	b.n	8000922 <HAL_TIM_PeriodElapsedCallback+0x14a>
					g_workStep = STEP_SELECT_PROJECT;
 8000930:	4b4c      	ldr	r3, [pc, #304]	; (8000a64 <HAL_TIM_PeriodElapsedCallback+0x28c>)
 8000932:	2201      	movs	r2, #1
 8000934:	701a      	strb	r2, [r3, #0]
					Set_Theme();
 8000936:	f001 f93d 	bl	8001bb4 <Set_Theme>
					break;
 800093a:	e757      	b.n	80007ec <HAL_TIM_PeriodElapsedCallback+0x14>
					Show_Value_Screen(VAL_TYPE_CARCASS_WIDTH, VALUE_CHANGE_FLAG_NO, 0, RUN_FLAG_CONTI);
 800093c:	2300      	movs	r3, #0
 800093e:	2200      	movs	r2, #0
 8000940:	2100      	movs	r1, #0
 8000942:	2000      	movs	r0, #0
 8000944:	f000 fdcc 	bl	80014e0 <Show_Value_Screen>
					break;
 8000948:	e750      	b.n	80007ec <HAL_TIM_PeriodElapsedCallback+0x14>
					Show_Value_Screen(VAL_TYPE_CARCASS_COIL_TURNS, VALUE_CHANGE_FLAG_NO, 0, RUN_FLAG_CONTI);
 800094a:	2300      	movs	r3, #0
 800094c:	2200      	movs	r2, #0
 800094e:	2100      	movs	r1, #0
 8000950:	2001      	movs	r0, #1
 8000952:	f000 fdc5 	bl	80014e0 <Show_Value_Screen>
					break;
 8000956:	e749      	b.n	80007ec <HAL_TIM_PeriodElapsedCallback+0x14>
					Show_Value_Screen(VAL_TYPE_WINDING_DIAMETER, VALUE_CHANGE_FLAG_NO, 0, RUN_FLAG_CONTI);
 8000958:	2300      	movs	r3, #0
 800095a:	2200      	movs	r2, #0
 800095c:	2100      	movs	r1, #0
 800095e:	2002      	movs	r0, #2
 8000960:	f000 fdbe 	bl	80014e0 <Show_Value_Screen>
					break;
 8000964:	e742      	b.n	80007ec <HAL_TIM_PeriodElapsedCallback+0x14>
					Show_Value_Screen(VAL_TYPE_WINDING_SPEED, VALUE_CHANGE_FLAG_NO, 0, RUN_FLAG_CONTI);
 8000966:	2300      	movs	r3, #0
 8000968:	2200      	movs	r2, #0
 800096a:	2100      	movs	r1, #0
 800096c:	2003      	movs	r0, #3
 800096e:	f000 fdb7 	bl	80014e0 <Show_Value_Screen>
					break;
 8000972:	e73b      	b.n	80007ec <HAL_TIM_PeriodElapsedCallback+0x14>
					g_workStep = STEP_CORRECTNES_QUERY;
 8000974:	4b3b      	ldr	r3, [pc, #236]	; (8000a64 <HAL_TIM_PeriodElapsedCallback+0x28c>)
 8000976:	223d      	movs	r2, #61	; 0x3d
 8000978:	701a      	strb	r2, [r3, #0]
					Set_Theme();
 800097a:	f001 f91b 	bl	8001bb4 <Set_Theme>
					break;
 800097e:	e735      	b.n	80007ec <HAL_TIM_PeriodElapsedCallback+0x14>
		HAL_TIM_Base_Stop_IT(&TIMER_ENCODER_BUFFER);
 8000980:	4842      	ldr	r0, [pc, #264]	; (8000a8c <HAL_TIM_PeriodElapsedCallback+0x2b4>)
 8000982:	f003 f983 	bl	8003c8c <HAL_TIM_Base_Stop_IT>
		encoderCount = (__HAL_TIM_GET_COUNTER(&TIMER_ENCODER) / 2);
 8000986:	4b42      	ldr	r3, [pc, #264]	; (8000a90 <HAL_TIM_PeriodElapsedCallback+0x2b8>)
 8000988:	681b      	ldr	r3, [r3, #0]
 800098a:	6a5b      	ldr	r3, [r3, #36]	; 0x24
 800098c:	085b      	lsrs	r3, r3, #1
 800098e:	b29b      	uxth	r3, r3
 8000990:	4a40      	ldr	r2, [pc, #256]	; (8000a94 <HAL_TIM_PeriodElapsedCallback+0x2bc>)
 8000992:	8013      	strh	r3, [r2, #0]
		if (encoderCount != encoderCountPrev)
 8000994:	8813      	ldrh	r3, [r2, #0]
 8000996:	4a40      	ldr	r2, [pc, #256]	; (8000a98 <HAL_TIM_PeriodElapsedCallback+0x2c0>)
 8000998:	8812      	ldrh	r2, [r2, #0]
 800099a:	b29b      	uxth	r3, r3
 800099c:	4293      	cmp	r3, r2
 800099e:	d100      	bne.n	80009a2 <HAL_TIM_PeriodElapsedCallback+0x1ca>
 80009a0:	e729      	b.n	80007f6 <HAL_TIM_PeriodElapsedCallback+0x1e>
			if (encoderCount > encoderCountPrev) direction = 1;
 80009a2:	4b3c      	ldr	r3, [pc, #240]	; (8000a94 <HAL_TIM_PeriodElapsedCallback+0x2bc>)
 80009a4:	881c      	ldrh	r4, [r3, #0]
 80009a6:	b2a4      	uxth	r4, r4
 80009a8:	483b      	ldr	r0, [pc, #236]	; (8000a98 <HAL_TIM_PeriodElapsedCallback+0x2c0>)
 80009aa:	8801      	ldrh	r1, [r0, #0]
 80009ac:	b289      	uxth	r1, r1
 80009ae:	42a1      	cmp	r1, r4
 80009b0:	4192      	sbcs	r2, r2
 80009b2:	4252      	negs	r2, r2
			encoderCountPrev = encoderCount;
 80009b4:	881b      	ldrh	r3, [r3, #0]
 80009b6:	b29b      	uxth	r3, r3
 80009b8:	8003      	strh	r3, [r0, #0]
			switch (g_workStep)
 80009ba:	4b2a      	ldr	r3, [pc, #168]	; (8000a64 <HAL_TIM_PeriodElapsedCallback+0x28c>)
 80009bc:	781b      	ldrb	r3, [r3, #0]
 80009be:	b2db      	uxtb	r3, r3
 80009c0:	2b05      	cmp	r3, #5
 80009c2:	d809      	bhi.n	80009d8 <HAL_TIM_PeriodElapsedCallback+0x200>
 80009c4:	2b00      	cmp	r3, #0
 80009c6:	d100      	bne.n	80009ca <HAL_TIM_PeriodElapsedCallback+0x1f2>
 80009c8:	e715      	b.n	80007f6 <HAL_TIM_PeriodElapsedCallback+0x1e>
 80009ca:	2b05      	cmp	r3, #5
 80009cc:	d900      	bls.n	80009d0 <HAL_TIM_PeriodElapsedCallback+0x1f8>
 80009ce:	e712      	b.n	80007f6 <HAL_TIM_PeriodElapsedCallback+0x1e>
 80009d0:	009b      	lsls	r3, r3, #2
 80009d2:	4832      	ldr	r0, [pc, #200]	; (8000a9c <HAL_TIM_PeriodElapsedCallback+0x2c4>)
 80009d4:	58c3      	ldr	r3, [r0, r3]
 80009d6:	469f      	mov	pc, r3
 80009d8:	2b3d      	cmp	r3, #61	; 0x3d
 80009da:	d000      	beq.n	80009de <HAL_TIM_PeriodElapsedCallback+0x206>
 80009dc:	e70b      	b.n	80007f6 <HAL_TIM_PeriodElapsedCallback+0x1e>
					Show_Summary_Correctness_Query(direction, RUN_FLAG_CONTI);
 80009de:	2100      	movs	r1, #0
 80009e0:	0010      	movs	r0, r2
 80009e2:	f001 f837 	bl	8001a54 <Show_Summary_Correctness_Query>
}
 80009e6:	e706      	b.n	80007f6 <HAL_TIM_PeriodElapsedCallback+0x1e>
					if (!direction)
 80009e8:	428c      	cmp	r4, r1
 80009ea:	d80b      	bhi.n	8000a04 <HAL_TIM_PeriodElapsedCallback+0x22c>
						if (g_projectSelect > 0) g_projectSelect--;
 80009ec:	4b26      	ldr	r3, [pc, #152]	; (8000a88 <HAL_TIM_PeriodElapsedCallback+0x2b0>)
 80009ee:	781b      	ldrb	r3, [r3, #0]
 80009f0:	2b00      	cmp	r3, #0
 80009f2:	d004      	beq.n	80009fe <HAL_TIM_PeriodElapsedCallback+0x226>
 80009f4:	4a24      	ldr	r2, [pc, #144]	; (8000a88 <HAL_TIM_PeriodElapsedCallback+0x2b0>)
 80009f6:	7813      	ldrb	r3, [r2, #0]
 80009f8:	3b01      	subs	r3, #1
 80009fa:	b2db      	uxtb	r3, r3
 80009fc:	7013      	strb	r3, [r2, #0]
					Set_Theme();
 80009fe:	f001 f8d9 	bl	8001bb4 <Set_Theme>
					break;
 8000a02:	e6f8      	b.n	80007f6 <HAL_TIM_PeriodElapsedCallback+0x1e>
						if ((g_projectSelect) < G_PROJECT_COUNT) g_projectSelect++;
 8000a04:	4b20      	ldr	r3, [pc, #128]	; (8000a88 <HAL_TIM_PeriodElapsedCallback+0x2b0>)
 8000a06:	781b      	ldrb	r3, [r3, #0]
 8000a08:	b2db      	uxtb	r3, r3
 8000a0a:	4a25      	ldr	r2, [pc, #148]	; (8000aa0 <HAL_TIM_PeriodElapsedCallback+0x2c8>)
 8000a0c:	7812      	ldrb	r2, [r2, #0]
 8000a0e:	429a      	cmp	r2, r3
 8000a10:	d9f5      	bls.n	80009fe <HAL_TIM_PeriodElapsedCallback+0x226>
 8000a12:	4a1d      	ldr	r2, [pc, #116]	; (8000a88 <HAL_TIM_PeriodElapsedCallback+0x2b0>)
 8000a14:	7813      	ldrb	r3, [r2, #0]
 8000a16:	3301      	adds	r3, #1
 8000a18:	b2db      	uxtb	r3, r3
 8000a1a:	7013      	strb	r3, [r2, #0]
 8000a1c:	e7ef      	b.n	80009fe <HAL_TIM_PeriodElapsedCallback+0x226>
					Show_Value_Screen(VAL_TYPE_CARCASS_WIDTH, VALUE_CHANGE_FLAG_YES, direction, RUN_FLAG_CONTI);
 8000a1e:	2300      	movs	r3, #0
 8000a20:	2101      	movs	r1, #1
 8000a22:	2000      	movs	r0, #0
 8000a24:	f000 fd5c 	bl	80014e0 <Show_Value_Screen>
					break;
 8000a28:	e6e5      	b.n	80007f6 <HAL_TIM_PeriodElapsedCallback+0x1e>
					Show_Value_Screen(VAL_TYPE_CARCASS_COIL_TURNS, VALUE_CHANGE_FLAG_YES, direction, RUN_FLAG_CONTI);
 8000a2a:	2300      	movs	r3, #0
 8000a2c:	2101      	movs	r1, #1
 8000a2e:	2001      	movs	r0, #1
 8000a30:	f000 fd56 	bl	80014e0 <Show_Value_Screen>
					break;
 8000a34:	e6df      	b.n	80007f6 <HAL_TIM_PeriodElapsedCallback+0x1e>
					Show_Value_Screen(VAL_TYPE_WINDING_DIAMETER, VALUE_CHANGE_FLAG_YES, direction, RUN_FLAG_CONTI);
 8000a36:	2300      	movs	r3, #0
 8000a38:	2101      	movs	r1, #1
 8000a3a:	2002      	movs	r0, #2
 8000a3c:	f000 fd50 	bl	80014e0 <Show_Value_Screen>
					break;
 8000a40:	e6d9      	b.n	80007f6 <HAL_TIM_PeriodElapsedCallback+0x1e>
					Show_Value_Screen(VAL_TYPE_WINDING_SPEED, VALUE_CHANGE_FLAG_YES, direction, RUN_FLAG_CONTI);
 8000a42:	2300      	movs	r3, #0
 8000a44:	2101      	movs	r1, #1
 8000a46:	2003      	movs	r0, #3
 8000a48:	f000 fd4a 	bl	80014e0 <Show_Value_Screen>
					break;
 8000a4c:	e6d3      	b.n	80007f6 <HAL_TIM_PeriodElapsedCallback+0x1e>
 8000a4e:	46c0      	nop			; (mov r8, r8)
 8000a50:	40011400 	.word	0x40011400
 8000a54:	40001000 	.word	0x40001000
 8000a58:	40001400 	.word	0x40001400
 8000a5c:	20000700 	.word	0x20000700
 8000a60:	200000f6 	.word	0x200000f6
 8000a64:	20000638 	.word	0x20000638
 8000a68:	08005204 	.word	0x08005204
 8000a6c:	08005234 	.word	0x08005234
 8000a70:	20000636 	.word	0x20000636
 8000a74:	200000f4 	.word	0x200000f4
 8000a78:	200000f2 	.word	0x200000f2
 8000a7c:	200000ee 	.word	0x200000ee
 8000a80:	200000f0 	.word	0x200000f0
 8000a84:	20000634 	.word	0x20000634
 8000a88:	20000635 	.word	0x20000635
 8000a8c:	20000740 	.word	0x20000740
 8000a90:	20000640 	.word	0x20000640
 8000a94:	200000ec 	.word	0x200000ec
 8000a98:	20000000 	.word	0x20000000
 8000a9c:	08005268 	.word	0x08005268
 8000aa0:	0800556d 	.word	0x0800556d

08000aa4 <HAL_GPIO_EXTI_Callback>:
{
 8000aa4:	b570      	push	{r4, r5, r6, lr}
 8000aa6:	0005      	movs	r5, r0
	uint8_t tim6BusyFlag = HAL_TIM_Base_GetState(&TIMER_BUTTON_BUFFER);
 8000aa8:	4808      	ldr	r0, [pc, #32]	; (8000acc <HAL_GPIO_EXTI_Callback+0x28>)
 8000aaa:	f003 fc0d 	bl	80042c8 <HAL_TIM_Base_GetState>
 8000aae:	0004      	movs	r4, r0
	uint8_t tim7BusyFlag = HAL_TIM_Base_GetState(&TIMER_ENCODER_BUFFER);
 8000ab0:	4807      	ldr	r0, [pc, #28]	; (8000ad0 <HAL_GPIO_EXTI_Callback+0x2c>)
 8000ab2:	f003 fc09 	bl	80042c8 <HAL_TIM_Base_GetState>
	if ((tim6BusyFlag == 1) && (tim7BusyFlag == 1))
 8000ab6:	2c01      	cmp	r4, #1
 8000ab8:	d000      	beq.n	8000abc <HAL_GPIO_EXTI_Callback+0x18>
}
 8000aba:	bd70      	pop	{r4, r5, r6, pc}
	if ((tim6BusyFlag == 1) && (tim7BusyFlag == 1))
 8000abc:	2801      	cmp	r0, #1
 8000abe:	d1fc      	bne.n	8000aba <HAL_GPIO_EXTI_Callback+0x16>
		if (GPIO_Pin == MAIN_BTN_Pin) HAL_TIM_Base_Start_IT(&TIMER_BUTTON_BUFFER);
 8000ac0:	2d10      	cmp	r5, #16
 8000ac2:	d1fa      	bne.n	8000aba <HAL_GPIO_EXTI_Callback+0x16>
 8000ac4:	4801      	ldr	r0, [pc, #4]	; (8000acc <HAL_GPIO_EXTI_Callback+0x28>)
 8000ac6:	f003 f8ad 	bl	8003c24 <HAL_TIM_Base_Start_IT>
}
 8000aca:	e7f6      	b.n	8000aba <HAL_GPIO_EXTI_Callback+0x16>
 8000acc:	20000700 	.word	0x20000700
 8000ad0:	20000740 	.word	0x20000740

08000ad4 <Error_Handler>:
 8000ad4:	b672      	cpsid	i
  while (1)
 8000ad6:	e7fe      	b.n	8000ad6 <Error_Handler+0x2>

08000ad8 <SSD1306_Fill>:
	for (i = 0; i < sizeof(SSD1306_Buffer); i++) {
		SSD1306_Buffer[i] = ~SSD1306_Buffer[i];
	}
}

void SSD1306_Fill(SSD1306_COLOR_t color) {
 8000ad8:	b510      	push	{r4, lr}
	/* Set memory */
	memset(SSD1306_Buffer, (color == SSD1306_COLOR_BLACK) ? 0x00 : 0xFF, sizeof(SSD1306_Buffer));
 8000ada:	4243      	negs	r3, r0
 8000adc:	4158      	adcs	r0, r3
 8000ade:	4241      	negs	r1, r0
 8000ae0:	23fe      	movs	r3, #254	; 0xfe
 8000ae2:	4399      	bics	r1, r3
 8000ae4:	31ff      	adds	r1, #255	; 0xff
 8000ae6:	2280      	movs	r2, #128	; 0x80
 8000ae8:	00d2      	lsls	r2, r2, #3
 8000aea:	4802      	ldr	r0, [pc, #8]	; (8000af4 <SSD1306_Fill+0x1c>)
 8000aec:	f003 ff15 	bl	800491a <memset>
}
 8000af0:	bd10      	pop	{r4, pc}
 8000af2:	46c0      	nop			; (mov r8, r8)
 8000af4:	20000100 	.word	0x20000100

08000af8 <SSD1306_DrawPixel>:

void SSD1306_DrawPixel(uint16_t x, uint16_t y, SSD1306_COLOR_t color) {
 8000af8:	b510      	push	{r4, lr}
	if (
 8000afa:	287f      	cmp	r0, #127	; 0x7f
 8000afc:	d812      	bhi.n	8000b24 <SSD1306_DrawPixel+0x2c>
		x >= SSD1306_WIDTH ||
 8000afe:	293f      	cmp	r1, #63	; 0x3f
 8000b00:	d810      	bhi.n	8000b24 <SSD1306_DrawPixel+0x2c>
		/* Error */
		return;
	}
	
	/* Check if pixels are inverted */
	if (SSD1306.Inverted) {
 8000b02:	4b10      	ldr	r3, [pc, #64]	; (8000b44 <SSD1306_DrawPixel+0x4c>)
 8000b04:	791b      	ldrb	r3, [r3, #4]
 8000b06:	2b00      	cmp	r3, #0
 8000b08:	d00d      	beq.n	8000b26 <SSD1306_DrawPixel+0x2e>
		color = (SSD1306_COLOR_t)!color;
	}
	
	/* Set color */
	if (color == SSD1306_COLOR_WHITE) {
 8000b0a:	2a00      	cmp	r2, #0
 8000b0c:	d00d      	beq.n	8000b2a <SSD1306_DrawPixel+0x32>
		SSD1306_Buffer[x + (y / 8) * SSD1306_WIDTH] |= 1 << (y % 8);
	} else {
		SSD1306_Buffer[x + (y / 8) * SSD1306_WIDTH] &= ~(1 << (y % 8));
 8000b0e:	08cb      	lsrs	r3, r1, #3
 8000b10:	01db      	lsls	r3, r3, #7
 8000b12:	1818      	adds	r0, r3, r0
 8000b14:	4c0c      	ldr	r4, [pc, #48]	; (8000b48 <SSD1306_DrawPixel+0x50>)
 8000b16:	2307      	movs	r3, #7
 8000b18:	4019      	ands	r1, r3
 8000b1a:	2201      	movs	r2, #1
 8000b1c:	408a      	lsls	r2, r1
 8000b1e:	5c23      	ldrb	r3, [r4, r0]
 8000b20:	4393      	bics	r3, r2
 8000b22:	5423      	strb	r3, [r4, r0]
	}
}
 8000b24:	bd10      	pop	{r4, pc}
	if (color == SSD1306_COLOR_WHITE) {
 8000b26:	2a01      	cmp	r2, #1
 8000b28:	d1f1      	bne.n	8000b0e <SSD1306_DrawPixel+0x16>
		SSD1306_Buffer[x + (y / 8) * SSD1306_WIDTH] |= 1 << (y % 8);
 8000b2a:	08cb      	lsrs	r3, r1, #3
 8000b2c:	01db      	lsls	r3, r3, #7
 8000b2e:	1818      	adds	r0, r3, r0
 8000b30:	4a05      	ldr	r2, [pc, #20]	; (8000b48 <SSD1306_DrawPixel+0x50>)
 8000b32:	2307      	movs	r3, #7
 8000b34:	4019      	ands	r1, r3
 8000b36:	3b06      	subs	r3, #6
 8000b38:	408b      	lsls	r3, r1
 8000b3a:	5c11      	ldrb	r1, [r2, r0]
 8000b3c:	430b      	orrs	r3, r1
 8000b3e:	5413      	strb	r3, [r2, r0]
 8000b40:	e7f0      	b.n	8000b24 <SSD1306_DrawPixel+0x2c>
 8000b42:	46c0      	nop			; (mov r8, r8)
 8000b44:	200000f8 	.word	0x200000f8
 8000b48:	20000100 	.word	0x20000100

08000b4c <SSD1306_DrawBitmap>:
{
 8000b4c:	b5f0      	push	{r4, r5, r6, r7, lr}
 8000b4e:	46de      	mov	lr, fp
 8000b50:	4657      	mov	r7, sl
 8000b52:	464e      	mov	r6, r9
 8000b54:	4645      	mov	r5, r8
 8000b56:	b5e0      	push	{r5, r6, r7, lr}
 8000b58:	b085      	sub	sp, #20
 8000b5a:	4683      	mov	fp, r0
 8000b5c:	9100      	str	r1, [sp, #0]
 8000b5e:	9203      	str	r2, [sp, #12]
 8000b60:	001f      	movs	r7, r3
 8000b62:	ab0e      	add	r3, sp, #56	; 0x38
 8000b64:	2400      	movs	r4, #0
 8000b66:	5f1c      	ldrsh	r4, [r3, r4]
 8000b68:	9401      	str	r4, [sp, #4]
 8000b6a:	ab0f      	add	r3, sp, #60	; 0x3c
 8000b6c:	8819      	ldrh	r1, [r3, #0]
    int16_t byteWidth = (w + 7) / 8; // Bitmap scanline pad = whole byte
 8000b6e:	1dfa      	adds	r2, r7, #7
 8000b70:	17d0      	asrs	r0, r2, #31
 8000b72:	2307      	movs	r3, #7
 8000b74:	4003      	ands	r3, r0
 8000b76:	189b      	adds	r3, r3, r2
 8000b78:	10db      	asrs	r3, r3, #3
 8000b7a:	9302      	str	r3, [sp, #8]
    for(int16_t j=0; j<h; j++, y++)
 8000b7c:	2300      	movs	r3, #0
 8000b7e:	469a      	mov	sl, r3
    uint8_t byte = 0;
 8000b80:	2500      	movs	r5, #0
    for(int16_t j=0; j<h; j++, y++)
 8000b82:	2c00      	cmp	r4, #0
 8000b84:	dd34      	ble.n	8000bf0 <SSD1306_DrawBitmap+0xa4>
            if(byte & 0x80) SSD1306_DrawPixel(x+i, y, color);
 8000b86:	b2cb      	uxtb	r3, r1
 8000b88:	4699      	mov	r9, r3
 8000b8a:	e026      	b.n	8000bda <SSD1306_DrawBitmap+0x8e>
               byte = (*(const unsigned char *)(&bitmap[j * byteWidth + i / 8]));
 8000b8c:	17da      	asrs	r2, r3, #31
 8000b8e:	4032      	ands	r2, r6
 8000b90:	18d3      	adds	r3, r2, r3
 8000b92:	10db      	asrs	r3, r3, #3
 8000b94:	4642      	mov	r2, r8
 8000b96:	5cd5      	ldrb	r5, [r2, r3]
            if(byte & 0x80) SSD1306_DrawPixel(x+i, y, color);
 8000b98:	b26b      	sxtb	r3, r5
 8000b9a:	2b00      	cmp	r3, #0
 8000b9c:	db09      	blt.n	8000bb2 <SSD1306_DrawBitmap+0x66>
        for(int16_t i=0; i<w; i++)
 8000b9e:	3401      	adds	r4, #1
 8000ba0:	b223      	sxth	r3, r4
 8000ba2:	42bb      	cmp	r3, r7
 8000ba4:	d00e      	beq.n	8000bc4 <SSD1306_DrawBitmap+0x78>
            if(i & 7)
 8000ba6:	b29c      	uxth	r4, r3
 8000ba8:	4233      	tst	r3, r6
 8000baa:	d0ef      	beq.n	8000b8c <SSD1306_DrawBitmap+0x40>
               byte <<= 1;
 8000bac:	006d      	lsls	r5, r5, #1
 8000bae:	b2ed      	uxtb	r5, r5
 8000bb0:	e7f2      	b.n	8000b98 <SSD1306_DrawBitmap+0x4c>
            if(byte & 0x80) SSD1306_DrawPixel(x+i, y, color);
 8000bb2:	466b      	mov	r3, sp
 8000bb4:	8819      	ldrh	r1, [r3, #0]
 8000bb6:	465b      	mov	r3, fp
 8000bb8:	18e0      	adds	r0, r4, r3
 8000bba:	b280      	uxth	r0, r0
 8000bbc:	464a      	mov	r2, r9
 8000bbe:	f7ff ff9b 	bl	8000af8 <SSD1306_DrawPixel>
 8000bc2:	e7ec      	b.n	8000b9e <SSD1306_DrawBitmap+0x52>
    for(int16_t j=0; j<h; j++, y++)
 8000bc4:	4653      	mov	r3, sl
 8000bc6:	3301      	adds	r3, #1
 8000bc8:	b21b      	sxth	r3, r3
 8000bca:	469a      	mov	sl, r3
 8000bcc:	9b00      	ldr	r3, [sp, #0]
 8000bce:	3301      	adds	r3, #1
 8000bd0:	b21b      	sxth	r3, r3
 8000bd2:	9300      	str	r3, [sp, #0]
 8000bd4:	9b01      	ldr	r3, [sp, #4]
 8000bd6:	4553      	cmp	r3, sl
 8000bd8:	dd0a      	ble.n	8000bf0 <SSD1306_DrawBitmap+0xa4>
        for(int16_t i=0; i<w; i++)
 8000bda:	2f00      	cmp	r7, #0
 8000bdc:	ddf2      	ble.n	8000bc4 <SSD1306_DrawBitmap+0x78>
 8000bde:	2300      	movs	r3, #0
            if(i & 7)
 8000be0:	2607      	movs	r6, #7
               byte = (*(const unsigned char *)(&bitmap[j * byteWidth + i / 8]));
 8000be2:	4652      	mov	r2, sl
 8000be4:	9902      	ldr	r1, [sp, #8]
 8000be6:	434a      	muls	r2, r1
 8000be8:	9903      	ldr	r1, [sp, #12]
 8000bea:	4688      	mov	r8, r1
 8000bec:	4490      	add	r8, r2
 8000bee:	e7da      	b.n	8000ba6 <SSD1306_DrawBitmap+0x5a>
}
 8000bf0:	b005      	add	sp, #20
 8000bf2:	bcf0      	pop	{r4, r5, r6, r7}
 8000bf4:	46bb      	mov	fp, r7
 8000bf6:	46b2      	mov	sl, r6
 8000bf8:	46a9      	mov	r9, r5
 8000bfa:	46a0      	mov	r8, r4
 8000bfc:	bdf0      	pop	{r4, r5, r6, r7, pc}
	...

08000c00 <SSD1306_GotoXY>:

void SSD1306_GotoXY(uint16_t x, uint16_t y) {
	/* Set write pointers */
	SSD1306.CurrentX = x;
 8000c00:	4b01      	ldr	r3, [pc, #4]	; (8000c08 <SSD1306_GotoXY+0x8>)
 8000c02:	8018      	strh	r0, [r3, #0]
	SSD1306.CurrentY = y;
 8000c04:	8059      	strh	r1, [r3, #2]
}
 8000c06:	4770      	bx	lr
 8000c08:	200000f8 	.word	0x200000f8

08000c0c <SSD1306_Putc>:

char SSD1306_Putc(char ch, FontDef_t* Font, SSD1306_COLOR_t color) {
 8000c0c:	b5f0      	push	{r4, r5, r6, r7, lr}
 8000c0e:	46de      	mov	lr, fp
 8000c10:	4657      	mov	r7, sl
 8000c12:	464e      	mov	r6, r9
 8000c14:	4645      	mov	r5, r8
 8000c16:	b5e0      	push	{r5, r6, r7, lr}
 8000c18:	b085      	sub	sp, #20
 8000c1a:	9002      	str	r0, [sp, #8]
 8000c1c:	000e      	movs	r6, r1
 8000c1e:	0010      	movs	r0, r2
 8000c20:	9201      	str	r2, [sp, #4]
	uint32_t i, b, j;
	
	/* Check available space in LCD */
	if (
		SSD1306_WIDTH <= (SSD1306.CurrentX + Font->FontWidth) ||
 8000c22:	4b2f      	ldr	r3, [pc, #188]	; (8000ce0 <SSD1306_Putc+0xd4>)
 8000c24:	881b      	ldrh	r3, [r3, #0]
 8000c26:	0019      	movs	r1, r3
 8000c28:	9303      	str	r3, [sp, #12]
 8000c2a:	7833      	ldrb	r3, [r6, #0]
 8000c2c:	468c      	mov	ip, r1
 8000c2e:	4463      	add	r3, ip
	if (
 8000c30:	2b7f      	cmp	r3, #127	; 0x7f
 8000c32:	dc51      	bgt.n	8000cd8 <SSD1306_Putc+0xcc>
		SSD1306_HEIGHT <= (SSD1306.CurrentY + Font->FontHeight)
 8000c34:	4b2a      	ldr	r3, [pc, #168]	; (8000ce0 <SSD1306_Putc+0xd4>)
 8000c36:	885f      	ldrh	r7, [r3, #2]
 8000c38:	7873      	ldrb	r3, [r6, #1]
 8000c3a:	18fa      	adds	r2, r7, r3
		SSD1306_WIDTH <= (SSD1306.CurrentX + Font->FontWidth) ||
 8000c3c:	2a3f      	cmp	r2, #63	; 0x3f
 8000c3e:	dc4d      	bgt.n	8000cdc <SSD1306_Putc+0xd0>
		/* Error */
		return 0;
	}
	
	/* Go through font */
	for (i = 0; i < Font->FontHeight; i++) {
 8000c40:	2b00      	cmp	r3, #0
 8000c42:	d03b      	beq.n	8000cbc <SSD1306_Putc+0xb0>
 8000c44:	2100      	movs	r1, #0
 8000c46:	468b      	mov	fp, r1
		b = Font->data[(ch - 32) * Font->FontHeight + i];
		for (j = 0; j < Font->FontWidth; j++) {
			if ((b << j) & 0x8000) {
				SSD1306_DrawPixel(SSD1306.CurrentX + j, (SSD1306.CurrentY + i), (SSD1306_COLOR_t) color);
			} else {
				SSD1306_DrawPixel(SSD1306.CurrentX + j, (SSD1306.CurrentY + i), (SSD1306_COLOR_t)!color);
 8000c48:	0001      	movs	r1, r0
 8000c4a:	424a      	negs	r2, r1
 8000c4c:	414a      	adcs	r2, r1
 8000c4e:	b2d2      	uxtb	r2, r2
 8000c50:	4692      	mov	sl, r2
 8000c52:	e01f      	b.n	8000c94 <SSD1306_Putc+0x88>
 8000c54:	4652      	mov	r2, sl
 8000c56:	0039      	movs	r1, r7
 8000c58:	0020      	movs	r0, r4
 8000c5a:	f7ff ff4d 	bl	8000af8 <SSD1306_DrawPixel>
		for (j = 0; j < Font->FontWidth; j++) {
 8000c5e:	3501      	adds	r5, #1
 8000c60:	3401      	adds	r4, #1
 8000c62:	b2a4      	uxth	r4, r4
 8000c64:	4643      	mov	r3, r8
 8000c66:	781b      	ldrb	r3, [r3, #0]
 8000c68:	42ab      	cmp	r3, r5
 8000c6a:	d90a      	bls.n	8000c82 <SSD1306_Putc+0x76>
			if ((b << j) & 0x8000) {
 8000c6c:	0033      	movs	r3, r6
 8000c6e:	40ab      	lsls	r3, r5
 8000c70:	464a      	mov	r2, r9
 8000c72:	4213      	tst	r3, r2
 8000c74:	d0ee      	beq.n	8000c54 <SSD1306_Putc+0x48>
				SSD1306_DrawPixel(SSD1306.CurrentX + j, (SSD1306.CurrentY + i), (SSD1306_COLOR_t) color);
 8000c76:	9a01      	ldr	r2, [sp, #4]
 8000c78:	0039      	movs	r1, r7
 8000c7a:	0020      	movs	r0, r4
 8000c7c:	f7ff ff3c 	bl	8000af8 <SSD1306_DrawPixel>
 8000c80:	e7ed      	b.n	8000c5e <SSD1306_Putc+0x52>
 8000c82:	4646      	mov	r6, r8
	for (i = 0; i < Font->FontHeight; i++) {
 8000c84:	2301      	movs	r3, #1
 8000c86:	469c      	mov	ip, r3
 8000c88:	44e3      	add	fp, ip
 8000c8a:	7873      	ldrb	r3, [r6, #1]
 8000c8c:	3701      	adds	r7, #1
 8000c8e:	b2bf      	uxth	r7, r7
 8000c90:	455b      	cmp	r3, fp
 8000c92:	d913      	bls.n	8000cbc <SSD1306_Putc+0xb0>
		b = Font->data[(ch - 32) * Font->FontHeight + i];
 8000c94:	9a02      	ldr	r2, [sp, #8]
 8000c96:	3a20      	subs	r2, #32
 8000c98:	4353      	muls	r3, r2
 8000c9a:	445b      	add	r3, fp
 8000c9c:	005b      	lsls	r3, r3, #1
 8000c9e:	6872      	ldr	r2, [r6, #4]
 8000ca0:	5a9b      	ldrh	r3, [r3, r2]
 8000ca2:	4698      	mov	r8, r3
		for (j = 0; j < Font->FontWidth; j++) {
 8000ca4:	7833      	ldrb	r3, [r6, #0]
 8000ca6:	2b00      	cmp	r3, #0
 8000ca8:	d0ec      	beq.n	8000c84 <SSD1306_Putc+0x78>
 8000caa:	9c03      	ldr	r4, [sp, #12]
 8000cac:	2500      	movs	r5, #0
			if ((b << j) & 0x8000) {
 8000cae:	2380      	movs	r3, #128	; 0x80
 8000cb0:	021b      	lsls	r3, r3, #8
 8000cb2:	4699      	mov	r9, r3
 8000cb4:	0033      	movs	r3, r6
 8000cb6:	4646      	mov	r6, r8
 8000cb8:	4698      	mov	r8, r3
 8000cba:	e7d7      	b.n	8000c6c <SSD1306_Putc+0x60>
			}
		}
	}
	
	/* Increase pointer */
	SSD1306.CurrentX += Font->FontWidth;
 8000cbc:	7833      	ldrb	r3, [r6, #0]
 8000cbe:	9a03      	ldr	r2, [sp, #12]
 8000cc0:	4694      	mov	ip, r2
 8000cc2:	4463      	add	r3, ip
 8000cc4:	4a06      	ldr	r2, [pc, #24]	; (8000ce0 <SSD1306_Putc+0xd4>)
 8000cc6:	8013      	strh	r3, [r2, #0]
	
	/* Return character written */
	return ch;
 8000cc8:	9802      	ldr	r0, [sp, #8]
}
 8000cca:	b005      	add	sp, #20
 8000ccc:	bcf0      	pop	{r4, r5, r6, r7}
 8000cce:	46bb      	mov	fp, r7
 8000cd0:	46b2      	mov	sl, r6
 8000cd2:	46a9      	mov	r9, r5
 8000cd4:	46a0      	mov	r8, r4
 8000cd6:	bdf0      	pop	{r4, r5, r6, r7, pc}
		return 0;
 8000cd8:	2000      	movs	r0, #0
 8000cda:	e7f6      	b.n	8000cca <SSD1306_Putc+0xbe>
 8000cdc:	2000      	movs	r0, #0
 8000cde:	e7f4      	b.n	8000cca <SSD1306_Putc+0xbe>
 8000ce0:	200000f8 	.word	0x200000f8

08000ce4 <SSD1306_Puts>:

char SSD1306_Puts(char* str, FontDef_t* Font, SSD1306_COLOR_t color) {
 8000ce4:	b570      	push	{r4, r5, r6, lr}
 8000ce6:	0004      	movs	r4, r0
 8000ce8:	000e      	movs	r6, r1
 8000cea:	0015      	movs	r5, r2
	/* Write characters */
	while (*str) {
 8000cec:	7800      	ldrb	r0, [r0, #0]
 8000cee:	2800      	cmp	r0, #0
 8000cf0:	d00b      	beq.n	8000d0a <SSD1306_Puts+0x26>
		/* Write character by character */
		if (SSD1306_Putc(*str, Font, color) != *str) {
 8000cf2:	002a      	movs	r2, r5
 8000cf4:	0031      	movs	r1, r6
 8000cf6:	f7ff ff89 	bl	8000c0c <SSD1306_Putc>
 8000cfa:	0003      	movs	r3, r0
 8000cfc:	7820      	ldrb	r0, [r4, #0]
 8000cfe:	4283      	cmp	r3, r0
 8000d00:	d103      	bne.n	8000d0a <SSD1306_Puts+0x26>
			/* Return error */
			return *str;
		}
		
		/* Increase string pointer */
		str++;
 8000d02:	3401      	adds	r4, #1
	while (*str) {
 8000d04:	7820      	ldrb	r0, [r4, #0]
 8000d06:	2800      	cmp	r0, #0
 8000d08:	d1f3      	bne.n	8000cf2 <SSD1306_Puts+0xe>
	}
	
	/* Everything OK, zero should be returned */
	return *str;
}
 8000d0a:	bd70      	pop	{r4, r5, r6, pc}

08000d0c <SSD1306_DrawLine>:
 

void SSD1306_DrawLine(uint16_t x0, uint16_t y0, uint16_t x1, uint16_t y1, SSD1306_COLOR_t c) {
 8000d0c:	b5f0      	push	{r4, r5, r6, r7, lr}
 8000d0e:	46de      	mov	lr, fp
 8000d10:	4657      	mov	r7, sl
 8000d12:	464e      	mov	r6, r9
 8000d14:	4645      	mov	r5, r8
 8000d16:	b5e0      	push	{r5, r6, r7, lr}
 8000d18:	b085      	sub	sp, #20
 8000d1a:	ac0e      	add	r4, sp, #56	; 0x38
 8000d1c:	7824      	ldrb	r4, [r4, #0]
 8000d1e:	46a1      	mov	r9, r4
	int16_t dx, dy, sx, sy, err, e2, i, tmp; 
	
	/* Check for overflow */
	if (x0 >= SSD1306_WIDTH) {
 8000d20:	1c04      	adds	r4, r0, #0
 8000d22:	287f      	cmp	r0, #127	; 0x7f
 8000d24:	d900      	bls.n	8000d28 <SSD1306_DrawLine+0x1c>
 8000d26:	247f      	movs	r4, #127	; 0x7f
 8000d28:	b2a4      	uxth	r4, r4
		x0 = SSD1306_WIDTH - 1;
	}
	if (x1 >= SSD1306_WIDTH) {
 8000d2a:	1c10      	adds	r0, r2, #0
 8000d2c:	2a7f      	cmp	r2, #127	; 0x7f
 8000d2e:	d900      	bls.n	8000d32 <SSD1306_DrawLine+0x26>
 8000d30:	207f      	movs	r0, #127	; 0x7f
 8000d32:	b282      	uxth	r2, r0
 8000d34:	4690      	mov	r8, r2
		x1 = SSD1306_WIDTH - 1;
	}
	if (y0 >= SSD1306_HEIGHT) {
 8000d36:	1c0d      	adds	r5, r1, #0
 8000d38:	293f      	cmp	r1, #63	; 0x3f
 8000d3a:	d900      	bls.n	8000d3e <SSD1306_DrawLine+0x32>
 8000d3c:	253f      	movs	r5, #63	; 0x3f
 8000d3e:	b2ad      	uxth	r5, r5
		y0 = SSD1306_HEIGHT - 1;
	}
	if (y1 >= SSD1306_HEIGHT) {
 8000d40:	1c1a      	adds	r2, r3, #0
 8000d42:	2b3f      	cmp	r3, #63	; 0x3f
 8000d44:	d900      	bls.n	8000d48 <SSD1306_DrawLine+0x3c>
 8000d46:	223f      	movs	r2, #63	; 0x3f
 8000d48:	b292      	uxth	r2, r2
 8000d4a:	9201      	str	r2, [sp, #4]
		y1 = SSD1306_HEIGHT - 1;
	}
	
	dx = (x0 < x1) ? (x1 - x0) : (x0 - x1); 
 8000d4c:	4544      	cmp	r4, r8
 8000d4e:	d20f      	bcs.n	8000d70 <SSD1306_DrawLine+0x64>
 8000d50:	4643      	mov	r3, r8
 8000d52:	1b1b      	subs	r3, r3, r4
 8000d54:	b21b      	sxth	r3, r3
 8000d56:	469a      	mov	sl, r3
	dy = (y0 < y1) ? (y1 - y0) : (y0 - y1); 
 8000d58:	4295      	cmp	r5, r2
 8000d5a:	d319      	bcc.n	8000d90 <SSD1306_DrawLine+0x84>
 8000d5c:	9b01      	ldr	r3, [sp, #4]
 8000d5e:	1aef      	subs	r7, r5, r3
 8000d60:	b23f      	sxth	r7, r7
	sx = (x0 < x1) ? 1 : -1; 
 8000d62:	4544      	cmp	r4, r8
 8000d64:	d247      	bcs.n	8000df6 <SSD1306_DrawLine+0xea>
 8000d66:	2301      	movs	r3, #1
 8000d68:	9303      	str	r3, [sp, #12]
	sy = (y0 < y1) ? 1 : -1; 
 8000d6a:	3b02      	subs	r3, #2
 8000d6c:	9302      	str	r3, [sp, #8]
 8000d6e:	e017      	b.n	8000da0 <SSD1306_DrawLine+0x94>
	dx = (x0 < x1) ? (x1 - x0) : (x0 - x1); 
 8000d70:	4643      	mov	r3, r8
 8000d72:	1ae3      	subs	r3, r4, r3
 8000d74:	b21b      	sxth	r3, r3
 8000d76:	469a      	mov	sl, r3
	dy = (y0 < y1) ? (y1 - y0) : (y0 - y1); 
 8000d78:	9b01      	ldr	r3, [sp, #4]
 8000d7a:	429d      	cmp	r5, r3
 8000d7c:	d2ee      	bcs.n	8000d5c <SSD1306_DrawLine+0x50>
 8000d7e:	9b01      	ldr	r3, [sp, #4]
 8000d80:	1b5f      	subs	r7, r3, r5
 8000d82:	b23f      	sxth	r7, r7
	sx = (x0 < x1) ? 1 : -1; 
 8000d84:	2301      	movs	r3, #1
 8000d86:	425b      	negs	r3, r3
 8000d88:	9303      	str	r3, [sp, #12]
	sy = (y0 < y1) ? 1 : -1; 
 8000d8a:	3302      	adds	r3, #2
 8000d8c:	9302      	str	r3, [sp, #8]
 8000d8e:	e007      	b.n	8000da0 <SSD1306_DrawLine+0x94>
	dy = (y0 < y1) ? (y1 - y0) : (y0 - y1); 
 8000d90:	9b01      	ldr	r3, [sp, #4]
 8000d92:	1b5f      	subs	r7, r3, r5
 8000d94:	b23f      	sxth	r7, r7
	sx = (x0 < x1) ? 1 : -1; 
 8000d96:	2301      	movs	r3, #1
 8000d98:	9303      	str	r3, [sp, #12]
	sy = (y0 < y1) ? 1 : -1; 
 8000d9a:	9302      	str	r3, [sp, #8]
	sx = (x0 < x1) ? 1 : -1; 
 8000d9c:	4544      	cmp	r4, r8
 8000d9e:	d227      	bcs.n	8000df0 <SSD1306_DrawLine+0xe4>
	err = ((dx > dy) ? dx : -dy) / 2; 
 8000da0:	4557      	cmp	r7, sl
 8000da2:	da2d      	bge.n	8000e00 <SSD1306_DrawLine+0xf4>
 8000da4:	4653      	mov	r3, sl
 8000da6:	0fde      	lsrs	r6, r3, #31
 8000da8:	4456      	add	r6, sl
 8000daa:	1076      	asrs	r6, r6, #1

	if (dx == 0) {
 8000dac:	4653      	mov	r3, sl
 8000dae:	2b00      	cmp	r3, #0
 8000db0:	d02c      	beq.n	8000e0c <SSD1306_DrawLine+0x100>
		SSD1306_DrawPixel(x0, y0, c);
		if (x0 == x1 && y0 == y1) {
			break;
		}
		e2 = err; 
		if (e2 > -dx) {
 8000db2:	425b      	negs	r3, r3
 8000db4:	469b      	mov	fp, r3
	if (dy == 0) {
 8000db6:	2f00      	cmp	r7, #0
 8000db8:	d144      	bne.n	8000e44 <SSD1306_DrawLine+0x138>
		if (y1 < y0) {
 8000dba:	1c2b      	adds	r3, r5, #0
 8000dbc:	9a01      	ldr	r2, [sp, #4]
 8000dbe:	4295      	cmp	r5, r2
 8000dc0:	d900      	bls.n	8000dc4 <SSD1306_DrawLine+0xb8>
 8000dc2:	1c13      	adds	r3, r2, #0
 8000dc4:	b29d      	uxth	r5, r3
		if (x1 < x0) {
 8000dc6:	4544      	cmp	r4, r8
 8000dc8:	d902      	bls.n	8000dd0 <SSD1306_DrawLine+0xc4>
 8000dca:	0023      	movs	r3, r4
			x0 = tmp;
 8000dcc:	4644      	mov	r4, r8
			x1 = x0;
 8000dce:	4698      	mov	r8, r3
		for (i = x0; i <= x1; i++) {
 8000dd0:	b224      	sxth	r4, r4
 8000dd2:	4646      	mov	r6, r8
 8000dd4:	4544      	cmp	r4, r8
 8000dd6:	dc51      	bgt.n	8000e7c <SSD1306_DrawLine+0x170>
 8000dd8:	464f      	mov	r7, r9
			SSD1306_DrawPixel(i, y0, c);
 8000dda:	b2a4      	uxth	r4, r4
 8000ddc:	003a      	movs	r2, r7
 8000dde:	0029      	movs	r1, r5
 8000de0:	0020      	movs	r0, r4
 8000de2:	f7ff fe89 	bl	8000af8 <SSD1306_DrawPixel>
		for (i = x0; i <= x1; i++) {
 8000de6:	3401      	adds	r4, #1
 8000de8:	b224      	sxth	r4, r4
 8000dea:	42b4      	cmp	r4, r6
 8000dec:	ddf5      	ble.n	8000dda <SSD1306_DrawLine+0xce>
 8000dee:	e045      	b.n	8000e7c <SSD1306_DrawLine+0x170>
	sx = (x0 < x1) ? 1 : -1; 
 8000df0:	3b02      	subs	r3, #2
 8000df2:	9303      	str	r3, [sp, #12]
 8000df4:	e7d4      	b.n	8000da0 <SSD1306_DrawLine+0x94>
 8000df6:	2301      	movs	r3, #1
 8000df8:	425b      	negs	r3, r3
 8000dfa:	9303      	str	r3, [sp, #12]
	sy = (y0 < y1) ? 1 : -1; 
 8000dfc:	9302      	str	r3, [sp, #8]
 8000dfe:	e7cf      	b.n	8000da0 <SSD1306_DrawLine+0x94>
	err = ((dx > dy) ? dx : -dy) / 2; 
 8000e00:	0ffe      	lsrs	r6, r7, #31
 8000e02:	19f6      	adds	r6, r6, r7
 8000e04:	1076      	asrs	r6, r6, #1
 8000e06:	4276      	negs	r6, r6
 8000e08:	b236      	sxth	r6, r6
 8000e0a:	e7cf      	b.n	8000dac <SSD1306_DrawLine+0xa0>
		if (y1 < y0) {
 8000e0c:	9a01      	ldr	r2, [sp, #4]
 8000e0e:	4295      	cmp	r5, r2
 8000e10:	d902      	bls.n	8000e18 <SSD1306_DrawLine+0x10c>
 8000e12:	002b      	movs	r3, r5
			y0 = tmp;
 8000e14:	0015      	movs	r5, r2
			y1 = y0;
 8000e16:	9301      	str	r3, [sp, #4]
		if (x1 < x0) {
 8000e18:	1c23      	adds	r3, r4, #0
 8000e1a:	4544      	cmp	r4, r8
 8000e1c:	d900      	bls.n	8000e20 <SSD1306_DrawLine+0x114>
 8000e1e:	4643      	mov	r3, r8
 8000e20:	b29c      	uxth	r4, r3
		for (i = y0; i <= y1; i++) {
 8000e22:	b22d      	sxth	r5, r5
 8000e24:	9e01      	ldr	r6, [sp, #4]
 8000e26:	42b5      	cmp	r5, r6
 8000e28:	dc28      	bgt.n	8000e7c <SSD1306_DrawLine+0x170>
 8000e2a:	464f      	mov	r7, r9
			SSD1306_DrawPixel(x0, i, c);
 8000e2c:	b2ad      	uxth	r5, r5
 8000e2e:	003a      	movs	r2, r7
 8000e30:	0029      	movs	r1, r5
 8000e32:	0020      	movs	r0, r4
 8000e34:	f7ff fe60 	bl	8000af8 <SSD1306_DrawPixel>
		for (i = y0; i <= y1; i++) {
 8000e38:	3501      	adds	r5, #1
 8000e3a:	b22d      	sxth	r5, r5
 8000e3c:	42b5      	cmp	r5, r6
 8000e3e:	ddf5      	ble.n	8000e2c <SSD1306_DrawLine+0x120>
 8000e40:	e01c      	b.n	8000e7c <SSD1306_DrawLine+0x170>
			x1 = x0;
 8000e42:	001e      	movs	r6, r3
		SSD1306_DrawPixel(x0, y0, c);
 8000e44:	464a      	mov	r2, r9
 8000e46:	0029      	movs	r1, r5
 8000e48:	0020      	movs	r0, r4
 8000e4a:	f7ff fe55 	bl	8000af8 <SSD1306_DrawPixel>
		if (x0 == x1 && y0 == y1) {
 8000e4e:	45a0      	cmp	r8, r4
 8000e50:	d011      	beq.n	8000e76 <SSD1306_DrawLine+0x16a>
		if (e2 > -dx) {
 8000e52:	0033      	movs	r3, r6
 8000e54:	455e      	cmp	r6, fp
 8000e56:	dd05      	ble.n	8000e64 <SSD1306_DrawLine+0x158>
			err -= dy;
 8000e58:	1bf3      	subs	r3, r6, r7
 8000e5a:	b21b      	sxth	r3, r3
			x0 += sx;
 8000e5c:	9a03      	ldr	r2, [sp, #12]
 8000e5e:	4694      	mov	ip, r2
 8000e60:	4464      	add	r4, ip
 8000e62:	b2a4      	uxth	r4, r4
		} 
		if (e2 < dy) {
 8000e64:	42be      	cmp	r6, r7
 8000e66:	daec      	bge.n	8000e42 <SSD1306_DrawLine+0x136>
			err += dx;
 8000e68:	4453      	add	r3, sl
 8000e6a:	b21b      	sxth	r3, r3
			y0 += sy;
 8000e6c:	9a02      	ldr	r2, [sp, #8]
 8000e6e:	4694      	mov	ip, r2
 8000e70:	4465      	add	r5, ip
 8000e72:	b2ad      	uxth	r5, r5
 8000e74:	e7e5      	b.n	8000e42 <SSD1306_DrawLine+0x136>
		if (x0 == x1 && y0 == y1) {
 8000e76:	9b01      	ldr	r3, [sp, #4]
 8000e78:	429d      	cmp	r5, r3
 8000e7a:	d1ea      	bne.n	8000e52 <SSD1306_DrawLine+0x146>
		} 
	}
}
 8000e7c:	b005      	add	sp, #20
 8000e7e:	bcf0      	pop	{r4, r5, r6, r7}
 8000e80:	46bb      	mov	fp, r7
 8000e82:	46b2      	mov	sl, r6
 8000e84:	46a9      	mov	r9, r5
 8000e86:	46a0      	mov	r8, r4
 8000e88:	bdf0      	pop	{r4, r5, r6, r7, pc}

08000e8a <SSD1306_DrawRectangle>:

void SSD1306_DrawRectangle(uint16_t x, uint16_t y, uint16_t w, uint16_t h, SSD1306_COLOR_t c) {
 8000e8a:	b5f0      	push	{r4, r5, r6, r7, lr}
 8000e8c:	46c6      	mov	lr, r8
 8000e8e:	b500      	push	{lr}
 8000e90:	b082      	sub	sp, #8
 8000e92:	0006      	movs	r6, r0
 8000e94:	000f      	movs	r7, r1
 8000e96:	001d      	movs	r5, r3
 8000e98:	ab08      	add	r3, sp, #32
 8000e9a:	781b      	ldrb	r3, [r3, #0]
 8000e9c:	4698      	mov	r8, r3
	/* Check input parameters */
	if (
 8000e9e:	287f      	cmp	r0, #127	; 0x7f
 8000ea0:	d831      	bhi.n	8000f06 <SSD1306_DrawRectangle+0x7c>
		x >= SSD1306_WIDTH ||
 8000ea2:	293f      	cmp	r1, #63	; 0x3f
 8000ea4:	d82f      	bhi.n	8000f06 <SSD1306_DrawRectangle+0x7c>
		/* Return error */
		return;
	}
	
	/* Check width and height */
	if ((x + w) >= SSD1306_WIDTH) {
 8000ea6:	1883      	adds	r3, r0, r2
 8000ea8:	2b7f      	cmp	r3, #127	; 0x7f
 8000eaa:	dd02      	ble.n	8000eb2 <SSD1306_DrawRectangle+0x28>
		w = SSD1306_WIDTH - x;
 8000eac:	2280      	movs	r2, #128	; 0x80
 8000eae:	1a12      	subs	r2, r2, r0
 8000eb0:	b292      	uxth	r2, r2
	}
	if ((y + h) >= SSD1306_HEIGHT) {
 8000eb2:	197b      	adds	r3, r7, r5
 8000eb4:	2b3f      	cmp	r3, #63	; 0x3f
 8000eb6:	dd02      	ble.n	8000ebe <SSD1306_DrawRectangle+0x34>
		h = SSD1306_HEIGHT - y;
 8000eb8:	2540      	movs	r5, #64	; 0x40
 8000eba:	1bed      	subs	r5, r5, r7
 8000ebc:	b2ad      	uxth	r5, r5
	}
	
	/* Draw 4 lines */
	SSD1306_DrawLine(x, y, x + w, y, c);         /* Top line */
 8000ebe:	1992      	adds	r2, r2, r6
 8000ec0:	b294      	uxth	r4, r2
 8000ec2:	4643      	mov	r3, r8
 8000ec4:	9300      	str	r3, [sp, #0]
 8000ec6:	003b      	movs	r3, r7
 8000ec8:	0022      	movs	r2, r4
 8000eca:	0039      	movs	r1, r7
 8000ecc:	0030      	movs	r0, r6
 8000ece:	f7ff ff1d 	bl	8000d0c <SSD1306_DrawLine>
	SSD1306_DrawLine(x, y + h, x + w, y + h, c); /* Bottom line */
 8000ed2:	19ed      	adds	r5, r5, r7
 8000ed4:	b2ad      	uxth	r5, r5
 8000ed6:	4643      	mov	r3, r8
 8000ed8:	9300      	str	r3, [sp, #0]
 8000eda:	002b      	movs	r3, r5
 8000edc:	0022      	movs	r2, r4
 8000ede:	0029      	movs	r1, r5
 8000ee0:	0030      	movs	r0, r6
 8000ee2:	f7ff ff13 	bl	8000d0c <SSD1306_DrawLine>
	SSD1306_DrawLine(x, y, x, y + h, c);         /* Left line */
 8000ee6:	4643      	mov	r3, r8
 8000ee8:	9300      	str	r3, [sp, #0]
 8000eea:	002b      	movs	r3, r5
 8000eec:	0032      	movs	r2, r6
 8000eee:	0039      	movs	r1, r7
 8000ef0:	0030      	movs	r0, r6
 8000ef2:	f7ff ff0b 	bl	8000d0c <SSD1306_DrawLine>
	SSD1306_DrawLine(x + w, y, x + w, y + h, c); /* Right line */
 8000ef6:	4643      	mov	r3, r8
 8000ef8:	9300      	str	r3, [sp, #0]
 8000efa:	002b      	movs	r3, r5
 8000efc:	0022      	movs	r2, r4
 8000efe:	0039      	movs	r1, r7
 8000f00:	0020      	movs	r0, r4
 8000f02:	f7ff ff03 	bl	8000d0c <SSD1306_DrawLine>
}
 8000f06:	b002      	add	sp, #8
 8000f08:	bc80      	pop	{r7}
 8000f0a:	46b8      	mov	r8, r7
 8000f0c:	bdf0      	pop	{r4, r5, r6, r7, pc}

08000f0e <SSD1306_DrawFilledRectangle>:

void SSD1306_DrawFilledRectangle(uint16_t x, uint16_t y, uint16_t w, uint16_t h, SSD1306_COLOR_t c) {
 8000f0e:	b5f0      	push	{r4, r5, r6, r7, lr}
 8000f10:	46d6      	mov	lr, sl
 8000f12:	464f      	mov	r7, r9
 8000f14:	4646      	mov	r6, r8
 8000f16:	b5c0      	push	{r6, r7, lr}
 8000f18:	b082      	sub	sp, #8
 8000f1a:	0006      	movs	r6, r0
 8000f1c:	4688      	mov	r8, r1
 8000f1e:	001f      	movs	r7, r3
 8000f20:	ab0a      	add	r3, sp, #40	; 0x28
 8000f22:	781b      	ldrb	r3, [r3, #0]
 8000f24:	469a      	mov	sl, r3
	uint8_t i;
	
	/* Check input parameters */
	if (
 8000f26:	287f      	cmp	r0, #127	; 0x7f
 8000f28:	d822      	bhi.n	8000f70 <SSD1306_DrawFilledRectangle+0x62>
		x >= SSD1306_WIDTH ||
 8000f2a:	293f      	cmp	r1, #63	; 0x3f
 8000f2c:	d820      	bhi.n	8000f70 <SSD1306_DrawFilledRectangle+0x62>
		/* Return error */
		return;
	}
	
	/* Check width and height */
	if ((x + w) >= SSD1306_WIDTH) {
 8000f2e:	1883      	adds	r3, r0, r2
 8000f30:	2b7f      	cmp	r3, #127	; 0x7f
 8000f32:	dd02      	ble.n	8000f3a <SSD1306_DrawFilledRectangle+0x2c>
		w = SSD1306_WIDTH - x;
 8000f34:	2280      	movs	r2, #128	; 0x80
 8000f36:	1a12      	subs	r2, r2, r0
 8000f38:	b292      	uxth	r2, r2
	}
	if ((y + h) >= SSD1306_HEIGHT) {
 8000f3a:	4643      	mov	r3, r8
 8000f3c:	19db      	adds	r3, r3, r7
 8000f3e:	2b3f      	cmp	r3, #63	; 0x3f
 8000f40:	dd03      	ble.n	8000f4a <SSD1306_DrawFilledRectangle+0x3c>
		h = SSD1306_HEIGHT - y;
 8000f42:	2740      	movs	r7, #64	; 0x40
 8000f44:	4643      	mov	r3, r8
 8000f46:	1aff      	subs	r7, r7, r3
 8000f48:	b2bf      	uxth	r7, r7
	}
	
	/* Draw lines */
	for (i = 0; i <= h; i++) {
 8000f4a:	2500      	movs	r5, #0
 8000f4c:	2400      	movs	r4, #0
		/* Draw lines */
		SSD1306_DrawLine(x, y + i, x + w, y + i, c);
 8000f4e:	1992      	adds	r2, r2, r6
 8000f50:	b293      	uxth	r3, r2
 8000f52:	4699      	mov	r9, r3
 8000f54:	4444      	add	r4, r8
 8000f56:	b2a1      	uxth	r1, r4
 8000f58:	4653      	mov	r3, sl
 8000f5a:	9300      	str	r3, [sp, #0]
 8000f5c:	000b      	movs	r3, r1
 8000f5e:	464a      	mov	r2, r9
 8000f60:	0030      	movs	r0, r6
 8000f62:	f7ff fed3 	bl	8000d0c <SSD1306_DrawLine>
	for (i = 0; i <= h; i++) {
 8000f66:	1c6c      	adds	r4, r5, #1
 8000f68:	b2e5      	uxtb	r5, r4
 8000f6a:	002c      	movs	r4, r5
 8000f6c:	42bd      	cmp	r5, r7
 8000f6e:	d9f1      	bls.n	8000f54 <SSD1306_DrawFilledRectangle+0x46>
	}
}
 8000f70:	b002      	add	sp, #8
 8000f72:	bce0      	pop	{r5, r6, r7}
 8000f74:	46ba      	mov	sl, r7
 8000f76:	46b1      	mov	r9, r6
 8000f78:	46a8      	mov	r8, r5
 8000f7a:	bdf0      	pop	{r4, r5, r6, r7, pc}

08000f7c <ssd1306_I2C_WriteMulti>:
	//while(p>0)
	//	p--;
	//MX_I2C1_Init();
}

void ssd1306_I2C_WriteMulti(uint8_t address, uint8_t reg, uint8_t* data, uint16_t count) {
 8000f7c:	b530      	push	{r4, r5, lr}
 8000f7e:	b0c3      	sub	sp, #268	; 0x10c
uint8_t dt[256];
dt[0] = reg;
 8000f80:	ac02      	add	r4, sp, #8
 8000f82:	7021      	strb	r1, [r4, #0]
uint8_t i;
for(i = 0; i < count; i++)
 8000f84:	2b00      	cmp	r3, #0
 8000f86:	d008      	beq.n	8000f9a <ssd1306_I2C_WriteMulti+0x1e>
 8000f88:	2400      	movs	r4, #0
dt[i+1] = data[i];
 8000f8a:	a902      	add	r1, sp, #8
 8000f8c:	1909      	adds	r1, r1, r4
 8000f8e:	5d15      	ldrb	r5, [r2, r4]
 8000f90:	704d      	strb	r5, [r1, #1]
for(i = 0; i < count; i++)
 8000f92:	1c61      	adds	r1, r4, #1
 8000f94:	b2cc      	uxtb	r4, r1
 8000f96:	429c      	cmp	r4, r3
 8000f98:	d3f7      	bcc.n	8000f8a <ssd1306_I2C_WriteMulti+0xe>
HAL_I2C_Master_Transmit(&hi2c1, address, dt, count+1, 10);
 8000f9a:	3301      	adds	r3, #1
 8000f9c:	b29b      	uxth	r3, r3
 8000f9e:	b281      	uxth	r1, r0
 8000fa0:	220a      	movs	r2, #10
 8000fa2:	9200      	str	r2, [sp, #0]
 8000fa4:	aa02      	add	r2, sp, #8
 8000fa6:	4802      	ldr	r0, [pc, #8]	; (8000fb0 <ssd1306_I2C_WriteMulti+0x34>)
 8000fa8:	f001 fd96 	bl	8002ad8 <HAL_I2C_Master_Transmit>
}
 8000fac:	b043      	add	sp, #268	; 0x10c
 8000fae:	bd30      	pop	{r4, r5, pc}
 8000fb0:	200000a0 	.word	0x200000a0

08000fb4 <ssd1306_I2C_Write>:


void ssd1306_I2C_Write(uint8_t address, uint8_t reg, uint8_t data) {
 8000fb4:	b500      	push	{lr}
 8000fb6:	b085      	sub	sp, #20
	uint8_t dt[2];
	dt[0] = reg;
 8000fb8:	466b      	mov	r3, sp
 8000fba:	7319      	strb	r1, [r3, #12]
	dt[1] = data;
 8000fbc:	735a      	strb	r2, [r3, #13]
	HAL_I2C_Master_Transmit(&hi2c1, address, dt, 2, 10);
 8000fbe:	0001      	movs	r1, r0
 8000fc0:	230a      	movs	r3, #10
 8000fc2:	9300      	str	r3, [sp, #0]
 8000fc4:	3b08      	subs	r3, #8
 8000fc6:	aa03      	add	r2, sp, #12
 8000fc8:	4802      	ldr	r0, [pc, #8]	; (8000fd4 <ssd1306_I2C_Write+0x20>)
 8000fca:	f001 fd85 	bl	8002ad8 <HAL_I2C_Master_Transmit>
}
 8000fce:	b005      	add	sp, #20
 8000fd0:	bd00      	pop	{pc}
 8000fd2:	46c0      	nop			; (mov r8, r8)
 8000fd4:	200000a0 	.word	0x200000a0

08000fd8 <SSD1306_UpdateScreen>:
void SSD1306_UpdateScreen(void) {
 8000fd8:	b570      	push	{r4, r5, r6, lr}
	for (m = 0; m < 8; m++) {
 8000fda:	4d0e      	ldr	r5, [pc, #56]	; (8001014 <SSD1306_UpdateScreen+0x3c>)
void SSD1306_UpdateScreen(void) {
 8000fdc:	24b0      	movs	r4, #176	; 0xb0
		SSD1306_WRITECOMMAND(0xB0 + m);
 8000fde:	0022      	movs	r2, r4
 8000fe0:	2100      	movs	r1, #0
 8000fe2:	2078      	movs	r0, #120	; 0x78
 8000fe4:	f7ff ffe6 	bl	8000fb4 <ssd1306_I2C_Write>
		SSD1306_WRITECOMMAND(0x00);
 8000fe8:	2200      	movs	r2, #0
 8000fea:	2100      	movs	r1, #0
 8000fec:	2078      	movs	r0, #120	; 0x78
 8000fee:	f7ff ffe1 	bl	8000fb4 <ssd1306_I2C_Write>
		SSD1306_WRITECOMMAND(0x10);
 8000ff2:	2210      	movs	r2, #16
 8000ff4:	2100      	movs	r1, #0
 8000ff6:	2078      	movs	r0, #120	; 0x78
 8000ff8:	f7ff ffdc 	bl	8000fb4 <ssd1306_I2C_Write>
		ssd1306_I2C_WriteMulti(SSD1306_I2C_ADDR, 0x40, &SSD1306_Buffer[SSD1306_WIDTH * m], SSD1306_WIDTH);
 8000ffc:	2380      	movs	r3, #128	; 0x80
 8000ffe:	002a      	movs	r2, r5
 8001000:	2140      	movs	r1, #64	; 0x40
 8001002:	2078      	movs	r0, #120	; 0x78
 8001004:	f7ff ffba 	bl	8000f7c <ssd1306_I2C_WriteMulti>
	for (m = 0; m < 8; m++) {
 8001008:	3401      	adds	r4, #1
 800100a:	b2e4      	uxtb	r4, r4
 800100c:	3580      	adds	r5, #128	; 0x80
 800100e:	2cb8      	cmp	r4, #184	; 0xb8
 8001010:	d1e5      	bne.n	8000fde <SSD1306_UpdateScreen+0x6>
}
 8001012:	bd70      	pop	{r4, r5, r6, pc}
 8001014:	20000100 	.word	0x20000100

08001018 <SSD1306_Clear>:
{
 8001018:	b510      	push	{r4, lr}
	SSD1306_Fill (0);
 800101a:	2000      	movs	r0, #0
 800101c:	f7ff fd5c 	bl	8000ad8 <SSD1306_Fill>
    SSD1306_UpdateScreen();
 8001020:	f7ff ffda 	bl	8000fd8 <SSD1306_UpdateScreen>
}
 8001024:	bd10      	pop	{r4, pc}
	...

08001028 <SSD1306_Init>:
uint8_t SSD1306_Init(void) {
 8001028:	b510      	push	{r4, lr}
	if (HAL_I2C_IsDeviceReady(&hi2c1, SSD1306_I2C_ADDR, 1, 20000) != HAL_OK) {
 800102a:	4b56      	ldr	r3, [pc, #344]	; (8001184 <SSD1306_Init+0x15c>)
 800102c:	2201      	movs	r2, #1
 800102e:	2178      	movs	r1, #120	; 0x78
 8001030:	4855      	ldr	r0, [pc, #340]	; (8001188 <SSD1306_Init+0x160>)
 8001032:	f001 fe19 	bl	8002c68 <HAL_I2C_IsDeviceReady>
 8001036:	2800      	cmp	r0, #0
 8001038:	d000      	beq.n	800103c <SSD1306_Init+0x14>
 800103a:	e0a1      	b.n	8001180 <SSD1306_Init+0x158>
 800103c:	4b53      	ldr	r3, [pc, #332]	; (800118c <SSD1306_Init+0x164>)
	while(p>0)
 800103e:	3b01      	subs	r3, #1
 8001040:	2b00      	cmp	r3, #0
 8001042:	d1fc      	bne.n	800103e <SSD1306_Init+0x16>
	SSD1306_WRITECOMMAND(0xAE); //display off
 8001044:	22ae      	movs	r2, #174	; 0xae
 8001046:	2100      	movs	r1, #0
 8001048:	2078      	movs	r0, #120	; 0x78
 800104a:	f7ff ffb3 	bl	8000fb4 <ssd1306_I2C_Write>
	SSD1306_WRITECOMMAND(0x20); //Set Memory Addressing Mode   
 800104e:	2220      	movs	r2, #32
 8001050:	2100      	movs	r1, #0
 8001052:	2078      	movs	r0, #120	; 0x78
 8001054:	f7ff ffae 	bl	8000fb4 <ssd1306_I2C_Write>
	SSD1306_WRITECOMMAND(0x10); //00,Horizontal Addressing Mode;01,Vertical Addressing Mode;10,Page Addressing Mode (RESET);11,Invalid
 8001058:	2210      	movs	r2, #16
 800105a:	2100      	movs	r1, #0
 800105c:	2078      	movs	r0, #120	; 0x78
 800105e:	f7ff ffa9 	bl	8000fb4 <ssd1306_I2C_Write>
	SSD1306_WRITECOMMAND(0xB0); //Set Page Start Address for Page Addressing Mode,0-7
 8001062:	22b0      	movs	r2, #176	; 0xb0
 8001064:	2100      	movs	r1, #0
 8001066:	2078      	movs	r0, #120	; 0x78
 8001068:	f7ff ffa4 	bl	8000fb4 <ssd1306_I2C_Write>
	SSD1306_WRITECOMMAND(0xC8); //Set COM Output Scan Direction
 800106c:	22c8      	movs	r2, #200	; 0xc8
 800106e:	2100      	movs	r1, #0
 8001070:	2078      	movs	r0, #120	; 0x78
 8001072:	f7ff ff9f 	bl	8000fb4 <ssd1306_I2C_Write>
	SSD1306_WRITECOMMAND(0x00); //---set low column address
 8001076:	2200      	movs	r2, #0
 8001078:	2100      	movs	r1, #0
 800107a:	2078      	movs	r0, #120	; 0x78
 800107c:	f7ff ff9a 	bl	8000fb4 <ssd1306_I2C_Write>
	SSD1306_WRITECOMMAND(0x10); //---set high column address
 8001080:	2210      	movs	r2, #16
 8001082:	2100      	movs	r1, #0
 8001084:	2078      	movs	r0, #120	; 0x78
 8001086:	f7ff ff95 	bl	8000fb4 <ssd1306_I2C_Write>
	SSD1306_WRITECOMMAND(0x40); //--set start line address
 800108a:	2240      	movs	r2, #64	; 0x40
 800108c:	2100      	movs	r1, #0
 800108e:	2078      	movs	r0, #120	; 0x78
 8001090:	f7ff ff90 	bl	8000fb4 <ssd1306_I2C_Write>
	SSD1306_WRITECOMMAND(0x81); //--set contrast control register
 8001094:	2281      	movs	r2, #129	; 0x81
 8001096:	2100      	movs	r1, #0
 8001098:	2078      	movs	r0, #120	; 0x78
 800109a:	f7ff ff8b 	bl	8000fb4 <ssd1306_I2C_Write>
	SSD1306_WRITECOMMAND(0xFF);
 800109e:	22ff      	movs	r2, #255	; 0xff
 80010a0:	2100      	movs	r1, #0
 80010a2:	2078      	movs	r0, #120	; 0x78
 80010a4:	f7ff ff86 	bl	8000fb4 <ssd1306_I2C_Write>
	SSD1306_WRITECOMMAND(0xA1); //--set segment re-map 0 to 127
 80010a8:	22a1      	movs	r2, #161	; 0xa1
 80010aa:	2100      	movs	r1, #0
 80010ac:	2078      	movs	r0, #120	; 0x78
 80010ae:	f7ff ff81 	bl	8000fb4 <ssd1306_I2C_Write>
	SSD1306_WRITECOMMAND(0xA6); //--set normal display
 80010b2:	22a6      	movs	r2, #166	; 0xa6
 80010b4:	2100      	movs	r1, #0
 80010b6:	2078      	movs	r0, #120	; 0x78
 80010b8:	f7ff ff7c 	bl	8000fb4 <ssd1306_I2C_Write>
	SSD1306_WRITECOMMAND(0xA8); //--set multiplex ratio(1 to 64)
 80010bc:	22a8      	movs	r2, #168	; 0xa8
 80010be:	2100      	movs	r1, #0
 80010c0:	2078      	movs	r0, #120	; 0x78
 80010c2:	f7ff ff77 	bl	8000fb4 <ssd1306_I2C_Write>
	SSD1306_WRITECOMMAND(0x3F); //
 80010c6:	223f      	movs	r2, #63	; 0x3f
 80010c8:	2100      	movs	r1, #0
 80010ca:	2078      	movs	r0, #120	; 0x78
 80010cc:	f7ff ff72 	bl	8000fb4 <ssd1306_I2C_Write>
	SSD1306_WRITECOMMAND(0xA4); //0xa4,Output follows RAM content;0xa5,Output ignores RAM content
 80010d0:	22a4      	movs	r2, #164	; 0xa4
 80010d2:	2100      	movs	r1, #0
 80010d4:	2078      	movs	r0, #120	; 0x78
 80010d6:	f7ff ff6d 	bl	8000fb4 <ssd1306_I2C_Write>
	SSD1306_WRITECOMMAND(0xD3); //-set display offset
 80010da:	22d3      	movs	r2, #211	; 0xd3
 80010dc:	2100      	movs	r1, #0
 80010de:	2078      	movs	r0, #120	; 0x78
 80010e0:	f7ff ff68 	bl	8000fb4 <ssd1306_I2C_Write>
	SSD1306_WRITECOMMAND(0x00); //-not offset
 80010e4:	2200      	movs	r2, #0
 80010e6:	2100      	movs	r1, #0
 80010e8:	2078      	movs	r0, #120	; 0x78
 80010ea:	f7ff ff63 	bl	8000fb4 <ssd1306_I2C_Write>
	SSD1306_WRITECOMMAND(0xD5); //--set display clock divide ratio/oscillator frequency
 80010ee:	22d5      	movs	r2, #213	; 0xd5
 80010f0:	2100      	movs	r1, #0
 80010f2:	2078      	movs	r0, #120	; 0x78
 80010f4:	f7ff ff5e 	bl	8000fb4 <ssd1306_I2C_Write>
	SSD1306_WRITECOMMAND(0xF0); //--set divide ratio
 80010f8:	22f0      	movs	r2, #240	; 0xf0
 80010fa:	2100      	movs	r1, #0
 80010fc:	2078      	movs	r0, #120	; 0x78
 80010fe:	f7ff ff59 	bl	8000fb4 <ssd1306_I2C_Write>
	SSD1306_WRITECOMMAND(0xD9); //--set pre-charge period
 8001102:	22d9      	movs	r2, #217	; 0xd9
 8001104:	2100      	movs	r1, #0
 8001106:	2078      	movs	r0, #120	; 0x78
 8001108:	f7ff ff54 	bl	8000fb4 <ssd1306_I2C_Write>
	SSD1306_WRITECOMMAND(0x22); //
 800110c:	2222      	movs	r2, #34	; 0x22
 800110e:	2100      	movs	r1, #0
 8001110:	2078      	movs	r0, #120	; 0x78
 8001112:	f7ff ff4f 	bl	8000fb4 <ssd1306_I2C_Write>
	SSD1306_WRITECOMMAND(0xDA); //--set com pins hardware configuration
 8001116:	22da      	movs	r2, #218	; 0xda
 8001118:	2100      	movs	r1, #0
 800111a:	2078      	movs	r0, #120	; 0x78
 800111c:	f7ff ff4a 	bl	8000fb4 <ssd1306_I2C_Write>
	SSD1306_WRITECOMMAND(0x12);
 8001120:	2212      	movs	r2, #18
 8001122:	2100      	movs	r1, #0
 8001124:	2078      	movs	r0, #120	; 0x78
 8001126:	f7ff ff45 	bl	8000fb4 <ssd1306_I2C_Write>
	SSD1306_WRITECOMMAND(0xDB); //--set vcomh
 800112a:	22db      	movs	r2, #219	; 0xdb
 800112c:	2100      	movs	r1, #0
 800112e:	2078      	movs	r0, #120	; 0x78
 8001130:	f7ff ff40 	bl	8000fb4 <ssd1306_I2C_Write>
	SSD1306_WRITECOMMAND(0x20); //0x20,0.77xVcc
 8001134:	2220      	movs	r2, #32
 8001136:	2100      	movs	r1, #0
 8001138:	2078      	movs	r0, #120	; 0x78
 800113a:	f7ff ff3b 	bl	8000fb4 <ssd1306_I2C_Write>
	SSD1306_WRITECOMMAND(0x8D); //--set DC-DC enable
 800113e:	228d      	movs	r2, #141	; 0x8d
 8001140:	2100      	movs	r1, #0
 8001142:	2078      	movs	r0, #120	; 0x78
 8001144:	f7ff ff36 	bl	8000fb4 <ssd1306_I2C_Write>
	SSD1306_WRITECOMMAND(0x14); //
 8001148:	2214      	movs	r2, #20
 800114a:	2100      	movs	r1, #0
 800114c:	2078      	movs	r0, #120	; 0x78
 800114e:	f7ff ff31 	bl	8000fb4 <ssd1306_I2C_Write>
	SSD1306_WRITECOMMAND(0xAF); //--turn on SSD1306 panel
 8001152:	22af      	movs	r2, #175	; 0xaf
 8001154:	2100      	movs	r1, #0
 8001156:	2078      	movs	r0, #120	; 0x78
 8001158:	f7ff ff2c 	bl	8000fb4 <ssd1306_I2C_Write>
	SSD1306_WRITECOMMAND(SSD1306_DEACTIVATE_SCROLL);
 800115c:	222e      	movs	r2, #46	; 0x2e
 800115e:	2100      	movs	r1, #0
 8001160:	2078      	movs	r0, #120	; 0x78
 8001162:	f7ff ff27 	bl	8000fb4 <ssd1306_I2C_Write>
	SSD1306_Fill(SSD1306_COLOR_BLACK);
 8001166:	2000      	movs	r0, #0
 8001168:	f7ff fcb6 	bl	8000ad8 <SSD1306_Fill>
	SSD1306_UpdateScreen();
 800116c:	f7ff ff34 	bl	8000fd8 <SSD1306_UpdateScreen>
	SSD1306.CurrentX = 0;
 8001170:	4b07      	ldr	r3, [pc, #28]	; (8001190 <SSD1306_Init+0x168>)
 8001172:	2200      	movs	r2, #0
 8001174:	801a      	strh	r2, [r3, #0]
	SSD1306.CurrentY = 0;
 8001176:	805a      	strh	r2, [r3, #2]
	SSD1306.Initialized = 1;
 8001178:	3201      	adds	r2, #1
 800117a:	715a      	strb	r2, [r3, #5]
	return 1;
 800117c:	2001      	movs	r0, #1
}
 800117e:	bd10      	pop	{r4, pc}
		return 0;
 8001180:	2000      	movs	r0, #0
 8001182:	e7fc      	b.n	800117e <SSD1306_Init+0x156>
 8001184:	00004e20 	.word	0x00004e20
 8001188:	200000a0 	.word	0x200000a0
 800118c:	000009c4 	.word	0x000009c4
 8001190:	200000f8 	.word	0x200000f8

08001194 <SSD1306_SetContrast>:
void SSD1306_SetContrast(const uint8_t value) {
 8001194:	b510      	push	{r4, lr}
 8001196:	0004      	movs	r4, r0
    SSD1306_WRITECOMMAND(kSetContrastControlRegister);
 8001198:	2281      	movs	r2, #129	; 0x81
 800119a:	2100      	movs	r1, #0
 800119c:	2078      	movs	r0, #120	; 0x78
 800119e:	f7ff ff09 	bl	8000fb4 <ssd1306_I2C_Write>
    SSD1306_WRITECOMMAND(value);
 80011a2:	0022      	movs	r2, r4
 80011a4:	2100      	movs	r1, #0
 80011a6:	2078      	movs	r0, #120	; 0x78
 80011a8:	f7ff ff04 	bl	8000fb4 <ssd1306_I2C_Write>
}
 80011ac:	bd10      	pop	{r4, pc}
	...

080011b0 <New_Task_Element>:
		}
	}
}

void New_Task_Element(void)
{
 80011b0:	b530      	push	{r4, r5, lr}
 80011b2:	b083      	sub	sp, #12
	bool color = 0;

	if ((g_projectSelect + 3) % 2)
 80011b4:	4b15      	ldr	r3, [pc, #84]	; (800120c <New_Task_Element+0x5c>)
 80011b6:	781b      	ldrb	r3, [r3, #0]
 80011b8:	07db      	lsls	r3, r3, #31
 80011ba:	d41d      	bmi.n	80011f8 <New_Task_Element+0x48>
	{
		SSD1306_DrawFilledRectangle(5, 25, 56, 47, 1);
 80011bc:	2301      	movs	r3, #1
 80011be:	9300      	str	r3, [sp, #0]
 80011c0:	332e      	adds	r3, #46	; 0x2e
 80011c2:	2238      	movs	r2, #56	; 0x38
 80011c4:	2119      	movs	r1, #25
 80011c6:	2005      	movs	r0, #5
 80011c8:	f7ff fea1 	bl	8000f0e <SSD1306_DrawFilledRectangle>
		color = 0;
 80011cc:	2500      	movs	r5, #0
	else
	{
		SSD1306_DrawRectangle(5, 25, 56, 47, 1);
		color = 1;
	}
	SSD1306_GotoXY(18, 33);
 80011ce:	2121      	movs	r1, #33	; 0x21
 80011d0:	2012      	movs	r0, #18
 80011d2:	f7ff fd15 	bl	8000c00 <SSD1306_GotoXY>
	SSD1306_Puts("Nowe", &Font_7x10, color);
 80011d6:	4c0e      	ldr	r4, [pc, #56]	; (8001210 <New_Task_Element+0x60>)
 80011d8:	002a      	movs	r2, r5
 80011da:	0021      	movs	r1, r4
 80011dc:	480d      	ldr	r0, [pc, #52]	; (8001214 <New_Task_Element+0x64>)
 80011de:	f7ff fd81 	bl	8000ce4 <SSD1306_Puts>
	SSD1306_GotoXY(9, 46);
 80011e2:	212e      	movs	r1, #46	; 0x2e
 80011e4:	2009      	movs	r0, #9
 80011e6:	f7ff fd0b 	bl	8000c00 <SSD1306_GotoXY>
	SSD1306_Puts("zadanie", &Font_7x10, color);
 80011ea:	002a      	movs	r2, r5
 80011ec:	0021      	movs	r1, r4
 80011ee:	480a      	ldr	r0, [pc, #40]	; (8001218 <New_Task_Element+0x68>)
 80011f0:	f7ff fd78 	bl	8000ce4 <SSD1306_Puts>
}
 80011f4:	b003      	add	sp, #12
 80011f6:	bd30      	pop	{r4, r5, pc}
		SSD1306_DrawRectangle(5, 25, 56, 47, 1);
 80011f8:	2301      	movs	r3, #1
 80011fa:	9300      	str	r3, [sp, #0]
 80011fc:	332e      	adds	r3, #46	; 0x2e
 80011fe:	2238      	movs	r2, #56	; 0x38
 8001200:	2119      	movs	r1, #25
 8001202:	2005      	movs	r0, #5
 8001204:	f7ff fe41 	bl	8000e8a <SSD1306_DrawRectangle>
		color = 1;
 8001208:	2501      	movs	r5, #1
 800120a:	e7e0      	b.n	80011ce <New_Task_Element+0x1e>
 800120c:	20000635 	.word	0x20000635
 8001210:	2000000c 	.word	0x2000000c
 8001214:	08005280 	.word	0x08005280
 8001218:	08005288 	.word	0x08005288

0800121c <Show_Project_Tasks>:

// project tasks list - 12
// -------------------------------------------------------------------------------------

void Show_Project_Tasks(ProjectManager * details)
{
 800121c:	b5f0      	push	{r4, r5, r6, r7, lr}
 800121e:	b085      	sub	sp, #20
 8001220:	0004      	movs	r4, r0
	char valueToken[10];

	SSD1306_GotoXY(0, 31);
 8001222:	211f      	movs	r1, #31
 8001224:	2000      	movs	r0, #0
 8001226:	f7ff fceb 	bl	8000c00 <SSD1306_GotoXY>
	SSD1306_Puts(DISP_DETAIL_TURNS_LABEL, &Font_7x10, 1);
 800122a:	4d1d      	ldr	r5, [pc, #116]	; (80012a0 <Show_Project_Tasks+0x84>)
 800122c:	2201      	movs	r2, #1
 800122e:	0029      	movs	r1, r5
 8001230:	481c      	ldr	r0, [pc, #112]	; (80012a4 <Show_Project_Tasks+0x88>)
 8001232:	f7ff fd57 	bl	8000ce4 <SSD1306_Puts>
	SSD1306_GotoXY(70, 31);
 8001236:	211f      	movs	r1, #31
 8001238:	2046      	movs	r0, #70	; 0x46
 800123a:	f7ff fce1 	bl	8000c00 <SSD1306_GotoXY>
	sprintf(valueToken, "%i", details->turns[g_taskStep]);
 800123e:	4f1a      	ldr	r7, [pc, #104]	; (80012a8 <Show_Project_Tasks+0x8c>)
 8001240:	783b      	ldrb	r3, [r7, #0]
 8001242:	330c      	adds	r3, #12
 8001244:	005b      	lsls	r3, r3, #1
 8001246:	18e3      	adds	r3, r4, r3
 8001248:	885a      	ldrh	r2, [r3, #2]
 800124a:	4e18      	ldr	r6, [pc, #96]	; (80012ac <Show_Project_Tasks+0x90>)
 800124c:	0031      	movs	r1, r6
 800124e:	a801      	add	r0, sp, #4
 8001250:	f003 fb6c 	bl	800492c <siprintf>
	SSD1306_Puts(valueToken, &Font_7x10, 1);
 8001254:	2201      	movs	r2, #1
 8001256:	0029      	movs	r1, r5
 8001258:	a801      	add	r0, sp, #4
 800125a:	f7ff fd43 	bl	8000ce4 <SSD1306_Puts>
	SSD1306_GotoXY(0, 42);
 800125e:	212a      	movs	r1, #42	; 0x2a
 8001260:	2000      	movs	r0, #0
 8001262:	f7ff fccd 	bl	8000c00 <SSD1306_GotoXY>
	SSD1306_Puts(DISP_DETAIL_DIAMETER_LABEL, &Font_7x10, 1);
 8001266:	2201      	movs	r2, #1
 8001268:	0029      	movs	r1, r5
 800126a:	4811      	ldr	r0, [pc, #68]	; (80012b0 <Show_Project_Tasks+0x94>)
 800126c:	f7ff fd3a 	bl	8000ce4 <SSD1306_Puts>
	SSD1306_GotoXY(70, 42);
 8001270:	212a      	movs	r1, #42	; 0x2a
 8001272:	2046      	movs	r0, #70	; 0x46
 8001274:	f7ff fcc4 	bl	8000c00 <SSD1306_GotoXY>
	sprintf(valueToken, "%i", details->diameter[g_taskStep]);
 8001278:	7838      	ldrb	r0, [r7, #0]
 800127a:	3014      	adds	r0, #20
 800127c:	0040      	lsls	r0, r0, #1
 800127e:	1820      	adds	r0, r4, r0
 8001280:	88c2      	ldrh	r2, [r0, #6]
 8001282:	0031      	movs	r1, r6
 8001284:	a801      	add	r0, sp, #4
 8001286:	f003 fb51 	bl	800492c <siprintf>
	SSD1306_Puts(valueToken, &Font_7x10, 1);
 800128a:	2201      	movs	r2, #1
 800128c:	0029      	movs	r1, r5
 800128e:	a801      	add	r0, sp, #4
 8001290:	f7ff fd28 	bl	8000ce4 <SSD1306_Puts>
	SSD1306_GotoXY(0, 53);
 8001294:	2135      	movs	r1, #53	; 0x35
 8001296:	2000      	movs	r0, #0
 8001298:	f7ff fcb2 	bl	8000c00 <SSD1306_GotoXY>
}
 800129c:	b005      	add	sp, #20
 800129e:	bdf0      	pop	{r4, r5, r6, r7, pc}
 80012a0:	2000000c 	.word	0x2000000c
 80012a4:	08005290 	.word	0x08005290
 80012a8:	20000637 	.word	0x20000637
 80012ac:	08005298 	.word	0x08005298
 80012b0:	0800529c 	.word	0x0800529c

080012b4 <Move_Marker>:
	Draw_Changing_Value_Marker(margin, 39);
}

void Move_Marker(uint8_t range)
{
	markerPosition++;
 80012b4:	4b06      	ldr	r3, [pc, #24]	; (80012d0 <Move_Marker+0x1c>)
 80012b6:	781b      	ldrb	r3, [r3, #0]
 80012b8:	3301      	adds	r3, #1
 80012ba:	b25b      	sxtb	r3, r3
	if(markerPosition >= range) {markerPosition = 0;}
 80012bc:	4283      	cmp	r3, r0
 80012be:	da02      	bge.n	80012c6 <Move_Marker+0x12>
	markerPosition++;
 80012c0:	4a03      	ldr	r2, [pc, #12]	; (80012d0 <Move_Marker+0x1c>)
 80012c2:	7013      	strb	r3, [r2, #0]
 80012c4:	e002      	b.n	80012cc <Move_Marker+0x18>
	if(markerPosition >= range) {markerPosition = 0;}
 80012c6:	4b02      	ldr	r3, [pc, #8]	; (80012d0 <Move_Marker+0x1c>)
 80012c8:	2200      	movs	r2, #0
 80012ca:	701a      	strb	r2, [r3, #0]
}
 80012cc:	4770      	bx	lr
 80012ce:	46c0      	nop			; (mov r8, r8)
 80012d0:	20000639 	.word	0x20000639

080012d4 <Array_To_Int_Change_Value>:
	if (value > max){value = valueToken;}
	Int_To_Array_Change_Value(value);
}

uint16_t Array_To_Int_Change_Value(void)
{
 80012d4:	b5f0      	push	{r4, r5, r6, r7, lr}
 80012d6:	b083      	sub	sp, #12
 80012d8:	2201      	movs	r2, #1
 80012da:	2100      	movs	r1, #0
	volatile uint16_t expo;
	uint16_t value = 0;
 80012dc:	2000      	movs	r0, #0

	for (uint8_t i = 0; i <= 3; i++)
	{
		if (!i){expo = 1;}
		else {expo *= 10;}
 80012de:	466b      	mov	r3, sp
 80012e0:	1d9c      	adds	r4, r3, #6
		value = value + (expo * arrayToken[i]);
 80012e2:	4d10      	ldr	r5, [pc, #64]	; (8001324 <Array_To_Int_Change_Value+0x50>)
		if (!i){expo = 1;}
 80012e4:	2701      	movs	r7, #1
 80012e6:	e00a      	b.n	80012fe <Array_To_Int_Change_Value+0x2a>
 80012e8:	8027      	strh	r7, [r4, #0]
		value = value + (expo * arrayToken[i]);
 80012ea:	4b0e      	ldr	r3, [pc, #56]	; (8001324 <Array_To_Int_Change_Value+0x50>)
 80012ec:	5c5e      	ldrb	r6, [r3, r1]
 80012ee:	b276      	sxtb	r6, r6
 80012f0:	8823      	ldrh	r3, [r4, #0]
 80012f2:	4373      	muls	r3, r6
 80012f4:	18c0      	adds	r0, r0, r3
 80012f6:	b280      	uxth	r0, r0
	for (uint8_t i = 0; i <= 3; i++)
 80012f8:	3101      	adds	r1, #1
 80012fa:	3201      	adds	r2, #1
 80012fc:	b2d2      	uxtb	r2, r2
		if (!i){expo = 1;}
 80012fe:	b2cb      	uxtb	r3, r1
 8001300:	2b00      	cmp	r3, #0
 8001302:	d0f1      	beq.n	80012e8 <Array_To_Int_Change_Value+0x14>
		else {expo *= 10;}
 8001304:	8823      	ldrh	r3, [r4, #0]
 8001306:	009e      	lsls	r6, r3, #2
 8001308:	199b      	adds	r3, r3, r6
 800130a:	005b      	lsls	r3, r3, #1
 800130c:	b29b      	uxth	r3, r3
 800130e:	8023      	strh	r3, [r4, #0]
		value = value + (expo * arrayToken[i]);
 8001310:	5c6e      	ldrb	r6, [r5, r1]
 8001312:	b276      	sxtb	r6, r6
 8001314:	8823      	ldrh	r3, [r4, #0]
 8001316:	4373      	muls	r3, r6
 8001318:	18c0      	adds	r0, r0, r3
 800131a:	b280      	uxth	r0, r0
	for (uint8_t i = 0; i <= 3; i++)
 800131c:	2a03      	cmp	r2, #3
 800131e:	d9eb      	bls.n	80012f8 <Array_To_Int_Change_Value+0x24>
	}
	return value;
}
 8001320:	b003      	add	sp, #12
 8001322:	bdf0      	pop	{r4, r5, r6, r7, pc}
 8001324:	20000630 	.word	0x20000630

08001328 <Int_To_Array_Change_Value>:

void Int_To_Array_Change_Value(uint16_t value)
{
 8001328:	b5f0      	push	{r4, r5, r6, r7, lr}
 800132a:	46c6      	mov	lr, r8
 800132c:	b500      	push	{lr}
 800132e:	b082      	sub	sp, #8
 8001330:	4680      	mov	r8, r0
 8001332:	2601      	movs	r6, #1
 8001334:	2700      	movs	r7, #0
	volatile uint16_t expo;

	for (uint8_t i = 0; i <= 3; i++)
	{
		if (!i){expo = 1;}
		else {expo *= 10;}
 8001336:	466b      	mov	r3, sp
 8001338:	1d9c      	adds	r4, r3, #6
		if (!i){expo = 1;}
 800133a:	2501      	movs	r5, #1
 800133c:	e00f      	b.n	800135e <Int_To_Array_Change_Value+0x36>
 800133e:	8025      	strh	r5, [r4, #0]
		arrayToken[i] = (value / expo) % 10;
 8001340:	8821      	ldrh	r1, [r4, #0]
 8001342:	b289      	uxth	r1, r1
 8001344:	4640      	mov	r0, r8
 8001346:	f7fe fee9 	bl	800011c <__udivsi3>
 800134a:	b280      	uxth	r0, r0
 800134c:	210a      	movs	r1, #10
 800134e:	f7fe ff6b 	bl	8000228 <__aeabi_uidivmod>
 8001352:	b249      	sxtb	r1, r1
 8001354:	4b0f      	ldr	r3, [pc, #60]	; (8001394 <Int_To_Array_Change_Value+0x6c>)
 8001356:	55d9      	strb	r1, [r3, r7]
	for (uint8_t i = 0; i <= 3; i++)
 8001358:	3701      	adds	r7, #1
 800135a:	3601      	adds	r6, #1
 800135c:	b2f6      	uxtb	r6, r6
		if (!i){expo = 1;}
 800135e:	b2fb      	uxtb	r3, r7
 8001360:	2b00      	cmp	r3, #0
 8001362:	d0ec      	beq.n	800133e <Int_To_Array_Change_Value+0x16>
		else {expo *= 10;}
 8001364:	8823      	ldrh	r3, [r4, #0]
 8001366:	009a      	lsls	r2, r3, #2
 8001368:	189b      	adds	r3, r3, r2
 800136a:	005b      	lsls	r3, r3, #1
 800136c:	b29b      	uxth	r3, r3
 800136e:	8023      	strh	r3, [r4, #0]
		arrayToken[i] = (value / expo) % 10;
 8001370:	8821      	ldrh	r1, [r4, #0]
 8001372:	b289      	uxth	r1, r1
 8001374:	4640      	mov	r0, r8
 8001376:	f7fe fed1 	bl	800011c <__udivsi3>
 800137a:	b280      	uxth	r0, r0
 800137c:	210a      	movs	r1, #10
 800137e:	f7fe ff53 	bl	8000228 <__aeabi_uidivmod>
 8001382:	b249      	sxtb	r1, r1
 8001384:	4b03      	ldr	r3, [pc, #12]	; (8001394 <Int_To_Array_Change_Value+0x6c>)
 8001386:	55d9      	strb	r1, [r3, r7]
	for (uint8_t i = 0; i <= 3; i++)
 8001388:	2e03      	cmp	r6, #3
 800138a:	d9e5      	bls.n	8001358 <Int_To_Array_Change_Value+0x30>
	}
}
 800138c:	b002      	add	sp, #8
 800138e:	bc80      	pop	{r7}
 8001390:	46b8      	mov	r8, r7
 8001392:	bdf0      	pop	{r4, r5, r6, r7, pc}
 8001394:	20000630 	.word	0x20000630

08001398 <Change_Value>:
{
 8001398:	b5f0      	push	{r4, r5, r6, r7, lr}
 800139a:	46d6      	mov	lr, sl
 800139c:	464f      	mov	r7, r9
 800139e:	4646      	mov	r6, r8
 80013a0:	b5c0      	push	{r6, r7, lr}
 80013a2:	4681      	mov	r9, r0
 80013a4:	000d      	movs	r5, r1
 80013a6:	4690      	mov	r8, r2
 80013a8:	469a      	mov	sl, r3
	uint16_t valueToken = Array_To_Int_Change_Value();
 80013aa:	f7ff ff93 	bl	80012d4 <Array_To_Int_Change_Value>
 80013ae:	0006      	movs	r6, r0
	for (uint8_t i = 0; i < position; i++) {expo *= 10;}
 80013b0:	2d00      	cmp	r5, #0
 80013b2:	d02d      	beq.n	8001410 <Change_Value+0x78>
 80013b4:	2300      	movs	r3, #0
	uint16_t expo 		= 1;
 80013b6:	2701      	movs	r7, #1
	for (uint8_t i = 0; i < position; i++) {expo *= 10;}
 80013b8:	00bc      	lsls	r4, r7, #2
 80013ba:	193c      	adds	r4, r7, r4
 80013bc:	0064      	lsls	r4, r4, #1
 80013be:	b2a7      	uxth	r7, r4
 80013c0:	3301      	adds	r3, #1
 80013c2:	b2db      	uxtb	r3, r3
 80013c4:	429d      	cmp	r5, r3
 80013c6:	d1f7      	bne.n	80013b8 <Change_Value+0x20>
	uint8_t overflowFlag = arrayToken[position] = (valueToken / expo) % 10; // okrela warto cyfry nad markerem wyboru
 80013c8:	0039      	movs	r1, r7
 80013ca:	0030      	movs	r0, r6
 80013cc:	f7fe fea6 	bl	800011c <__udivsi3>
 80013d0:	b280      	uxth	r0, r0
 80013d2:	210a      	movs	r1, #10
 80013d4:	f7fe ff28 	bl	8000228 <__aeabi_uidivmod>
 80013d8:	b24a      	sxtb	r2, r1
 80013da:	4b15      	ldr	r3, [pc, #84]	; (8001430 <Change_Value+0x98>)
 80013dc:	555a      	strb	r2, [r3, r5]
 80013de:	b2c9      	uxtb	r1, r1
	if (set)
 80013e0:	464b      	mov	r3, r9
 80013e2:	2b00      	cmp	r3, #0
 80013e4:	d019      	beq.n	800141a <Change_Value+0x82>
		if (overflowFlag >= 9) value = valueToken - (expo * 9);
 80013e6:	2908      	cmp	r1, #8
 80013e8:	d914      	bls.n	8001414 <Change_Value+0x7c>
 80013ea:	037c      	lsls	r4, r7, #13
 80013ec:	1be4      	subs	r4, r4, r7
 80013ee:	00e4      	lsls	r4, r4, #3
 80013f0:	1be0      	subs	r0, r4, r7
 80013f2:	1830      	adds	r0, r6, r0
 80013f4:	b280      	uxth	r0, r0
	if (value < min){value = valueToken;}
 80013f6:	4540      	cmp	r0, r8
 80013f8:	d200      	bcs.n	80013fc <Change_Value+0x64>
 80013fa:	0030      	movs	r0, r6
	if (value > max){value = valueToken;}
 80013fc:	4550      	cmp	r0, sl
 80013fe:	d900      	bls.n	8001402 <Change_Value+0x6a>
 8001400:	0030      	movs	r0, r6
	Int_To_Array_Change_Value(value);
 8001402:	f7ff ff91 	bl	8001328 <Int_To_Array_Change_Value>
}
 8001406:	bce0      	pop	{r5, r6, r7}
 8001408:	46ba      	mov	sl, r7
 800140a:	46b1      	mov	r9, r6
 800140c:	46a8      	mov	r8, r5
 800140e:	bdf0      	pop	{r4, r5, r6, r7, pc}
	uint16_t expo 		= 1;
 8001410:	2701      	movs	r7, #1
 8001412:	e7d9      	b.n	80013c8 <Change_Value+0x30>
		else value = valueToken + expo;
 8001414:	19f7      	adds	r7, r6, r7
 8001416:	b2b8      	uxth	r0, r7
 8001418:	e7ed      	b.n	80013f6 <Change_Value+0x5e>
		if (overflowFlag <= 0) value = valueToken + (expo * 9);
 800141a:	2900      	cmp	r1, #0
 800141c:	d104      	bne.n	8001428 <Change_Value+0x90>
 800141e:	00fc      	lsls	r4, r7, #3
 8001420:	193c      	adds	r4, r7, r4
 8001422:	1934      	adds	r4, r6, r4
 8001424:	b2a0      	uxth	r0, r4
 8001426:	e7e6      	b.n	80013f6 <Change_Value+0x5e>
		else value = valueToken - expo;
 8001428:	1bf0      	subs	r0, r6, r7
 800142a:	b280      	uxth	r0, r0
 800142c:	e7e3      	b.n	80013f6 <Change_Value+0x5e>
 800142e:	46c0      	nop			; (mov r8, r8)
 8001430:	20000630 	.word	0x20000630

08001434 <Save_Set_Value>:

void Save_Set_Value(uint16_t value)
{
	Settings[g_workStep - 2].setValue = value;
 8001434:	4b03      	ldr	r3, [pc, #12]	; (8001444 <Save_Set_Value+0x10>)
 8001436:	781b      	ldrb	r3, [r3, #0]
 8001438:	3b02      	subs	r3, #2
 800143a:	00db      	lsls	r3, r3, #3
 800143c:	4a02      	ldr	r2, [pc, #8]	; (8001448 <Save_Set_Value+0x14>)
 800143e:	18d3      	adds	r3, r2, r3
 8001440:	8058      	strh	r0, [r3, #2]
}
 8001442:	4770      	bx	lr
 8001444:	20000638 	.word	0x20000638
 8001448:	20000610 	.word	0x20000610

0800144c <Draw_Changing_Value_Marker>:

void Draw_Changing_Value_Marker(uint8_t width, uint8_t height)
{
 800144c:	b5f8      	push	{r3, r4, r5, r6, r7, lr}
	for (uint8_t h = 0; h < 5; h++)
 800144e:	0007      	movs	r7, r0
 8001450:	000e      	movs	r6, r1
	{
		uint8_t w = 0;
 8001452:	2500      	movs	r5, #0
 8001454:	2400      	movs	r4, #0
		while (w <= (h * 2))
		{
			SSD1306_DrawPixel(((width - h) + w), height + h, 1);
 8001456:	1938      	adds	r0, r7, r4
 8001458:	b280      	uxth	r0, r0
 800145a:	2201      	movs	r2, #1
 800145c:	0031      	movs	r1, r6
 800145e:	f7ff fb4b 	bl	8000af8 <SSD1306_DrawPixel>
			w++;
 8001462:	3401      	adds	r4, #1
 8001464:	b2e4      	uxtb	r4, r4
		while (w <= (h * 2))
 8001466:	42ac      	cmp	r4, r5
 8001468:	ddf5      	ble.n	8001456 <Draw_Changing_Value_Marker+0xa>
	for (uint8_t h = 0; h < 5; h++)
 800146a:	3f01      	subs	r7, #1
 800146c:	b2bf      	uxth	r7, r7
 800146e:	3601      	adds	r6, #1
 8001470:	b2b6      	uxth	r6, r6
 8001472:	3502      	adds	r5, #2
 8001474:	2d0a      	cmp	r5, #10
 8001476:	d1ed      	bne.n	8001454 <Draw_Changing_Value_Marker+0x8>
		}
	}
}
 8001478:	bdf8      	pop	{r3, r4, r5, r6, r7, pc}

0800147a <Clear_Changing_Value_Marker>:
void Clear_Changing_Value_Marker(void)
{
 800147a:	b500      	push	{lr}
 800147c:	b083      	sub	sp, #12
	SSD1306_DrawFilledRectangle(20, 39, 80, 5, 0);
 800147e:	2300      	movs	r3, #0
 8001480:	9300      	str	r3, [sp, #0]
 8001482:	3305      	adds	r3, #5
 8001484:	2250      	movs	r2, #80	; 0x50
 8001486:	2127      	movs	r1, #39	; 0x27
 8001488:	2014      	movs	r0, #20
 800148a:	f7ff fd40 	bl	8000f0e <SSD1306_DrawFilledRectangle>
}
 800148e:	b003      	add	sp, #12
 8001490:	bd00      	pop	{pc}
	...

08001494 <Set_Marker_Position>:
{
 8001494:	b510      	push	{r4, lr}
 8001496:	0004      	movs	r4, r0
	Clear_Changing_Value_Marker();
 8001498:	f7ff ffef 	bl	800147a <Clear_Changing_Value_Marker>
	if (markerPosition >= divider)
 800149c:	4b09      	ldr	r3, [pc, #36]	; (80014c4 <Set_Marker_Position+0x30>)
 800149e:	2000      	movs	r0, #0
 80014a0:	5618      	ldrsb	r0, [r3, r0]
	uint8_t correction = 0;
 80014a2:	2200      	movs	r2, #0
	if (markerPosition >= divider)
 80014a4:	42a0      	cmp	r0, r4
 80014a6:	db00      	blt.n	80014aa <Set_Marker_Position+0x16>
		correction = 11;
 80014a8:	320b      	adds	r2, #11
	char margin = (73 - ((markerPosition * 11) + correction));
 80014aa:	0083      	lsls	r3, r0, #2
 80014ac:	18c3      	adds	r3, r0, r3
 80014ae:	005b      	lsls	r3, r3, #1
 80014b0:	18c3      	adds	r3, r0, r3
 80014b2:	2049      	movs	r0, #73	; 0x49
 80014b4:	1ac0      	subs	r0, r0, r3
 80014b6:	1a80      	subs	r0, r0, r2
	Draw_Changing_Value_Marker(margin, 39);
 80014b8:	b2c0      	uxtb	r0, r0
 80014ba:	2127      	movs	r1, #39	; 0x27
 80014bc:	f7ff ffc6 	bl	800144c <Draw_Changing_Value_Marker>
}
 80014c0:	bd10      	pop	{r4, pc}
 80014c2:	46c0      	nop			; (mov r8, r8)
 80014c4:	20000639 	.word	0x20000639

080014c8 <Clear_Value>:
void Clear_Value(void)
{
 80014c8:	b500      	push	{lr}
 80014ca:	b083      	sub	sp, #12
	SSD1306_DrawFilledRectangle(20, 20, 100, 18, 0);
 80014cc:	2300      	movs	r3, #0
 80014ce:	9300      	str	r3, [sp, #0]
 80014d0:	3312      	adds	r3, #18
 80014d2:	2264      	movs	r2, #100	; 0x64
 80014d4:	2114      	movs	r1, #20
 80014d6:	2014      	movs	r0, #20
 80014d8:	f7ff fd19 	bl	8000f0e <SSD1306_DrawFilledRectangle>
}
 80014dc:	b003      	add	sp, #12
 80014de:	bd00      	pop	{pc}

080014e0 <Show_Value_Screen>:
{
 80014e0:	b530      	push	{r4, r5, lr}
 80014e2:	b089      	sub	sp, #36	; 0x24
 80014e4:	0004      	movs	r4, r0
 80014e6:	0010      	movs	r0, r2
 80014e8:	1e1d      	subs	r5, r3, #0
	if (runCount)
 80014ea:	d060      	beq.n	80015ae <Show_Value_Screen+0xce>
		markerPosition = 0;
 80014ec:	4b54      	ldr	r3, [pc, #336]	; (8001640 <Show_Value_Screen+0x160>)
 80014ee:	2200      	movs	r2, #0
 80014f0:	701a      	strb	r2, [r3, #0]
		switch (type)
 80014f2:	2c02      	cmp	r4, #2
 80014f4:	d043      	beq.n	800157e <Show_Value_Screen+0x9e>
 80014f6:	d80c      	bhi.n	8001512 <Show_Value_Screen+0x32>
 80014f8:	2c00      	cmp	r4, #0
 80014fa:	d017      	beq.n	800152c <Show_Value_Screen+0x4c>
			case VAL_TYPE_CARCASS_COIL_TURNS: SSD1306_DrawBitmap(0, 0, IMG_TURNS, 128, 64, 1);
 80014fc:	2301      	movs	r3, #1
 80014fe:	9301      	str	r3, [sp, #4]
 8001500:	333f      	adds	r3, #63	; 0x3f
 8001502:	9300      	str	r3, [sp, #0]
 8001504:	3340      	adds	r3, #64	; 0x40
 8001506:	4a4f      	ldr	r2, [pc, #316]	; (8001644 <Show_Value_Screen+0x164>)
 8001508:	2100      	movs	r1, #0
 800150a:	2000      	movs	r0, #0
 800150c:	f7ff fb1e 	bl	8000b4c <SSD1306_DrawBitmap>
				break;
 8001510:	e016      	b.n	8001540 <Show_Value_Screen+0x60>
		switch (type)
 8001512:	2c03      	cmp	r4, #3
 8001514:	d114      	bne.n	8001540 <Show_Value_Screen+0x60>
			case VAL_TYPE_WINDING_SPEED: SSD1306_DrawBitmap(0, 0, IMG_SPEED, 128, 64, 1);
 8001516:	2301      	movs	r3, #1
 8001518:	9301      	str	r3, [sp, #4]
 800151a:	333f      	adds	r3, #63	; 0x3f
 800151c:	9300      	str	r3, [sp, #0]
 800151e:	3340      	adds	r3, #64	; 0x40
 8001520:	4a49      	ldr	r2, [pc, #292]	; (8001648 <Show_Value_Screen+0x168>)
 8001522:	2100      	movs	r1, #0
 8001524:	2000      	movs	r0, #0
 8001526:	f7ff fb11 	bl	8000b4c <SSD1306_DrawBitmap>
				break;
 800152a:	e009      	b.n	8001540 <Show_Value_Screen+0x60>
			case VAL_TYPE_CARCASS_WIDTH: SSD1306_DrawBitmap(0, 0, IMG_WIDTH, 128, 64, 1);
 800152c:	2301      	movs	r3, #1
 800152e:	9301      	str	r3, [sp, #4]
 8001530:	333f      	adds	r3, #63	; 0x3f
 8001532:	9300      	str	r3, [sp, #0]
 8001534:	3340      	adds	r3, #64	; 0x40
 8001536:	4a45      	ldr	r2, [pc, #276]	; (800164c <Show_Value_Screen+0x16c>)
 8001538:	2100      	movs	r1, #0
 800153a:	2000      	movs	r0, #0
 800153c:	f7ff fb06 	bl	8000b4c <SSD1306_DrawBitmap>
		if (runCount == RUN_FLAG_FIRST) Int_To_Array_Change_Value(Settings[type].minValue);
 8001540:	2d01      	cmp	r5, #1
 8001542:	d027      	beq.n	8001594 <Show_Value_Screen+0xb4>
		else if (runCount == RUN_FLAG_EDIT) Int_To_Array_Change_Value(Settings[type].setValue);
 8001544:	2d02      	cmp	r5, #2
 8001546:	d02b      	beq.n	80015a0 <Show_Value_Screen+0xc0>
	Set_Marker_Position(Settings[type].dotPosition);
 8001548:	00e2      	lsls	r2, r4, #3
 800154a:	4b41      	ldr	r3, [pc, #260]	; (8001650 <Show_Value_Screen+0x170>)
 800154c:	189b      	adds	r3, r3, r2
 800154e:	79d8      	ldrb	r0, [r3, #7]
 8001550:	f7ff ffa0 	bl	8001494 <Set_Marker_Position>
	switch (type)
 8001554:	2c02      	cmp	r4, #2
 8001556:	d065      	beq.n	8001624 <Show_Value_Screen+0x144>
 8001558:	d83c      	bhi.n	80015d4 <Show_Value_Screen+0xf4>
 800155a:	2c00      	cmp	r4, #0
 800155c:	d044      	beq.n	80015e8 <Show_Value_Screen+0x108>
		case VAL_TYPE_CARCASS_COIL_TURNS: sprintf(valueLettering, "%i%i%i%izw.", arrayToken[3], arrayToken[2], arrayToken[1], arrayToken[0]);
 800155e:	493d      	ldr	r1, [pc, #244]	; (8001654 <Show_Value_Screen+0x174>)
 8001560:	78ca      	ldrb	r2, [r1, #3]
 8001562:	b252      	sxtb	r2, r2
 8001564:	788b      	ldrb	r3, [r1, #2]
 8001566:	b25b      	sxtb	r3, r3
 8001568:	7848      	ldrb	r0, [r1, #1]
 800156a:	b240      	sxtb	r0, r0
 800156c:	7809      	ldrb	r1, [r1, #0]
 800156e:	b249      	sxtb	r1, r1
 8001570:	9101      	str	r1, [sp, #4]
 8001572:	9000      	str	r0, [sp, #0]
 8001574:	4938      	ldr	r1, [pc, #224]	; (8001658 <Show_Value_Screen+0x178>)
 8001576:	a803      	add	r0, sp, #12
 8001578:	f003 f9d8 	bl	800492c <siprintf>
			break;
 800157c:	e043      	b.n	8001606 <Show_Value_Screen+0x126>
			case VAL_TYPE_WINDING_DIAMETER: SSD1306_DrawBitmap(0, 0, IMG_DIAMETER, 128, 64, 1);
 800157e:	2301      	movs	r3, #1
 8001580:	9301      	str	r3, [sp, #4]
 8001582:	333f      	adds	r3, #63	; 0x3f
 8001584:	9300      	str	r3, [sp, #0]
 8001586:	3340      	adds	r3, #64	; 0x40
 8001588:	4a34      	ldr	r2, [pc, #208]	; (800165c <Show_Value_Screen+0x17c>)
 800158a:	2100      	movs	r1, #0
 800158c:	2000      	movs	r0, #0
 800158e:	f7ff fadd 	bl	8000b4c <SSD1306_DrawBitmap>
				break;
 8001592:	e7d5      	b.n	8001540 <Show_Value_Screen+0x60>
		if (runCount == RUN_FLAG_FIRST) Int_To_Array_Change_Value(Settings[type].minValue);
 8001594:	00e3      	lsls	r3, r4, #3
 8001596:	4a2e      	ldr	r2, [pc, #184]	; (8001650 <Show_Value_Screen+0x170>)
 8001598:	5a98      	ldrh	r0, [r3, r2]
 800159a:	f7ff fec5 	bl	8001328 <Int_To_Array_Change_Value>
 800159e:	e7d3      	b.n	8001548 <Show_Value_Screen+0x68>
		else if (runCount == RUN_FLAG_EDIT) Int_To_Array_Change_Value(Settings[type].setValue);
 80015a0:	00e2      	lsls	r2, r4, #3
 80015a2:	4b2b      	ldr	r3, [pc, #172]	; (8001650 <Show_Value_Screen+0x170>)
 80015a4:	189b      	adds	r3, r3, r2
 80015a6:	8858      	ldrh	r0, [r3, #2]
 80015a8:	f7ff febe 	bl	8001328 <Int_To_Array_Change_Value>
 80015ac:	e7cc      	b.n	8001548 <Show_Value_Screen+0x68>
		if (runMode) Change_Value(direction, markerPosition, Settings[type].minValue, Settings[type].maxValue);
 80015ae:	2900      	cmp	r1, #0
 80015b0:	d009      	beq.n	80015c6 <Show_Value_Screen+0xe6>
 80015b2:	4a27      	ldr	r2, [pc, #156]	; (8001650 <Show_Value_Screen+0x170>)
 80015b4:	00e1      	lsls	r1, r4, #3
 80015b6:	1853      	adds	r3, r2, r1
 80015b8:	889b      	ldrh	r3, [r3, #4]
 80015ba:	5a8a      	ldrh	r2, [r1, r2]
 80015bc:	4920      	ldr	r1, [pc, #128]	; (8001640 <Show_Value_Screen+0x160>)
 80015be:	7809      	ldrb	r1, [r1, #0]
 80015c0:	f7ff feea 	bl	8001398 <Change_Value>
 80015c4:	e7c0      	b.n	8001548 <Show_Value_Screen+0x68>
		else Move_Marker(Settings[type].digitsCount);
 80015c6:	00e2      	lsls	r2, r4, #3
 80015c8:	4b21      	ldr	r3, [pc, #132]	; (8001650 <Show_Value_Screen+0x170>)
 80015ca:	189b      	adds	r3, r3, r2
 80015cc:	7998      	ldrb	r0, [r3, #6]
 80015ce:	f7ff fe71 	bl	80012b4 <Move_Marker>
 80015d2:	e7b9      	b.n	8001548 <Show_Value_Screen+0x68>
	switch (type)
 80015d4:	2c03      	cmp	r4, #3
 80015d6:	d116      	bne.n	8001606 <Show_Value_Screen+0x126>
		case VAL_TYPE_WINDING_SPEED: sprintf(valueLettering, "   %i", arrayToken[0]);
 80015d8:	4b1e      	ldr	r3, [pc, #120]	; (8001654 <Show_Value_Screen+0x174>)
 80015da:	781a      	ldrb	r2, [r3, #0]
 80015dc:	b252      	sxtb	r2, r2
 80015de:	4920      	ldr	r1, [pc, #128]	; (8001660 <Show_Value_Screen+0x180>)
 80015e0:	a803      	add	r0, sp, #12
 80015e2:	f003 f9a3 	bl	800492c <siprintf>
			break;
 80015e6:	e00e      	b.n	8001606 <Show_Value_Screen+0x126>
		case VAL_TYPE_CARCASS_WIDTH: sprintf(valueLettering, "%i%i%i.%imm", arrayToken[3], arrayToken[2], arrayToken[1], arrayToken[0]);
 80015e8:	491a      	ldr	r1, [pc, #104]	; (8001654 <Show_Value_Screen+0x174>)
 80015ea:	78ca      	ldrb	r2, [r1, #3]
 80015ec:	b252      	sxtb	r2, r2
 80015ee:	788b      	ldrb	r3, [r1, #2]
 80015f0:	b25b      	sxtb	r3, r3
 80015f2:	7848      	ldrb	r0, [r1, #1]
 80015f4:	b240      	sxtb	r0, r0
 80015f6:	7809      	ldrb	r1, [r1, #0]
 80015f8:	b249      	sxtb	r1, r1
 80015fa:	9101      	str	r1, [sp, #4]
 80015fc:	9000      	str	r0, [sp, #0]
 80015fe:	4919      	ldr	r1, [pc, #100]	; (8001664 <Show_Value_Screen+0x184>)
 8001600:	a803      	add	r0, sp, #12
 8001602:	f003 f993 	bl	800492c <siprintf>
	Clear_Value();
 8001606:	f7ff ff5f 	bl	80014c8 <Clear_Value>
	SSD1306_GotoXY(25, 20);
 800160a:	2114      	movs	r1, #20
 800160c:	2019      	movs	r0, #25
 800160e:	f7ff faf7 	bl	8000c00 <SSD1306_GotoXY>
	SSD1306_Puts(valueLettering, &Font_11x18, 1);
 8001612:	2201      	movs	r2, #1
 8001614:	4914      	ldr	r1, [pc, #80]	; (8001668 <Show_Value_Screen+0x188>)
 8001616:	a803      	add	r0, sp, #12
 8001618:	f7ff fb64 	bl	8000ce4 <SSD1306_Puts>
	SSD1306_UpdateScreen();
 800161c:	f7ff fcdc 	bl	8000fd8 <SSD1306_UpdateScreen>
}
 8001620:	b009      	add	sp, #36	; 0x24
 8001622:	bd30      	pop	{r4, r5, pc}
		case VAL_TYPE_WINDING_DIAMETER: sprintf(valueLettering, "~%i.%i%imm", arrayToken[2], arrayToken[1], arrayToken[0]);
 8001624:	490b      	ldr	r1, [pc, #44]	; (8001654 <Show_Value_Screen+0x174>)
 8001626:	788a      	ldrb	r2, [r1, #2]
 8001628:	b252      	sxtb	r2, r2
 800162a:	784b      	ldrb	r3, [r1, #1]
 800162c:	b25b      	sxtb	r3, r3
 800162e:	7809      	ldrb	r1, [r1, #0]
 8001630:	b249      	sxtb	r1, r1
 8001632:	9100      	str	r1, [sp, #0]
 8001634:	490d      	ldr	r1, [pc, #52]	; (800166c <Show_Value_Screen+0x18c>)
 8001636:	a803      	add	r0, sp, #12
 8001638:	f003 f978 	bl	800492c <siprintf>
			break;
 800163c:	e7e3      	b.n	8001606 <Show_Value_Screen+0x126>
 800163e:	46c0      	nop			; (mov r8, r8)
 8001640:	20000639 	.word	0x20000639
 8001644:	08006170 	.word	0x08006170
 8001648:	08005d70 	.word	0x08005d70
 800164c:	08006570 	.word	0x08006570
 8001650:	20000610 	.word	0x20000610
 8001654:	20000630 	.word	0x20000630
 8001658:	080052b4 	.word	0x080052b4
 800165c:	08005570 	.word	0x08005570
 8001660:	080052cc 	.word	0x080052cc
 8001664:	080052a8 	.word	0x080052a8
 8001668:	20000004 	.word	0x20000004
 800166c:	080052c0 	.word	0x080052c0

08001670 <Show_Summary>:

// summary - 6
// -------------------------------------------------------------------------------------
void Show_Summary(void)
{
 8001670:	b5f0      	push	{r4, r5, r6, r7, lr}
 8001672:	b091      	sub	sp, #68	; 0x44
	char width[10], turns[12],diameter[15], speed[10];
	uint8_t diameterArr[4];
	uint16_t expo = 0;

	for (uint8_t i = 0; i <= 3; i++)
 8001674:	ad02      	add	r5, sp, #8
{
 8001676:	2401      	movs	r4, #1
	uint16_t expo = 0;
 8001678:	2700      	movs	r7, #0
	{
		if (!i) expo = 1;
 800167a:	2601      	movs	r6, #1
 800167c:	e00a      	b.n	8001694 <Show_Summary+0x24>
		else expo *= 10;
		diameterArr[i] = (g_diameter_MAIN / expo) % 10;
 800167e:	4b49      	ldr	r3, [pc, #292]	; (80017a4 <Show_Summary+0x134>)
 8001680:	8818      	ldrh	r0, [r3, #0]
 8001682:	b280      	uxth	r0, r0
 8001684:	210a      	movs	r1, #10
 8001686:	f7fe fdcf 	bl	8000228 <__aeabi_uidivmod>
 800168a:	7029      	strb	r1, [r5, #0]
		if (!i) expo = 1;
 800168c:	0037      	movs	r7, r6
 800168e:	3401      	adds	r4, #1
 8001690:	b2e4      	uxtb	r4, r4
 8001692:	3501      	adds	r5, #1
 8001694:	2c01      	cmp	r4, #1
 8001696:	d0f2      	beq.n	800167e <Show_Summary+0xe>
		else expo *= 10;
 8001698:	00b9      	lsls	r1, r7, #2
 800169a:	1879      	adds	r1, r7, r1
 800169c:	0049      	lsls	r1, r1, #1
 800169e:	b28f      	uxth	r7, r1
		diameterArr[i] = (g_diameter_MAIN / expo) % 10;
 80016a0:	4b40      	ldr	r3, [pc, #256]	; (80017a4 <Show_Summary+0x134>)
 80016a2:	8818      	ldrh	r0, [r3, #0]
 80016a4:	b280      	uxth	r0, r0
 80016a6:	0039      	movs	r1, r7
 80016a8:	f7fe fd38 	bl	800011c <__udivsi3>
 80016ac:	b280      	uxth	r0, r0
 80016ae:	210a      	movs	r1, #10
 80016b0:	f7fe fdba 	bl	8000228 <__aeabi_uidivmod>
 80016b4:	7029      	strb	r1, [r5, #0]
	for (uint8_t i = 0; i <= 3; i++)
 80016b6:	2c03      	cmp	r4, #3
 80016b8:	d9e9      	bls.n	800168e <Show_Summary+0x1e>
	}
	sprintf(width, "%i.%i mm", g_width_MAIN / 10, g_width_MAIN % 10);
 80016ba:	4b3b      	ldr	r3, [pc, #236]	; (80017a8 <Show_Summary+0x138>)
 80016bc:	881d      	ldrh	r5, [r3, #0]
 80016be:	b2ad      	uxth	r5, r5
 80016c0:	8818      	ldrh	r0, [r3, #0]
 80016c2:	b280      	uxth	r0, r0
 80016c4:	210a      	movs	r1, #10
 80016c6:	f7fe fdaf 	bl	8000228 <__aeabi_uidivmod>
 80016ca:	b28c      	uxth	r4, r1
 80016cc:	210a      	movs	r1, #10
 80016ce:	0028      	movs	r0, r5
 80016d0:	f7fe fd24 	bl	800011c <__udivsi3>
 80016d4:	b282      	uxth	r2, r0
 80016d6:	0023      	movs	r3, r4
 80016d8:	4934      	ldr	r1, [pc, #208]	; (80017ac <Show_Summary+0x13c>)
 80016da:	a80d      	add	r0, sp, #52	; 0x34
 80016dc:	f003 f926 	bl	800492c <siprintf>
	sprintf(turns, " %i zw.", g_turns_MAIN);
 80016e0:	4b33      	ldr	r3, [pc, #204]	; (80017b0 <Show_Summary+0x140>)
 80016e2:	881a      	ldrh	r2, [r3, #0]
 80016e4:	b292      	uxth	r2, r2
 80016e6:	4933      	ldr	r1, [pc, #204]	; (80017b4 <Show_Summary+0x144>)
 80016e8:	a80a      	add	r0, sp, #40	; 0x28
 80016ea:	f003 f91f 	bl	800492c <siprintf>
	sprintf(diameter, " %i.%i%i mm", diameterArr[2], diameterArr[1], diameterArr[0]);
 80016ee:	a902      	add	r1, sp, #8
 80016f0:	784b      	ldrb	r3, [r1, #1]
 80016f2:	788a      	ldrb	r2, [r1, #2]
 80016f4:	7809      	ldrb	r1, [r1, #0]
 80016f6:	9100      	str	r1, [sp, #0]
 80016f8:	492f      	ldr	r1, [pc, #188]	; (80017b8 <Show_Summary+0x148>)
 80016fa:	a806      	add	r0, sp, #24
 80016fc:	f003 f916 	bl	800492c <siprintf>
	sprintf(speed, " %i", g_speed_MAIN);
 8001700:	4b2e      	ldr	r3, [pc, #184]	; (80017bc <Show_Summary+0x14c>)
 8001702:	881a      	ldrh	r2, [r3, #0]
 8001704:	b292      	uxth	r2, r2
 8001706:	492e      	ldr	r1, [pc, #184]	; (80017c0 <Show_Summary+0x150>)
 8001708:	a803      	add	r0, sp, #12
 800170a:	f003 f90f 	bl	800492c <siprintf>
	SSD1306_GotoXY(0, 20);
 800170e:	2114      	movs	r1, #20
 8001710:	2000      	movs	r0, #0
 8001712:	f7ff fa75 	bl	8000c00 <SSD1306_GotoXY>
	SSD1306_Puts(DISP_DETAIL_WIDTH_LABEL, &Font_7x10, 1);
 8001716:	4c2b      	ldr	r4, [pc, #172]	; (80017c4 <Show_Summary+0x154>)
 8001718:	2201      	movs	r2, #1
 800171a:	0021      	movs	r1, r4
 800171c:	482a      	ldr	r0, [pc, #168]	; (80017c8 <Show_Summary+0x158>)
 800171e:	f7ff fae1 	bl	8000ce4 <SSD1306_Puts>
	SSD1306_GotoXY(70, 20);
 8001722:	2114      	movs	r1, #20
 8001724:	2046      	movs	r0, #70	; 0x46
 8001726:	f7ff fa6b 	bl	8000c00 <SSD1306_GotoXY>
	SSD1306_Puts(width, &Font_7x10, 1);
 800172a:	2201      	movs	r2, #1
 800172c:	0021      	movs	r1, r4
 800172e:	a80d      	add	r0, sp, #52	; 0x34
 8001730:	f7ff fad8 	bl	8000ce4 <SSD1306_Puts>
	SSD1306_GotoXY(0, 31);
 8001734:	211f      	movs	r1, #31
 8001736:	2000      	movs	r0, #0
 8001738:	f7ff fa62 	bl	8000c00 <SSD1306_GotoXY>
	SSD1306_Puts(DISP_DETAIL_TURNS_LABEL, &Font_7x10, 1);
 800173c:	2201      	movs	r2, #1
 800173e:	0021      	movs	r1, r4
 8001740:	4822      	ldr	r0, [pc, #136]	; (80017cc <Show_Summary+0x15c>)
 8001742:	f7ff facf 	bl	8000ce4 <SSD1306_Puts>
	SSD1306_GotoXY(42, 31);
 8001746:	211f      	movs	r1, #31
 8001748:	202a      	movs	r0, #42	; 0x2a
 800174a:	f7ff fa59 	bl	8000c00 <SSD1306_GotoXY>
	SSD1306_Puts(turns, &Font_7x10, 1);
 800174e:	2201      	movs	r2, #1
 8001750:	0021      	movs	r1, r4
 8001752:	a80a      	add	r0, sp, #40	; 0x28
 8001754:	f7ff fac6 	bl	8000ce4 <SSD1306_Puts>
	SSD1306_GotoXY(0, 42);
 8001758:	212a      	movs	r1, #42	; 0x2a
 800175a:	2000      	movs	r0, #0
 800175c:	f7ff fa50 	bl	8000c00 <SSD1306_GotoXY>
	SSD1306_Puts(DISP_DETAIL_DIAMETER_LABEL, &Font_7x10, 1);
 8001760:	2201      	movs	r2, #1
 8001762:	0021      	movs	r1, r4
 8001764:	481a      	ldr	r0, [pc, #104]	; (80017d0 <Show_Summary+0x160>)
 8001766:	f7ff fabd 	bl	8000ce4 <SSD1306_Puts>
	SSD1306_GotoXY(63, 42);
 800176a:	212a      	movs	r1, #42	; 0x2a
 800176c:	203f      	movs	r0, #63	; 0x3f
 800176e:	f7ff fa47 	bl	8000c00 <SSD1306_GotoXY>
	SSD1306_Puts(diameter, &Font_7x10, 1);
 8001772:	2201      	movs	r2, #1
 8001774:	0021      	movs	r1, r4
 8001776:	a806      	add	r0, sp, #24
 8001778:	f7ff fab4 	bl	8000ce4 <SSD1306_Puts>
	SSD1306_GotoXY(0, 53);
 800177c:	2135      	movs	r1, #53	; 0x35
 800177e:	2000      	movs	r0, #0
 8001780:	f7ff fa3e 	bl	8000c00 <SSD1306_GotoXY>
	SSD1306_Puts(DISP_DETAIL_SPEED_LABEL, &Font_7x10, 1);
 8001784:	2201      	movs	r2, #1
 8001786:	0021      	movs	r1, r4
 8001788:	4812      	ldr	r0, [pc, #72]	; (80017d4 <Show_Summary+0x164>)
 800178a:	f7ff faab 	bl	8000ce4 <SSD1306_Puts>
	SSD1306_GotoXY(63, 53);
 800178e:	2135      	movs	r1, #53	; 0x35
 8001790:	203f      	movs	r0, #63	; 0x3f
 8001792:	f7ff fa35 	bl	8000c00 <SSD1306_GotoXY>
	SSD1306_Puts(speed, &Font_7x10, 1);
 8001796:	2201      	movs	r2, #1
 8001798:	0021      	movs	r1, r4
 800179a:	a803      	add	r0, sp, #12
 800179c:	f7ff faa2 	bl	8000ce4 <SSD1306_Puts>
}
 80017a0:	b011      	add	sp, #68	; 0x44
 80017a2:	bdf0      	pop	{r4, r5, r6, r7, pc}
 80017a4:	200000ee 	.word	0x200000ee
 80017a8:	200000f4 	.word	0x200000f4
 80017ac:	080052d4 	.word	0x080052d4
 80017b0:	200000f2 	.word	0x200000f2
 80017b4:	080052e0 	.word	0x080052e0
 80017b8:	080052e8 	.word	0x080052e8
 80017bc:	200000f0 	.word	0x200000f0
 80017c0:	080052f4 	.word	0x080052f4
 80017c4:	2000000c 	.word	0x2000000c
 80017c8:	080052f8 	.word	0x080052f8
 80017cc:	08005290 	.word	0x08005290
 80017d0:	0800529c 	.word	0x0800529c
 80017d4:	08005304 	.word	0x08005304

080017d8 <Show_Select_Boxes>:
	SSD1306_Puts(DISP_TEXT_CORRECT, &Font_7x10, color);
	if (runCount == RUN_FLAG_CONTI) SSD1306_UpdateScreen();
}

bool Show_Select_Boxes(uint8_t margin, uint8_t pointer)
{
 80017d8:	b500      	push	{lr}
 80017da:	b083      	sub	sp, #12
	pointer += 3;
 80017dc:	3103      	adds	r1, #3
 80017de:	b2c9      	uxtb	r1, r1
	if (margin == ALIGN_LEFT)
 80017e0:	2805      	cmp	r0, #5
 80017e2:	d00c      	beq.n	80017fe <Show_Select_Boxes+0x26>
			return 1;
		}
	}
	else
	{
		if (pointer % 2)
 80017e4:	07cb      	lsls	r3, r1, #31
 80017e6:	d51f      	bpl.n	8001828 <Show_Select_Boxes+0x50>
		{

			SSD1306_DrawRectangle(margin, 25, 56, 47, 1);
 80017e8:	b280      	uxth	r0, r0
 80017ea:	2301      	movs	r3, #1
 80017ec:	9300      	str	r3, [sp, #0]
 80017ee:	332e      	adds	r3, #46	; 0x2e
 80017f0:	2238      	movs	r2, #56	; 0x38
 80017f2:	2119      	movs	r1, #25
 80017f4:	f7ff fb49 	bl	8000e8a <SSD1306_DrawRectangle>
			return 1;
 80017f8:	2001      	movs	r0, #1
		{
			SSD1306_DrawFilledRectangle(margin, 25, 56, 47, 1);
			return 0;
		}
	}
}
 80017fa:	b003      	add	sp, #12
 80017fc:	bd00      	pop	{pc}
		if ((pointer) % 2)
 80017fe:	07cb      	lsls	r3, r1, #31
 8001800:	d508      	bpl.n	8001814 <Show_Select_Boxes+0x3c>
			SSD1306_DrawFilledRectangle(margin, 25, 56, 47, 1);
 8001802:	2301      	movs	r3, #1
 8001804:	9300      	str	r3, [sp, #0]
 8001806:	332e      	adds	r3, #46	; 0x2e
 8001808:	2238      	movs	r2, #56	; 0x38
 800180a:	2119      	movs	r1, #25
 800180c:	f7ff fb7f 	bl	8000f0e <SSD1306_DrawFilledRectangle>
			return 0;
 8001810:	2000      	movs	r0, #0
 8001812:	e7f2      	b.n	80017fa <Show_Select_Boxes+0x22>
			SSD1306_DrawRectangle(margin, 25, 56, 47, 1);
 8001814:	2301      	movs	r3, #1
 8001816:	9300      	str	r3, [sp, #0]
 8001818:	332e      	adds	r3, #46	; 0x2e
 800181a:	2238      	movs	r2, #56	; 0x38
 800181c:	2119      	movs	r1, #25
 800181e:	2005      	movs	r0, #5
 8001820:	f7ff fb33 	bl	8000e8a <SSD1306_DrawRectangle>
			return 1;
 8001824:	2001      	movs	r0, #1
 8001826:	e7e8      	b.n	80017fa <Show_Select_Boxes+0x22>
			SSD1306_DrawFilledRectangle(margin, 25, 56, 47, 1);
 8001828:	b280      	uxth	r0, r0
 800182a:	2301      	movs	r3, #1
 800182c:	9300      	str	r3, [sp, #0]
 800182e:	332e      	adds	r3, #46	; 0x2e
 8001830:	2238      	movs	r2, #56	; 0x38
 8001832:	2119      	movs	r1, #25
 8001834:	f7ff fb6b 	bl	8000f0e <SSD1306_DrawFilledRectangle>
			return 0;
 8001838:	2000      	movs	r0, #0
 800183a:	e7de      	b.n	80017fa <Show_Select_Boxes+0x22>

0800183c <Show_Project_Elements>:
{
 800183c:	b5f8      	push	{r3, r4, r5, r6, r7, lr}
 800183e:	0006      	movs	r6, r0
 8001840:	000c      	movs	r4, r1
	color = Show_Select_Boxes(margin, g_projectSelect);
 8001842:	4b13      	ldr	r3, [pc, #76]	; (8001890 <Show_Project_Elements+0x54>)
 8001844:	7819      	ldrb	r1, [r3, #0]
 8001846:	b2c9      	uxtb	r1, r1
 8001848:	0020      	movs	r0, r4
 800184a:	f7ff ffc5 	bl	80017d8 <Show_Select_Boxes>
 800184e:	0005      	movs	r5, r0
	margin += 4;
 8001850:	3404      	adds	r4, #4
	SSD1306_GotoXY(margin, 29);
 8001852:	b2e4      	uxtb	r4, r4
 8001854:	211d      	movs	r1, #29
 8001856:	0020      	movs	r0, r4
 8001858:	f7ff f9d2 	bl	8000c00 <SSD1306_GotoXY>
	SSD1306_Puts(details->shortName, &Font_7x10, color);
 800185c:	4f0d      	ldr	r7, [pc, #52]	; (8001894 <Show_Project_Elements+0x58>)
 800185e:	002a      	movs	r2, r5
 8001860:	0039      	movs	r1, r7
 8001862:	6870      	ldr	r0, [r6, #4]
 8001864:	f7ff fa3e 	bl	8000ce4 <SSD1306_Puts>
	SSD1306_GotoXY(margin, 40);
 8001868:	2128      	movs	r1, #40	; 0x28
 800186a:	0020      	movs	r0, r4
 800186c:	f7ff f9c8 	bl	8000c00 <SSD1306_GotoXY>
	SSD1306_Puts(details->descShort_1, &Font_7x10, color);
 8001870:	002a      	movs	r2, r5
 8001872:	0039      	movs	r1, r7
 8001874:	68b0      	ldr	r0, [r6, #8]
 8001876:	f7ff fa35 	bl	8000ce4 <SSD1306_Puts>
	SSD1306_GotoXY(margin, 51);
 800187a:	2133      	movs	r1, #51	; 0x33
 800187c:	0020      	movs	r0, r4
 800187e:	f7ff f9bf 	bl	8000c00 <SSD1306_GotoXY>
	SSD1306_Puts(details->descShort_2, &Font_7x10, color);
 8001882:	68f0      	ldr	r0, [r6, #12]
 8001884:	002a      	movs	r2, r5
 8001886:	0039      	movs	r1, r7
 8001888:	f7ff fa2c 	bl	8000ce4 <SSD1306_Puts>
}
 800188c:	bdf8      	pop	{r3, r4, r5, r6, r7, pc}
 800188e:	46c0      	nop			; (mov r8, r8)
 8001890:	20000635 	.word	0x20000635
 8001894:	2000000c 	.word	0x2000000c

08001898 <Show_Project_Select_Menu>:
{
 8001898:	b570      	push	{r4, r5, r6, lr}
 800189a:	b092      	sub	sp, #72	; 0x48
	uint8_t renderingBlock 	= g_projectSelect - 1;
 800189c:	4b25      	ldr	r3, [pc, #148]	; (8001934 <Show_Project_Select_Menu+0x9c>)
 800189e:	781c      	ldrb	r4, [r3, #0]
 80018a0:	b2e4      	uxtb	r4, r4
	if (g_projectSelect < 2)
 80018a2:	781b      	ldrb	r3, [r3, #0]
 80018a4:	b2db      	uxtb	r3, r3
 80018a6:	2b01      	cmp	r3, #1
 80018a8:	d903      	bls.n	80018b2 <Show_Project_Select_Menu+0x1a>
	uint8_t renderingBlock 	= g_projectSelect - 1;
 80018aa:	3c01      	subs	r4, #1
 80018ac:	b2e4      	uxtb	r4, r4
 80018ae:	2501      	movs	r5, #1
 80018b0:	e021      	b.n	80018f6 <Show_Project_Select_Menu+0x5e>
		New_Task_Element();
 80018b2:	f7ff fc7d 	bl	80011b0 <New_Task_Element>
		ProjectManager ProjectToken = Details[0];
 80018b6:	2244      	movs	r2, #68	; 0x44
 80018b8:	491f      	ldr	r1, [pc, #124]	; (8001938 <Show_Project_Select_Menu+0xa0>)
 80018ba:	a801      	add	r0, sp, #4
 80018bc:	f003 f824 	bl	8004908 <memcpy>
		Show_Project_Elements(&ProjectToken, 68);
 80018c0:	2144      	movs	r1, #68	; 0x44
 80018c2:	a801      	add	r0, sp, #4
 80018c4:	f7ff ffba 	bl	800183c <Show_Project_Elements>
 80018c8:	e02e      	b.n	8001928 <Show_Project_Select_Menu+0x90>
				if (g_projectSelect % 2) leftMargin = ALIGN_RIGHT;
 80018ca:	4b1a      	ldr	r3, [pc, #104]	; (8001934 <Show_Project_Select_Menu+0x9c>)
 80018cc:	781b      	ldrb	r3, [r3, #0]
				else leftMargin = ALIGN_LEFT;
 80018ce:	07db      	lsls	r3, r3, #31
 80018d0:	17db      	asrs	r3, r3, #31
 80018d2:	263f      	movs	r6, #63	; 0x3f
 80018d4:	401e      	ands	r6, r3
 80018d6:	3605      	adds	r6, #5
				ProjectManager ProjectToken = Details[renderingBlock];
 80018d8:	0121      	lsls	r1, r4, #4
 80018da:	1909      	adds	r1, r1, r4
 80018dc:	0089      	lsls	r1, r1, #2
 80018de:	4b16      	ldr	r3, [pc, #88]	; (8001938 <Show_Project_Select_Menu+0xa0>)
 80018e0:	1859      	adds	r1, r3, r1
 80018e2:	2244      	movs	r2, #68	; 0x44
 80018e4:	a801      	add	r0, sp, #4
 80018e6:	f003 f80f 	bl	8004908 <memcpy>
				Show_Project_Elements(&ProjectToken, leftMargin);
 80018ea:	0031      	movs	r1, r6
 80018ec:	a801      	add	r0, sp, #4
 80018ee:	f7ff ffa5 	bl	800183c <Show_Project_Elements>
		while(renderingStep < 2)
 80018f2:	3501      	adds	r5, #1
 80018f4:	b2ed      	uxtb	r5, r5
			if (!renderingStep)
 80018f6:	2d01      	cmp	r5, #1
 80018f8:	d0e7      	beq.n	80018ca <Show_Project_Select_Menu+0x32>
				if (g_projectSelect % 2)
 80018fa:	4b0e      	ldr	r3, [pc, #56]	; (8001934 <Show_Project_Select_Menu+0x9c>)
 80018fc:	781b      	ldrb	r3, [r3, #0]
 80018fe:	07db      	lsls	r3, r3, #31
 8001900:	d514      	bpl.n	800192c <Show_Project_Select_Menu+0x94>
					renderingBlock--;
 8001902:	3c01      	subs	r4, #1
 8001904:	b2e4      	uxtb	r4, r4
					leftMargin = ALIGN_LEFT;
 8001906:	2605      	movs	r6, #5
				ProjectManager ProjectToken = Details[renderingBlock];
 8001908:	0121      	lsls	r1, r4, #4
 800190a:	1909      	adds	r1, r1, r4
 800190c:	0089      	lsls	r1, r1, #2
 800190e:	4b0a      	ldr	r3, [pc, #40]	; (8001938 <Show_Project_Select_Menu+0xa0>)
 8001910:	469c      	mov	ip, r3
 8001912:	4461      	add	r1, ip
 8001914:	2244      	movs	r2, #68	; 0x44
 8001916:	a801      	add	r0, sp, #4
 8001918:	f002 fff6 	bl	8004908 <memcpy>
				Show_Project_Elements(&ProjectToken, leftMargin);
 800191c:	0031      	movs	r1, r6
 800191e:	a801      	add	r0, sp, #4
 8001920:	f7ff ff8c 	bl	800183c <Show_Project_Elements>
		while(renderingStep < 2)
 8001924:	2d01      	cmp	r5, #1
 8001926:	d9e4      	bls.n	80018f2 <Show_Project_Select_Menu+0x5a>
}
 8001928:	b012      	add	sp, #72	; 0x48
 800192a:	bd70      	pop	{r4, r5, r6, pc}
					renderingBlock++;
 800192c:	3401      	adds	r4, #1
 800192e:	b2e4      	uxtb	r4, r4
					leftMargin = ALIGN_RIGHT;
 8001930:	2644      	movs	r6, #68	; 0x44
 8001932:	e7e9      	b.n	8001908 <Show_Project_Select_Menu+0x70>
 8001934:	20000635 	.word	0x20000635
 8001938:	20000500 	.word	0x20000500

0800193c <Show_Label_Bar>:

// uniwersalne
// -------------------------------------------------------------------------------------
void Show_Label_Bar(char* label)
{
 800193c:	b510      	push	{r4, lr}
 800193e:	b082      	sub	sp, #8
 8001940:	0004      	movs	r4, r0
	SSD1306_DrawFilledRectangle(0, 0, 128, 16, 1);
 8001942:	2301      	movs	r3, #1
 8001944:	9300      	str	r3, [sp, #0]
 8001946:	330f      	adds	r3, #15
 8001948:	2280      	movs	r2, #128	; 0x80
 800194a:	2100      	movs	r1, #0
 800194c:	2000      	movs	r0, #0
 800194e:	f7ff fade 	bl	8000f0e <SSD1306_DrawFilledRectangle>
	SSD1306_GotoXY(4, 4);
 8001952:	2104      	movs	r1, #4
 8001954:	2004      	movs	r0, #4
 8001956:	f7ff f953 	bl	8000c00 <SSD1306_GotoXY>
	SSD1306_Puts(label, &Font_7x10, 0);
 800195a:	2200      	movs	r2, #0
 800195c:	4902      	ldr	r1, [pc, #8]	; (8001968 <Show_Label_Bar+0x2c>)
 800195e:	0020      	movs	r0, r4
 8001960:	f7ff f9c0 	bl	8000ce4 <SSD1306_Puts>
}
 8001964:	b002      	add	sp, #8
 8001966:	bd10      	pop	{r4, pc}
 8001968:	2000000c 	.word	0x2000000c

0800196c <Show_Project_Details>:
{
 800196c:	b5f0      	push	{r4, r5, r6, r7, lr}
 800196e:	b085      	sub	sp, #20
 8001970:	0004      	movs	r4, r0
 8001972:	000d      	movs	r5, r1
	sprintf(width, "%i.%imm", details->width / 10, details->width % 10);
 8001974:	8b07      	ldrh	r7, [r0, #24]
 8001976:	210a      	movs	r1, #10
 8001978:	0038      	movs	r0, r7
 800197a:	f7fe fc55 	bl	8000228 <__aeabi_uidivmod>
 800197e:	b28e      	uxth	r6, r1
 8001980:	210a      	movs	r1, #10
 8001982:	0038      	movs	r0, r7
 8001984:	f7fe fbca 	bl	800011c <__udivsi3>
 8001988:	b282      	uxth	r2, r0
 800198a:	0033      	movs	r3, r6
 800198c:	4926      	ldr	r1, [pc, #152]	; (8001a28 <Show_Project_Details+0xbc>)
 800198e:	a801      	add	r0, sp, #4
 8001990:	f002 ffcc 	bl	800492c <siprintf>
	Show_Label_Bar(details->fullName);
 8001994:	6820      	ldr	r0, [r4, #0]
 8001996:	f7ff ffd1 	bl	800193c <Show_Label_Bar>
	SSD1306_GotoXY(0, 20);
 800199a:	2114      	movs	r1, #20
 800199c:	2000      	movs	r0, #0
 800199e:	f7ff f92f 	bl	8000c00 <SSD1306_GotoXY>
	SSD1306_Puts(DISP_DETAIL_WIDTH_LABEL, &Font_7x10, 1);
 80019a2:	4e22      	ldr	r6, [pc, #136]	; (8001a2c <Show_Project_Details+0xc0>)
 80019a4:	2201      	movs	r2, #1
 80019a6:	0031      	movs	r1, r6
 80019a8:	4821      	ldr	r0, [pc, #132]	; (8001a30 <Show_Project_Details+0xc4>)
 80019aa:	f7ff f99b 	bl	8000ce4 <SSD1306_Puts>
	SSD1306_GotoXY(70, 20);
 80019ae:	2114      	movs	r1, #20
 80019b0:	2046      	movs	r0, #70	; 0x46
 80019b2:	f7ff f925 	bl	8000c00 <SSD1306_GotoXY>
	SSD1306_Puts(width, &Font_7x10, 1);
 80019b6:	2201      	movs	r2, #1
 80019b8:	0031      	movs	r1, r6
 80019ba:	a801      	add	r0, sp, #4
 80019bc:	f7ff f992 	bl	8000ce4 <SSD1306_Puts>
	if (!list)
 80019c0:	2d00      	cmp	r5, #0
 80019c2:	d12c      	bne.n	8001a1e <Show_Project_Details+0xb2>
		SSD1306_GotoXY(0, 31);
 80019c4:	211f      	movs	r1, #31
 80019c6:	2000      	movs	r0, #0
 80019c8:	f7ff f91a 	bl	8000c00 <SSD1306_GotoXY>
		SSD1306_Puts(DISP_DETAIL_TASK_COUNT_LABEL, &Font_7x10, 1);
 80019cc:	4d17      	ldr	r5, [pc, #92]	; (8001a2c <Show_Project_Details+0xc0>)
 80019ce:	2201      	movs	r2, #1
 80019d0:	0029      	movs	r1, r5
 80019d2:	4818      	ldr	r0, [pc, #96]	; (8001a34 <Show_Project_Details+0xc8>)
 80019d4:	f7ff f986 	bl	8000ce4 <SSD1306_Puts>
		SSD1306_GotoXY(70, 31);
 80019d8:	211f      	movs	r1, #31
 80019da:	2046      	movs	r0, #70	; 0x46
 80019dc:	f7ff f910 	bl	8000c00 <SSD1306_GotoXY>
		uint8_t count = details->taskCount;
 80019e0:	2342      	movs	r3, #66	; 0x42
		sprintf(width, "%i", count);
 80019e2:	5ce2      	ldrb	r2, [r4, r3]
 80019e4:	4914      	ldr	r1, [pc, #80]	; (8001a38 <Show_Project_Details+0xcc>)
 80019e6:	a801      	add	r0, sp, #4
 80019e8:	f002 ffa0 	bl	800492c <siprintf>
		SSD1306_Puts(width, &Font_7x10, 1);
 80019ec:	2201      	movs	r2, #1
 80019ee:	0029      	movs	r1, r5
 80019f0:	a801      	add	r0, sp, #4
 80019f2:	f7ff f977 	bl	8000ce4 <SSD1306_Puts>
		SSD1306_GotoXY(0, 42);
 80019f6:	212a      	movs	r1, #42	; 0x2a
 80019f8:	2000      	movs	r0, #0
 80019fa:	f7ff f901 	bl	8000c00 <SSD1306_GotoXY>
		SSD1306_Puts(details->descFull_1, &Font_7x10, 1);
 80019fe:	2201      	movs	r2, #1
 8001a00:	0029      	movs	r1, r5
 8001a02:	6920      	ldr	r0, [r4, #16]
 8001a04:	f7ff f96e 	bl	8000ce4 <SSD1306_Puts>
		SSD1306_GotoXY(0, 53);
 8001a08:	2135      	movs	r1, #53	; 0x35
 8001a0a:	2000      	movs	r0, #0
 8001a0c:	f7ff f8f8 	bl	8000c00 <SSD1306_GotoXY>
		SSD1306_Puts(details->descFull_2, &Font_7x10, 1);
 8001a10:	6960      	ldr	r0, [r4, #20]
 8001a12:	2201      	movs	r2, #1
 8001a14:	0029      	movs	r1, r5
 8001a16:	f7ff f965 	bl	8000ce4 <SSD1306_Puts>
}
 8001a1a:	b005      	add	sp, #20
 8001a1c:	bdf0      	pop	{r4, r5, r6, r7, pc}
	else Show_Project_Tasks(details);
 8001a1e:	0020      	movs	r0, r4
 8001a20:	f7ff fbfc 	bl	800121c <Show_Project_Tasks>
}
 8001a24:	e7f9      	b.n	8001a1a <Show_Project_Details+0xae>
 8001a26:	46c0      	nop			; (mov r8, r8)
 8001a28:	080052ac 	.word	0x080052ac
 8001a2c:	2000000c 	.word	0x2000000c
 8001a30:	080052f8 	.word	0x080052f8
 8001a34:	08005310 	.word	0x08005310
 8001a38:	08005298 	.word	0x08005298

08001a3c <Clear_Content>:


void Clear_Content(void)
{
 8001a3c:	b500      	push	{lr}
 8001a3e:	b083      	sub	sp, #12
	SSD1306_DrawFilledRectangle(0, 18, 128, 46, 0);
 8001a40:	2300      	movs	r3, #0
 8001a42:	9300      	str	r3, [sp, #0]
 8001a44:	332e      	adds	r3, #46	; 0x2e
 8001a46:	2280      	movs	r2, #128	; 0x80
 8001a48:	2112      	movs	r1, #18
 8001a4a:	2000      	movs	r0, #0
 8001a4c:	f7ff fa5f 	bl	8000f0e <SSD1306_DrawFilledRectangle>
}
 8001a50:	b003      	add	sp, #12
 8001a52:	bd00      	pop	{pc}

08001a54 <Show_Summary_Correctness_Query>:
{
 8001a54:	b5f8      	push	{r3, r4, r5, r6, r7, lr}
 8001a56:	0005      	movs	r5, r0
 8001a58:	000c      	movs	r4, r1
	Clear_Content();
 8001a5a:	f7ff ffef 	bl	8001a3c <Clear_Content>
	if (runCount == RUN_FLAG_CONTI)
 8001a5e:	2c00      	cmp	r4, #0
 8001a60:	d157      	bne.n	8001b12 <Show_Summary_Correctness_Query+0xbe>
		if (direction) g_selector++;
 8001a62:	2d00      	cmp	r5, #0
 8001a64:	d04f      	beq.n	8001b06 <Show_Summary_Correctness_Query+0xb2>
 8001a66:	4a45      	ldr	r2, [pc, #276]	; (8001b7c <Show_Summary_Correctness_Query+0x128>)
 8001a68:	7813      	ldrb	r3, [r2, #0]
 8001a6a:	3301      	adds	r3, #1
 8001a6c:	b2db      	uxtb	r3, r3
 8001a6e:	7013      	strb	r3, [r2, #0]
		if (g_selector > 1 && g_selector < 10) g_selector = 1;
 8001a70:	4b42      	ldr	r3, [pc, #264]	; (8001b7c <Show_Summary_Correctness_Query+0x128>)
 8001a72:	781b      	ldrb	r3, [r3, #0]
 8001a74:	b2db      	uxtb	r3, r3
 8001a76:	2b01      	cmp	r3, #1
 8001a78:	d907      	bls.n	8001a8a <Show_Summary_Correctness_Query+0x36>
 8001a7a:	4b40      	ldr	r3, [pc, #256]	; (8001b7c <Show_Summary_Correctness_Query+0x128>)
 8001a7c:	781b      	ldrb	r3, [r3, #0]
 8001a7e:	b2db      	uxtb	r3, r3
 8001a80:	2b09      	cmp	r3, #9
 8001a82:	d802      	bhi.n	8001a8a <Show_Summary_Correctness_Query+0x36>
 8001a84:	4b3d      	ldr	r3, [pc, #244]	; (8001b7c <Show_Summary_Correctness_Query+0x128>)
 8001a86:	2201      	movs	r2, #1
 8001a88:	701a      	strb	r2, [r3, #0]
		if (g_selector > 10) g_selector = 0;
 8001a8a:	4b3c      	ldr	r3, [pc, #240]	; (8001b7c <Show_Summary_Correctness_Query+0x128>)
 8001a8c:	781b      	ldrb	r3, [r3, #0]
 8001a8e:	b2db      	uxtb	r3, r3
 8001a90:	2b0a      	cmp	r3, #10
 8001a92:	d902      	bls.n	8001a9a <Show_Summary_Correctness_Query+0x46>
 8001a94:	4b39      	ldr	r3, [pc, #228]	; (8001b7c <Show_Summary_Correctness_Query+0x128>)
 8001a96:	2200      	movs	r2, #0
 8001a98:	701a      	strb	r2, [r3, #0]
	color = Show_Select_Boxes(ALIGN_LEFT, g_selector);
 8001a9a:	4f38      	ldr	r7, [pc, #224]	; (8001b7c <Show_Summary_Correctness_Query+0x128>)
 8001a9c:	7839      	ldrb	r1, [r7, #0]
 8001a9e:	b2c9      	uxtb	r1, r1
 8001aa0:	2005      	movs	r0, #5
 8001aa2:	f7ff fe99 	bl	80017d8 <Show_Select_Boxes>
 8001aa6:	0004      	movs	r4, r0
	SSD1306_GotoXY(18, 29);
 8001aa8:	211d      	movs	r1, #29
 8001aaa:	2012      	movs	r0, #18
 8001aac:	f7ff f8a8 	bl	8000c00 <SSD1306_GotoXY>
	SSD1306_Puts(DISP_TEXT_YES, &Font_11x18, color);
 8001ab0:	4e33      	ldr	r6, [pc, #204]	; (8001b80 <Show_Summary_Correctness_Query+0x12c>)
 8001ab2:	0022      	movs	r2, r4
 8001ab4:	0031      	movs	r1, r6
 8001ab6:	4833      	ldr	r0, [pc, #204]	; (8001b84 <Show_Summary_Correctness_Query+0x130>)
 8001ab8:	f7ff f914 	bl	8000ce4 <SSD1306_Puts>
	SSD1306_GotoXY(28, 50);
 8001abc:	2132      	movs	r1, #50	; 0x32
 8001abe:	201c      	movs	r0, #28
 8001ac0:	f7ff f89e 	bl	8000c00 <SSD1306_GotoXY>
	SSD1306_Puts(DISP_TEXT_OK, &Font_7x10, color);
 8001ac4:	4d30      	ldr	r5, [pc, #192]	; (8001b88 <Show_Summary_Correctness_Query+0x134>)
 8001ac6:	0022      	movs	r2, r4
 8001ac8:	0029      	movs	r1, r5
 8001aca:	4830      	ldr	r0, [pc, #192]	; (8001b8c <Show_Summary_Correctness_Query+0x138>)
 8001acc:	f7ff f90a 	bl	8000ce4 <SSD1306_Puts>
	color = Show_Select_Boxes(ALIGN_RIGHT, g_selector);
 8001ad0:	7839      	ldrb	r1, [r7, #0]
 8001ad2:	b2c9      	uxtb	r1, r1
 8001ad4:	2044      	movs	r0, #68	; 0x44
 8001ad6:	f7ff fe7f 	bl	80017d8 <Show_Select_Boxes>
 8001ada:	0004      	movs	r4, r0
	SSD1306_GotoXY(80, 29);
 8001adc:	211d      	movs	r1, #29
 8001ade:	2050      	movs	r0, #80	; 0x50
 8001ae0:	f7ff f88e 	bl	8000c00 <SSD1306_GotoXY>
	SSD1306_Puts(DISP_TEXT_NO, &Font_11x18, color);
 8001ae4:	0022      	movs	r2, r4
 8001ae6:	0031      	movs	r1, r6
 8001ae8:	4829      	ldr	r0, [pc, #164]	; (8001b90 <Show_Summary_Correctness_Query+0x13c>)
 8001aea:	f7ff f8fb 	bl	8000ce4 <SSD1306_Puts>
	SSD1306_GotoXY(76, 50);
 8001aee:	2132      	movs	r1, #50	; 0x32
 8001af0:	204c      	movs	r0, #76	; 0x4c
 8001af2:	f7ff f885 	bl	8000c00 <SSD1306_GotoXY>
	SSD1306_Puts(DISP_TEXT_CORRECT, &Font_7x10, color);
 8001af6:	0022      	movs	r2, r4
 8001af8:	0029      	movs	r1, r5
 8001afa:	4826      	ldr	r0, [pc, #152]	; (8001b94 <Show_Summary_Correctness_Query+0x140>)
 8001afc:	f7ff f8f2 	bl	8000ce4 <SSD1306_Puts>
	if (runCount == RUN_FLAG_CONTI) SSD1306_UpdateScreen();
 8001b00:	f7ff fa6a 	bl	8000fd8 <SSD1306_UpdateScreen>
 8001b04:	e038      	b.n	8001b78 <Show_Summary_Correctness_Query+0x124>
		else g_selector--;
 8001b06:	4a1d      	ldr	r2, [pc, #116]	; (8001b7c <Show_Summary_Correctness_Query+0x128>)
 8001b08:	7813      	ldrb	r3, [r2, #0]
 8001b0a:	3b01      	subs	r3, #1
 8001b0c:	b2db      	uxtb	r3, r3
 8001b0e:	7013      	strb	r3, [r2, #0]
 8001b10:	e7ae      	b.n	8001a70 <Show_Summary_Correctness_Query+0x1c>
	color = Show_Select_Boxes(ALIGN_LEFT, g_selector);
 8001b12:	4f1a      	ldr	r7, [pc, #104]	; (8001b7c <Show_Summary_Correctness_Query+0x128>)
 8001b14:	7839      	ldrb	r1, [r7, #0]
 8001b16:	b2c9      	uxtb	r1, r1
 8001b18:	2005      	movs	r0, #5
 8001b1a:	f7ff fe5d 	bl	80017d8 <Show_Select_Boxes>
 8001b1e:	0004      	movs	r4, r0
	SSD1306_GotoXY(18, 29);
 8001b20:	211d      	movs	r1, #29
 8001b22:	2012      	movs	r0, #18
 8001b24:	f7ff f86c 	bl	8000c00 <SSD1306_GotoXY>
	SSD1306_Puts(DISP_TEXT_YES, &Font_11x18, color);
 8001b28:	4e15      	ldr	r6, [pc, #84]	; (8001b80 <Show_Summary_Correctness_Query+0x12c>)
 8001b2a:	0022      	movs	r2, r4
 8001b2c:	0031      	movs	r1, r6
 8001b2e:	4815      	ldr	r0, [pc, #84]	; (8001b84 <Show_Summary_Correctness_Query+0x130>)
 8001b30:	f7ff f8d8 	bl	8000ce4 <SSD1306_Puts>
	SSD1306_GotoXY(28, 50);
 8001b34:	2132      	movs	r1, #50	; 0x32
 8001b36:	201c      	movs	r0, #28
 8001b38:	f7ff f862 	bl	8000c00 <SSD1306_GotoXY>
	SSD1306_Puts(DISP_TEXT_OK, &Font_7x10, color);
 8001b3c:	4d12      	ldr	r5, [pc, #72]	; (8001b88 <Show_Summary_Correctness_Query+0x134>)
 8001b3e:	0022      	movs	r2, r4
 8001b40:	0029      	movs	r1, r5
 8001b42:	4812      	ldr	r0, [pc, #72]	; (8001b8c <Show_Summary_Correctness_Query+0x138>)
 8001b44:	f7ff f8ce 	bl	8000ce4 <SSD1306_Puts>
	color = Show_Select_Boxes(ALIGN_RIGHT, g_selector);
 8001b48:	7839      	ldrb	r1, [r7, #0]
 8001b4a:	b2c9      	uxtb	r1, r1
 8001b4c:	2044      	movs	r0, #68	; 0x44
 8001b4e:	f7ff fe43 	bl	80017d8 <Show_Select_Boxes>
 8001b52:	0004      	movs	r4, r0
	SSD1306_GotoXY(80, 29);
 8001b54:	211d      	movs	r1, #29
 8001b56:	2050      	movs	r0, #80	; 0x50
 8001b58:	f7ff f852 	bl	8000c00 <SSD1306_GotoXY>
	SSD1306_Puts(DISP_TEXT_NO, &Font_11x18, color);
 8001b5c:	0022      	movs	r2, r4
 8001b5e:	0031      	movs	r1, r6
 8001b60:	480b      	ldr	r0, [pc, #44]	; (8001b90 <Show_Summary_Correctness_Query+0x13c>)
 8001b62:	f7ff f8bf 	bl	8000ce4 <SSD1306_Puts>
	SSD1306_GotoXY(76, 50);
 8001b66:	2132      	movs	r1, #50	; 0x32
 8001b68:	204c      	movs	r0, #76	; 0x4c
 8001b6a:	f7ff f849 	bl	8000c00 <SSD1306_GotoXY>
	SSD1306_Puts(DISP_TEXT_CORRECT, &Font_7x10, color);
 8001b6e:	0022      	movs	r2, r4
 8001b70:	0029      	movs	r1, r5
 8001b72:	4808      	ldr	r0, [pc, #32]	; (8001b94 <Show_Summary_Correctness_Query+0x140>)
 8001b74:	f7ff f8b6 	bl	8000ce4 <SSD1306_Puts>
}
 8001b78:	bdf8      	pop	{r3, r4, r5, r6, r7, pc}
 8001b7a:	46c0      	nop			; (mov r8, r8)
 8001b7c:	20000636 	.word	0x20000636
 8001b80:	20000004 	.word	0x20000004
 8001b84:	0800531c 	.word	0x0800531c
 8001b88:	2000000c 	.word	0x2000000c
 8001b8c:	08005320 	.word	0x08005320
 8001b90:	08005324 	.word	0x08005324
 8001b94:	08005328 	.word	0x08005328

08001b98 <Pagination_Bar>:

void Pagination_Bar(uint8_t pageBarWidth, uint8_t pageNo)
{
 8001b98:	b500      	push	{lr}
 8001b9a:	b083      	sub	sp, #12
	uint8_t pageBarMargin = pageBarWidth * pageNo;

	SSD1306_DrawFilledRectangle(pageBarMargin, 18, pageBarWidth, 3, 1);
 8001b9c:	b282      	uxth	r2, r0
	uint8_t pageBarMargin = pageBarWidth * pageNo;
 8001b9e:	4348      	muls	r0, r1
	SSD1306_DrawFilledRectangle(pageBarMargin, 18, pageBarWidth, 3, 1);
 8001ba0:	b2c0      	uxtb	r0, r0
 8001ba2:	2301      	movs	r3, #1
 8001ba4:	9300      	str	r3, [sp, #0]
 8001ba6:	3302      	adds	r3, #2
 8001ba8:	2112      	movs	r1, #18
 8001baa:	f7ff f9b0 	bl	8000f0e <SSD1306_DrawFilledRectangle>
}
 8001bae:	b003      	add	sp, #12
 8001bb0:	bd00      	pop	{pc}
	...

08001bb4 <Set_Theme>:
{
 8001bb4:	b500      	push	{lr}
 8001bb6:	b083      	sub	sp, #12
	Clear_Content();
 8001bb8:	f7ff ff40 	bl	8001a3c <Clear_Content>
	switch (g_workStep)
 8001bbc:	4b59      	ldr	r3, [pc, #356]	; (8001d24 <Set_Theme+0x170>)
 8001bbe:	781b      	ldrb	r3, [r3, #0]
 8001bc0:	b2db      	uxtb	r3, r3
 8001bc2:	2b3d      	cmp	r3, #61	; 0x3d
 8001bc4:	d81c      	bhi.n	8001c00 <Set_Theme+0x4c>
 8001bc6:	009b      	lsls	r3, r3, #2
 8001bc8:	4a57      	ldr	r2, [pc, #348]	; (8001d28 <Set_Theme+0x174>)
 8001bca:	58d3      	ldr	r3, [r2, r3]
 8001bcc:	469f      	mov	pc, r3
			SSD1306_DrawBitmap(0, 0, IMG_LOGO, 128, 64, 1);
 8001bce:	2301      	movs	r3, #1
 8001bd0:	9301      	str	r3, [sp, #4]
 8001bd2:	333f      	adds	r3, #63	; 0x3f
 8001bd4:	9300      	str	r3, [sp, #0]
 8001bd6:	3340      	adds	r3, #64	; 0x40
 8001bd8:	4a54      	ldr	r2, [pc, #336]	; (8001d2c <Set_Theme+0x178>)
 8001bda:	2100      	movs	r1, #0
 8001bdc:	2000      	movs	r0, #0
 8001bde:	f7fe ffb5 	bl	8000b4c <SSD1306_DrawBitmap>
			SSD1306_UpdateScreen();
 8001be2:	f7ff f9f9 	bl	8000fd8 <SSD1306_UpdateScreen>
			HAL_Delay(1000);
 8001be6:	20fa      	movs	r0, #250	; 0xfa
 8001be8:	0080      	lsls	r0, r0, #2
 8001bea:	f000 fc97 	bl	800251c <HAL_Delay>
			SSD1306_Clear();
 8001bee:	f7ff fa13 	bl	8001018 <SSD1306_Clear>
			g_workStep++;
 8001bf2:	4a4c      	ldr	r2, [pc, #304]	; (8001d24 <Set_Theme+0x170>)
 8001bf4:	7813      	ldrb	r3, [r2, #0]
 8001bf6:	3301      	adds	r3, #1
 8001bf8:	b2db      	uxtb	r3, r3
 8001bfa:	7013      	strb	r3, [r2, #0]
			Set_Theme();
 8001bfc:	f7ff ffda 	bl	8001bb4 <Set_Theme>
	SSD1306_UpdateScreen();
 8001c00:	f7ff f9ea 	bl	8000fd8 <SSD1306_UpdateScreen>
}
 8001c04:	b003      	add	sp, #12
 8001c06:	bd00      	pop	{pc}
			Show_Label_Bar(DISP_PROJECT_LABEL);
 8001c08:	4849      	ldr	r0, [pc, #292]	; (8001d30 <Set_Theme+0x17c>)
 8001c0a:	f7ff fe97 	bl	800193c <Show_Label_Bar>
			progressBarWidth = (128 / ((G_PROJECT_COUNT + 1) / 2) + ((G_PROJECT_COUNT + 1) % 2));
 8001c0e:	4b49      	ldr	r3, [pc, #292]	; (8001d34 <Set_Theme+0x180>)
 8001c10:	2240      	movs	r2, #64	; 0x40
 8001c12:	701a      	strb	r2, [r3, #0]
			progressBarStep = g_projectSelect / 2;
 8001c14:	4b48      	ldr	r3, [pc, #288]	; (8001d38 <Set_Theme+0x184>)
 8001c16:	7819      	ldrb	r1, [r3, #0]
 8001c18:	0849      	lsrs	r1, r1, #1
 8001c1a:	4b48      	ldr	r3, [pc, #288]	; (8001d3c <Set_Theme+0x188>)
 8001c1c:	7019      	strb	r1, [r3, #0]
			Pagination_Bar(progressBarWidth, progressBarStep);
 8001c1e:	2040      	movs	r0, #64	; 0x40
 8001c20:	f7ff ffba 	bl	8001b98 <Pagination_Bar>
			Show_Project_Select_Menu();
 8001c24:	f7ff fe38 	bl	8001898 <Show_Project_Select_Menu>
			break;
 8001c28:	e7ea      	b.n	8001c00 <Set_Theme+0x4c>
			Show_Project_Details(&Details[g_projectSelect - 1], 0);
 8001c2a:	4b43      	ldr	r3, [pc, #268]	; (8001d38 <Set_Theme+0x184>)
 8001c2c:	781b      	ldrb	r3, [r3, #0]
 8001c2e:	3b01      	subs	r3, #1
 8001c30:	0118      	lsls	r0, r3, #4
 8001c32:	18c0      	adds	r0, r0, r3
 8001c34:	0080      	lsls	r0, r0, #2
 8001c36:	4b42      	ldr	r3, [pc, #264]	; (8001d40 <Set_Theme+0x18c>)
 8001c38:	18c0      	adds	r0, r0, r3
 8001c3a:	2100      	movs	r1, #0
 8001c3c:	f7ff fe96 	bl	800196c <Show_Project_Details>
			break;
 8001c40:	e7de      	b.n	8001c00 <Set_Theme+0x4c>
			Clear_Content();
 8001c42:	f7ff fefb 	bl	8001a3c <Clear_Content>
			Show_Project_Details(&Details[g_projectSelect - 1], 1);
 8001c46:	4b3c      	ldr	r3, [pc, #240]	; (8001d38 <Set_Theme+0x184>)
 8001c48:	781b      	ldrb	r3, [r3, #0]
 8001c4a:	3b01      	subs	r3, #1
 8001c4c:	0118      	lsls	r0, r3, #4
 8001c4e:	18c0      	adds	r0, r0, r3
 8001c50:	0080      	lsls	r0, r0, #2
 8001c52:	4b3b      	ldr	r3, [pc, #236]	; (8001d40 <Set_Theme+0x18c>)
 8001c54:	18c0      	adds	r0, r0, r3
 8001c56:	2101      	movs	r1, #1
 8001c58:	f7ff fe88 	bl	800196c <Show_Project_Details>
			break;
 8001c5c:	e7d0      	b.n	8001c00 <Set_Theme+0x4c>
			Show_Label_Bar(DISP_SET_WIDTH_LABEL);
 8001c5e:	4839      	ldr	r0, [pc, #228]	; (8001d44 <Set_Theme+0x190>)
 8001c60:	f7ff fe6c 	bl	800193c <Show_Label_Bar>
			if (!g_correctionFlag) Show_Value_Screen(VAL_TYPE_CARCASS_WIDTH, 0, 0, RUN_FLAG_FIRST);
 8001c64:	4b38      	ldr	r3, [pc, #224]	; (8001d48 <Set_Theme+0x194>)
 8001c66:	781b      	ldrb	r3, [r3, #0]
 8001c68:	2b00      	cmp	r3, #0
 8001c6a:	d106      	bne.n	8001c7a <Set_Theme+0xc6>
 8001c6c:	3301      	adds	r3, #1
 8001c6e:	2200      	movs	r2, #0
 8001c70:	2100      	movs	r1, #0
 8001c72:	2000      	movs	r0, #0
 8001c74:	f7ff fc34 	bl	80014e0 <Show_Value_Screen>
 8001c78:	e7c2      	b.n	8001c00 <Set_Theme+0x4c>
			else Show_Value_Screen(VAL_TYPE_CARCASS_WIDTH, 0, 0, RUN_FLAG_EDIT);
 8001c7a:	2302      	movs	r3, #2
 8001c7c:	2200      	movs	r2, #0
 8001c7e:	2100      	movs	r1, #0
 8001c80:	2000      	movs	r0, #0
 8001c82:	f7ff fc2d 	bl	80014e0 <Show_Value_Screen>
 8001c86:	e7bb      	b.n	8001c00 <Set_Theme+0x4c>
			Show_Label_Bar(DISP_SET_TURNS_LABEL);
 8001c88:	4830      	ldr	r0, [pc, #192]	; (8001d4c <Set_Theme+0x198>)
 8001c8a:	f7ff fe57 	bl	800193c <Show_Label_Bar>
			if (!g_correctionFlag) Show_Value_Screen(VAL_TYPE_CARCASS_COIL_TURNS, 0, 0, RUN_FLAG_FIRST);
 8001c8e:	4b2e      	ldr	r3, [pc, #184]	; (8001d48 <Set_Theme+0x194>)
 8001c90:	781b      	ldrb	r3, [r3, #0]
 8001c92:	2b00      	cmp	r3, #0
 8001c94:	d106      	bne.n	8001ca4 <Set_Theme+0xf0>
 8001c96:	3301      	adds	r3, #1
 8001c98:	2200      	movs	r2, #0
 8001c9a:	2100      	movs	r1, #0
 8001c9c:	2001      	movs	r0, #1
 8001c9e:	f7ff fc1f 	bl	80014e0 <Show_Value_Screen>
 8001ca2:	e7ad      	b.n	8001c00 <Set_Theme+0x4c>
			else Show_Value_Screen(VAL_TYPE_CARCASS_COIL_TURNS, 0, 0, RUN_FLAG_EDIT);
 8001ca4:	2302      	movs	r3, #2
 8001ca6:	2200      	movs	r2, #0
 8001ca8:	2100      	movs	r1, #0
 8001caa:	2001      	movs	r0, #1
 8001cac:	f7ff fc18 	bl	80014e0 <Show_Value_Screen>
 8001cb0:	e7a6      	b.n	8001c00 <Set_Theme+0x4c>
			Show_Label_Bar(DISP_SET_DIAMETER_LABEL);
 8001cb2:	4827      	ldr	r0, [pc, #156]	; (8001d50 <Set_Theme+0x19c>)
 8001cb4:	f7ff fe42 	bl	800193c <Show_Label_Bar>
			if (!g_correctionFlag) Show_Value_Screen(VAL_TYPE_WINDING_DIAMETER, 0, 0, RUN_FLAG_FIRST);
 8001cb8:	4b23      	ldr	r3, [pc, #140]	; (8001d48 <Set_Theme+0x194>)
 8001cba:	781b      	ldrb	r3, [r3, #0]
 8001cbc:	2b00      	cmp	r3, #0
 8001cbe:	d106      	bne.n	8001cce <Set_Theme+0x11a>
 8001cc0:	3301      	adds	r3, #1
 8001cc2:	2200      	movs	r2, #0
 8001cc4:	2100      	movs	r1, #0
 8001cc6:	2002      	movs	r0, #2
 8001cc8:	f7ff fc0a 	bl	80014e0 <Show_Value_Screen>
 8001ccc:	e798      	b.n	8001c00 <Set_Theme+0x4c>
			else Show_Value_Screen(VAL_TYPE_WINDING_DIAMETER, 0, 0, RUN_FLAG_EDIT);
 8001cce:	2302      	movs	r3, #2
 8001cd0:	2200      	movs	r2, #0
 8001cd2:	2100      	movs	r1, #0
 8001cd4:	2002      	movs	r0, #2
 8001cd6:	f7ff fc03 	bl	80014e0 <Show_Value_Screen>
 8001cda:	e791      	b.n	8001c00 <Set_Theme+0x4c>
			Show_Label_Bar(DISP_SET_SPEED_LABEL);
 8001cdc:	481d      	ldr	r0, [pc, #116]	; (8001d54 <Set_Theme+0x1a0>)
 8001cde:	f7ff fe2d 	bl	800193c <Show_Label_Bar>
			if (!g_correctionFlag) Show_Value_Screen(VAL_TYPE_WINDING_SPEED, 0, 0, RUN_FLAG_FIRST);
 8001ce2:	4b19      	ldr	r3, [pc, #100]	; (8001d48 <Set_Theme+0x194>)
 8001ce4:	781b      	ldrb	r3, [r3, #0]
 8001ce6:	2b00      	cmp	r3, #0
 8001ce8:	d106      	bne.n	8001cf8 <Set_Theme+0x144>
 8001cea:	3301      	adds	r3, #1
 8001cec:	2200      	movs	r2, #0
 8001cee:	2100      	movs	r1, #0
 8001cf0:	2003      	movs	r0, #3
 8001cf2:	f7ff fbf5 	bl	80014e0 <Show_Value_Screen>
 8001cf6:	e783      	b.n	8001c00 <Set_Theme+0x4c>
			else Show_Value_Screen(VAL_TYPE_WINDING_SPEED, 0, 0, RUN_FLAG_EDIT);
 8001cf8:	2302      	movs	r3, #2
 8001cfa:	2200      	movs	r2, #0
 8001cfc:	2100      	movs	r1, #0
 8001cfe:	2003      	movs	r0, #3
 8001d00:	f7ff fbee 	bl	80014e0 <Show_Value_Screen>
 8001d04:	e77c      	b.n	8001c00 <Set_Theme+0x4c>
			Show_Label_Bar(DISP_SET_SUMMARY_LABEL);
 8001d06:	4814      	ldr	r0, [pc, #80]	; (8001d58 <Set_Theme+0x1a4>)
 8001d08:	f7ff fe18 	bl	800193c <Show_Label_Bar>
			Show_Summary();
 8001d0c:	f7ff fcb0 	bl	8001670 <Show_Summary>
			break;
 8001d10:	e776      	b.n	8001c00 <Set_Theme+0x4c>
			Show_Label_Bar(DISP_CORRECTNESS_QUERY);
 8001d12:	4812      	ldr	r0, [pc, #72]	; (8001d5c <Set_Theme+0x1a8>)
 8001d14:	f7ff fe12 	bl	800193c <Show_Label_Bar>
			Show_Summary_Correctness_Query(0, RUN_FLAG_FIRST);
 8001d18:	2101      	movs	r1, #1
 8001d1a:	2000      	movs	r0, #0
 8001d1c:	f7ff fe9a 	bl	8001a54 <Show_Summary_Correctness_Query>
			break;
 8001d20:	e76e      	b.n	8001c00 <Set_Theme+0x4c>
 8001d22:	46c0      	nop			; (mov r8, r8)
 8001d24:	20000638 	.word	0x20000638
 8001d28:	080053a4 	.word	0x080053a4
 8001d2c:	08005970 	.word	0x08005970
 8001d30:	08005330 	.word	0x08005330
 8001d34:	2000063b 	.word	0x2000063b
 8001d38:	20000635 	.word	0x20000635
 8001d3c:	2000063a 	.word	0x2000063a
 8001d40:	20000500 	.word	0x20000500
 8001d44:	08005344 	.word	0x08005344
 8001d48:	20000634 	.word	0x20000634
 8001d4c:	08005354 	.word	0x08005354
 8001d50:	08005364 	.word	0x08005364
 8001d54:	08005374 	.word	0x08005374
 8001d58:	08005388 	.word	0x08005388
 8001d5c:	08005398 	.word	0x08005398

08001d60 <Count_Array>:

uint8_t Count_Array(ProjectManager * details)
{
 8001d60:	0001      	movs	r1, r0
	uint8_t count = 0;

	for (uint8_t i = 0; i<10; i++)
 8001d62:	0003      	movs	r3, r0
 8001d64:	331a      	adds	r3, #26
 8001d66:	312e      	adds	r1, #46	; 0x2e
	uint8_t count = 0;
 8001d68:	2000      	movs	r0, #0
 8001d6a:	e002      	b.n	8001d72 <Count_Array+0x12>
	for (uint8_t i = 0; i<10; i++)
 8001d6c:	3302      	adds	r3, #2
 8001d6e:	428b      	cmp	r3, r1
 8001d70:	d005      	beq.n	8001d7e <Count_Array+0x1e>
	{
		if (details->turns[i] > 0) count++;
 8001d72:	881a      	ldrh	r2, [r3, #0]
 8001d74:	2a00      	cmp	r2, #0
 8001d76:	d0f9      	beq.n	8001d6c <Count_Array+0xc>
 8001d78:	3001      	adds	r0, #1
 8001d7a:	b2c0      	uxtb	r0, r0
 8001d7c:	e7f6      	b.n	8001d6c <Count_Array+0xc>
	}
	return count;
}
 8001d7e:	4770      	bx	lr

08001d80 <Structures_Init>:
{
 8001d80:	b5f8      	push	{r3, r4, r5, r6, r7, lr}
	Settings[i].minValue 	= VAL_RNG_CARCASS_MIN_WIDTH;
 8001d82:	4b49      	ldr	r3, [pc, #292]	; (8001ea8 <Structures_Init+0x128>)
 8001d84:	2232      	movs	r2, #50	; 0x32
 8001d86:	801a      	strh	r2, [r3, #0]
	Settings[i].setValue	= 0;
 8001d88:	2200      	movs	r2, #0
 8001d8a:	2100      	movs	r1, #0
 8001d8c:	805a      	strh	r2, [r3, #2]
	Settings[i].maxValue 	= VAL_RNG_CARCASS_MAX_WIDTH;
 8001d8e:	4847      	ldr	r0, [pc, #284]	; (8001eac <Structures_Init+0x12c>)
 8001d90:	8098      	strh	r0, [r3, #4]
	Settings[i].digitsCount = 4;
 8001d92:	2004      	movs	r0, #4
 8001d94:	7198      	strb	r0, [r3, #6]
	Settings[i].dotPosition = 1;
 8001d96:	2501      	movs	r5, #1
 8001d98:	71dd      	strb	r5, [r3, #7]
	Settings[i].minValue 	= VAL_RNG_CARCASS_MIN_TURNS;
 8001d9a:	260a      	movs	r6, #10
 8001d9c:	811e      	strh	r6, [r3, #8]
	Settings[i].setValue 	= 0;
 8001d9e:	815a      	strh	r2, [r3, #10]
	Settings[i].maxValue	= VAL_RNG_CARCASS_MAX_TURNS;
 8001da0:	4c43      	ldr	r4, [pc, #268]	; (8001eb0 <Structures_Init+0x130>)
 8001da2:	819c      	strh	r4, [r3, #12]
	Settings[i].digitsCount = 4;
 8001da4:	7398      	strb	r0, [r3, #14]
	Settings[i].dotPosition = 0;
 8001da6:	73d9      	strb	r1, [r3, #15]
	Settings[i].minValue 	= VAL_RNG_WINDING_MIN_DIAMETER;
 8001da8:	821d      	strh	r5, [r3, #16]
	Settings[i].setValue 	= 0;
 8001daa:	825a      	strh	r2, [r3, #18]
	Settings[i].maxValue 	= VAL_RNG_WINDING_MAX_DIAMETER;
 8001dac:	30c3      	adds	r0, #195	; 0xc3
 8001dae:	8298      	strh	r0, [r3, #20]
	Settings[i].digitsCount = 3;
 8001db0:	38c4      	subs	r0, #196	; 0xc4
 8001db2:	7598      	strb	r0, [r3, #22]
	Settings[i].dotPosition = 2;
 8001db4:	3801      	subs	r0, #1
 8001db6:	75d8      	strb	r0, [r3, #23]
	Settings[i].minValue 	= VAL_RNG_WINDING_MIN_SPEED;
 8001db8:	831d      	strh	r5, [r3, #24]
	Settings[i].setValue 	= 0;
 8001dba:	835a      	strh	r2, [r3, #26]
	Settings[i].maxValue 	= VAL_RNG_WINDING_MAX_SPEED;
 8001dbc:	3205      	adds	r2, #5
 8001dbe:	839a      	strh	r2, [r3, #28]
	Settings[i].digitsCount = 1;
 8001dc0:	2201      	movs	r2, #1
 8001dc2:	779a      	strb	r2, [r3, #30]
	Settings[i].dotPosition = 0;
 8001dc4:	77d9      	strb	r1, [r3, #31]
	Details[i].fullName		= "Peavey-C30-Main";
 8001dc6:	4c3b      	ldr	r4, [pc, #236]	; (8001eb4 <Structures_Init+0x134>)
 8001dc8:	4b3b      	ldr	r3, [pc, #236]	; (8001eb8 <Structures_Init+0x138>)
 8001dca:	6023      	str	r3, [r4, #0]
	Details[i].shortName	= "P-C30-M";
 8001dcc:	4b3b      	ldr	r3, [pc, #236]	; (8001ebc <Structures_Init+0x13c>)
 8001dce:	6063      	str	r3, [r4, #4]
	Details[i].descShort_1	= "230V";
 8001dd0:	4b3b      	ldr	r3, [pc, #236]	; (8001ec0 <Structures_Init+0x140>)
 8001dd2:	60a3      	str	r3, [r4, #8]
	Details[i].descShort_2	= "270,30V";
 8001dd4:	4b3b      	ldr	r3, [pc, #236]	; (8001ec4 <Structures_Init+0x144>)
 8001dd6:	60e3      	str	r3, [r4, #12]
	Details[i].descFull_1	= "PRI: 230V";
 8001dd8:	4b3b      	ldr	r3, [pc, #236]	; (8001ec8 <Structures_Init+0x148>)
 8001dda:	6123      	str	r3, [r4, #16]
	Details[i].descFull_2 	= "SEC: 230V, 30V";
 8001ddc:	4b3b      	ldr	r3, [pc, #236]	; (8001ecc <Structures_Init+0x14c>)
 8001dde:	6163      	str	r3, [r4, #20]
	Details[i].width		= 1150;
 8001de0:	4b3b      	ldr	r3, [pc, #236]	; (8001ed0 <Structures_Init+0x150>)
 8001de2:	8323      	strh	r3, [r4, #24]
	Details[i].turns[0]		= 1100;
 8001de4:	4b3b      	ldr	r3, [pc, #236]	; (8001ed4 <Structures_Init+0x154>)
 8001de6:	8363      	strh	r3, [r4, #26]
	Details[i].diameter[0]	= 10;
 8001de8:	85e6      	strh	r6, [r4, #46]	; 0x2e
	Details[i].turns[1]		= 900;
 8001dea:	27e1      	movs	r7, #225	; 0xe1
 8001dec:	00bf      	lsls	r7, r7, #2
 8001dee:	83a7      	strh	r7, [r4, #28]
	Details[i].diameter[1]	= 15;
 8001df0:	230f      	movs	r3, #15
 8001df2:	8623      	strh	r3, [r4, #48]	; 0x30
	Details[i].turns[2]		= 200;
 8001df4:	33b9      	adds	r3, #185	; 0xb9
 8001df6:	83e3      	strh	r3, [r4, #30]
	Details[i].diameter[2]	= 100;
 8001df8:	3b64      	subs	r3, #100	; 0x64
 8001dfa:	8663      	strh	r3, [r4, #50]	; 0x32
	Details[i].taskCount	= Count_Array(&Details[i]);
 8001dfc:	0020      	movs	r0, r4
 8001dfe:	f7ff ffaf 	bl	8001d60 <Count_Array>
 8001e02:	2342      	movs	r3, #66	; 0x42
 8001e04:	54e0      	strb	r0, [r4, r3]
	Details[i].fullName		= "Peavey-C30-SPK";
 8001e06:	4b34      	ldr	r3, [pc, #208]	; (8001ed8 <Structures_Init+0x158>)
 8001e08:	6463      	str	r3, [r4, #68]	; 0x44
	Details[i].shortName	= "P-C30-S";
 8001e0a:	4b34      	ldr	r3, [pc, #208]	; (8001edc <Structures_Init+0x15c>)
 8001e0c:	64a3      	str	r3, [r4, #72]	; 0x48
	Details[i].descShort_1	= "4xEL84";
 8001e0e:	4b34      	ldr	r3, [pc, #208]	; (8001ee0 <Structures_Init+0x160>)
 8001e10:	64e3      	str	r3, [r4, #76]	; 0x4c
	Details[i].descShort_2	= "16 Ohms";
 8001e12:	4b34      	ldr	r3, [pc, #208]	; (8001ee4 <Structures_Init+0x164>)
 8001e14:	6523      	str	r3, [r4, #80]	; 0x50
	Details[i].descFull_1	= "4xEL84 | 3.4k";
 8001e16:	4b34      	ldr	r3, [pc, #208]	; (8001ee8 <Structures_Init+0x168>)
 8001e18:	6563      	str	r3, [r4, #84]	; 0x54
	Details[i].descFull_2 	= "OUT: 16 Ohms";
 8001e1a:	4b34      	ldr	r3, [pc, #208]	; (8001eec <Structures_Init+0x16c>)
 8001e1c:	65a3      	str	r3, [r4, #88]	; 0x58
	Details[i].width		= 650;
 8001e1e:	235c      	movs	r3, #92	; 0x5c
 8001e20:	4a33      	ldr	r2, [pc, #204]	; (8001ef0 <Structures_Init+0x170>)
 8001e22:	52e2      	strh	r2, [r4, r3]
	Details[i].turns[0]		= 900;
 8001e24:	3302      	adds	r3, #2
 8001e26:	52e7      	strh	r7, [r4, r3]
	Details[i].diameter[0]	= 20;
 8001e28:	3314      	adds	r3, #20
 8001e2a:	2214      	movs	r2, #20
 8001e2c:	52e2      	strh	r2, [r4, r3]
	Details[i].turns[1]		= 600;
 8001e2e:	3b12      	subs	r3, #18
 8001e30:	2296      	movs	r2, #150	; 0x96
 8001e32:	0092      	lsls	r2, r2, #2
 8001e34:	52e2      	strh	r2, [r4, r3]
	Details[i].diameter[1]	= 120;
 8001e36:	3314      	adds	r3, #20
 8001e38:	3ae1      	subs	r2, #225	; 0xe1
 8001e3a:	3aff      	subs	r2, #255	; 0xff
 8001e3c:	52e2      	strh	r2, [r4, r3]
	Details[i].taskCount	= Count_Array(&Details[i]);
 8001e3e:	0020      	movs	r0, r4
 8001e40:	3044      	adds	r0, #68	; 0x44
 8001e42:	f7ff ff8d 	bl	8001d60 <Count_Array>
 8001e46:	2386      	movs	r3, #134	; 0x86
 8001e48:	54e0      	strb	r0, [r4, r3]
	Details[i].fullName		= "TEST-FULL";
 8001e4a:	3302      	adds	r3, #2
 8001e4c:	4a29      	ldr	r2, [pc, #164]	; (8001ef4 <Structures_Init+0x174>)
 8001e4e:	50e2      	str	r2, [r4, r3]
	Details[i].shortName	= "TEST-SH";
 8001e50:	3304      	adds	r3, #4
 8001e52:	4a29      	ldr	r2, [pc, #164]	; (8001ef8 <Structures_Init+0x178>)
 8001e54:	50e2      	str	r2, [r4, r3]
	Details[i].descShort_1	= "2XEL84";
 8001e56:	3304      	adds	r3, #4
 8001e58:	4a28      	ldr	r2, [pc, #160]	; (8001efc <Structures_Init+0x17c>)
 8001e5a:	50e2      	str	r2, [r4, r3]
	Details[i].descShort_2	= "4-8-16";
 8001e5c:	3304      	adds	r3, #4
 8001e5e:	4a28      	ldr	r2, [pc, #160]	; (8001f00 <Structures_Init+0x180>)
 8001e60:	50e2      	str	r2, [r4, r3]
	Details[i].descFull_1	= "2XEL84 | 8.2k";
 8001e62:	3304      	adds	r3, #4
 8001e64:	4a27      	ldr	r2, [pc, #156]	; (8001f04 <Structures_Init+0x184>)
 8001e66:	50e2      	str	r2, [r4, r3]
	Details[i].descFull_2 	= "OUT: 4-8-16 Ohms";
 8001e68:	3304      	adds	r3, #4
 8001e6a:	4a27      	ldr	r2, [pc, #156]	; (8001f08 <Structures_Init+0x188>)
 8001e6c:	50e2      	str	r2, [r4, r3]
	Details[i].width		= 800;
 8001e6e:	3304      	adds	r3, #4
 8001e70:	22c8      	movs	r2, #200	; 0xc8
 8001e72:	0092      	lsls	r2, r2, #2
 8001e74:	52e2      	strh	r2, [r4, r3]
	Details[i].turns[0]		= 2500;
 8001e76:	4a25      	ldr	r2, [pc, #148]	; (8001f0c <Structures_Init+0x18c>)
 8001e78:	3302      	adds	r3, #2
 8001e7a:	52e2      	strh	r2, [r4, r3]
	Details[i].diameter[0]	= 250;
 8001e7c:	3358      	adds	r3, #88	; 0x58
 8001e7e:	21b6      	movs	r1, #182	; 0xb6
 8001e80:	5263      	strh	r3, [r4, r1]
	Details[i].turns[1]		= 10;
 8001e82:	3912      	subs	r1, #18
 8001e84:	5266      	strh	r6, [r4, r1]
	Details[i].diameter[1]	= 1;
 8001e86:	3114      	adds	r1, #20
 8001e88:	5265      	strh	r5, [r4, r1]
	Details[i].turns[2]		= 2500;
 8001e8a:	3912      	subs	r1, #18
 8001e8c:	5262      	strh	r2, [r4, r1]
	Details[i].diameter[2]	= 1;
 8001e8e:	22ba      	movs	r2, #186	; 0xba
 8001e90:	52a5      	strh	r5, [r4, r2]
	Details[i].turns[3]		= 10;
 8001e92:	3a12      	subs	r2, #18
 8001e94:	52a6      	strh	r6, [r4, r2]
	Details[i].diameter[3]	= 250;
 8001e96:	3214      	adds	r2, #20
 8001e98:	52a3      	strh	r3, [r4, r2]
	Details[i].taskCount	= Count_Array(&Details[i]);
 8001e9a:	0020      	movs	r0, r4
 8001e9c:	3088      	adds	r0, #136	; 0x88
 8001e9e:	f7ff ff5f 	bl	8001d60 <Count_Array>
 8001ea2:	23ca      	movs	r3, #202	; 0xca
 8001ea4:	54e0      	strb	r0, [r4, r3]
}
 8001ea6:	bdf8      	pop	{r3, r4, r5, r6, r7, pc}
 8001ea8:	20000610 	.word	0x20000610
 8001eac:	00000513 	.word	0x00000513
 8001eb0:	00000bb7 	.word	0x00000bb7
 8001eb4:	20000500 	.word	0x20000500
 8001eb8:	0800549c 	.word	0x0800549c
 8001ebc:	080054ac 	.word	0x080054ac
 8001ec0:	080054b4 	.word	0x080054b4
 8001ec4:	080054bc 	.word	0x080054bc
 8001ec8:	080054c4 	.word	0x080054c4
 8001ecc:	080054d0 	.word	0x080054d0
 8001ed0:	0000047e 	.word	0x0000047e
 8001ed4:	0000044c 	.word	0x0000044c
 8001ed8:	080054e0 	.word	0x080054e0
 8001edc:	080054f0 	.word	0x080054f0
 8001ee0:	080054f8 	.word	0x080054f8
 8001ee4:	08005500 	.word	0x08005500
 8001ee8:	08005508 	.word	0x08005508
 8001eec:	08005518 	.word	0x08005518
 8001ef0:	0000028a 	.word	0x0000028a
 8001ef4:	08005528 	.word	0x08005528
 8001ef8:	08005534 	.word	0x08005534
 8001efc:	0800553c 	.word	0x0800553c
 8001f00:	08005544 	.word	0x08005544
 8001f04:	0800554c 	.word	0x0800554c
 8001f08:	0800555c 	.word	0x0800555c
 8001f0c:	000009c4 	.word	0x000009c4

08001f10 <HAL_MspInit>:
{
  /* USER CODE BEGIN MspInit 0 */

  /* USER CODE END MspInit 0 */

  __HAL_RCC_SYSCFG_CLK_ENABLE();
 8001f10:	4b05      	ldr	r3, [pc, #20]	; (8001f28 <HAL_MspInit+0x18>)
 8001f12:	6b5a      	ldr	r2, [r3, #52]	; 0x34
 8001f14:	2101      	movs	r1, #1
 8001f16:	430a      	orrs	r2, r1
 8001f18:	635a      	str	r2, [r3, #52]	; 0x34
  __HAL_RCC_PWR_CLK_ENABLE();
 8001f1a:	6b99      	ldr	r1, [r3, #56]	; 0x38
 8001f1c:	2280      	movs	r2, #128	; 0x80
 8001f1e:	0552      	lsls	r2, r2, #21
 8001f20:	430a      	orrs	r2, r1
 8001f22:	639a      	str	r2, [r3, #56]	; 0x38
  /* System interrupt init*/

  /* USER CODE BEGIN MspInit 1 */

  /* USER CODE END MspInit 1 */
}
 8001f24:	4770      	bx	lr
 8001f26:	46c0      	nop			; (mov r8, r8)
 8001f28:	40021000 	.word	0x40021000

08001f2c <NMI_Handler>:
{
  /* USER CODE BEGIN NonMaskableInt_IRQn 0 */

  /* USER CODE END NonMaskableInt_IRQn 0 */
  /* USER CODE BEGIN NonMaskableInt_IRQn 1 */
  while (1)
 8001f2c:	e7fe      	b.n	8001f2c <NMI_Handler>

08001f2e <HardFault_Handler>:
void HardFault_Handler(void)
{
  /* USER CODE BEGIN HardFault_IRQn 0 */

  /* USER CODE END HardFault_IRQn 0 */
  while (1)
 8001f2e:	e7fe      	b.n	8001f2e <HardFault_Handler>

08001f30 <SVC_Handler>:

  /* USER CODE END SVC_IRQn 0 */
  /* USER CODE BEGIN SVC_IRQn 1 */

  /* USER CODE END SVC_IRQn 1 */
}
 8001f30:	4770      	bx	lr

08001f32 <PendSV_Handler>:

  /* USER CODE END PendSV_IRQn 0 */
  /* USER CODE BEGIN PendSV_IRQn 1 */

  /* USER CODE END PendSV_IRQn 1 */
}
 8001f32:	4770      	bx	lr

08001f34 <SysTick_Handler>:

/**
  * @brief This function handles System tick timer.
  */
void SysTick_Handler(void)
{
 8001f34:	b510      	push	{r4, lr}
  /* USER CODE BEGIN SysTick_IRQn 0 */

  /* USER CODE END SysTick_IRQn 0 */
  HAL_IncTick();
 8001f36:	f000 fadf 	bl	80024f8 <HAL_IncTick>
  /* USER CODE BEGIN SysTick_IRQn 1 */

  /* USER CODE END SysTick_IRQn 1 */
}
 8001f3a:	bd10      	pop	{r4, pc}

08001f3c <EXTI4_15_IRQHandler>:

/**
  * @brief This function handles EXTI line 4 to 15 interrupts.
  */
void EXTI4_15_IRQHandler(void)
{
 8001f3c:	b510      	push	{r4, lr}
  /* USER CODE BEGIN EXTI4_15_IRQn 0 */

  /* USER CODE END EXTI4_15_IRQn 0 */
  HAL_GPIO_EXTI_IRQHandler(MAIN_BTN_Pin);
 8001f3e:	2010      	movs	r0, #16
 8001f40:	f000 fc66 	bl	8002810 <HAL_GPIO_EXTI_IRQHandler>
  /* USER CODE BEGIN EXTI4_15_IRQn 1 */

  /* USER CODE END EXTI4_15_IRQn 1 */
}
 8001f44:	bd10      	pop	{r4, pc}
	...

08001f48 <TIM2_IRQHandler>:

/**
  * @brief This function handles TIM2 global interrupt.
  */
void TIM2_IRQHandler(void)
{
 8001f48:	b510      	push	{r4, lr}
  /* USER CODE BEGIN TIM2_IRQn 0 */

  /* USER CODE END TIM2_IRQn 0 */
  HAL_TIM_IRQHandler(&htim2);
 8001f4a:	4802      	ldr	r0, [pc, #8]	; (8001f54 <TIM2_IRQHandler+0xc>)
 8001f4c:	f002 f92b 	bl	80041a6 <HAL_TIM_IRQHandler>
  /* USER CODE BEGIN TIM2_IRQn 1 */

  /* USER CODE END TIM2_IRQn 1 */
}
 8001f50:	bd10      	pop	{r4, pc}
 8001f52:	46c0      	nop			; (mov r8, r8)
 8001f54:	20000640 	.word	0x20000640

08001f58 <TIM6_DAC_IRQHandler>:

/**
  * @brief This function handles TIM6 global interrupt and DAC1/DAC2 underrun error interrupts.
  */
void TIM6_DAC_IRQHandler(void)
{
 8001f58:	b510      	push	{r4, lr}
  /* USER CODE BEGIN TIM6_DAC_IRQn 0 */

  /* USER CODE END TIM6_DAC_IRQn 0 */
  HAL_TIM_IRQHandler(&htim6);
 8001f5a:	4802      	ldr	r0, [pc, #8]	; (8001f64 <TIM6_DAC_IRQHandler+0xc>)
 8001f5c:	f002 f923 	bl	80041a6 <HAL_TIM_IRQHandler>
  /* USER CODE BEGIN TIM6_DAC_IRQn 1 */

  /* USER CODE END TIM6_DAC_IRQn 1 */
}
 8001f60:	bd10      	pop	{r4, pc}
 8001f62:	46c0      	nop			; (mov r8, r8)
 8001f64:	20000700 	.word	0x20000700

08001f68 <TIM7_IRQHandler>:

/**
  * @brief This function handles TIM7 global interrupt.
  */
void TIM7_IRQHandler(void)
{
 8001f68:	b510      	push	{r4, lr}
  /* USER CODE BEGIN TIM7_IRQn 0 */

  /* USER CODE END TIM7_IRQn 0 */
  HAL_TIM_IRQHandler(&htim7);
 8001f6a:	4802      	ldr	r0, [pc, #8]	; (8001f74 <TIM7_IRQHandler+0xc>)
 8001f6c:	f002 f91b 	bl	80041a6 <HAL_TIM_IRQHandler>
  /* USER CODE BEGIN TIM7_IRQn 1 */

  /* USER CODE END TIM7_IRQn 1 */
}
 8001f70:	bd10      	pop	{r4, pc}
 8001f72:	46c0      	nop			; (mov r8, r8)
 8001f74:	20000740 	.word	0x20000740

08001f78 <TIM21_IRQHandler>:

/**
  * @brief This function handles TIM21 global interrupt.
  */
void TIM21_IRQHandler(void)
{
 8001f78:	b510      	push	{r4, lr}
  /* USER CODE BEGIN TIM21_IRQn 0 */

  /* USER CODE END TIM21_IRQn 0 */
  HAL_TIM_IRQHandler(&htim21);
 8001f7a:	4802      	ldr	r0, [pc, #8]	; (8001f84 <TIM21_IRQHandler+0xc>)
 8001f7c:	f002 f913 	bl	80041a6 <HAL_TIM_IRQHandler>
  /* USER CODE BEGIN TIM21_IRQn 1 */

  /* USER CODE END TIM21_IRQn 1 */
}
 8001f80:	bd10      	pop	{r4, pc}
 8001f82:	46c0      	nop			; (mov r8, r8)
 8001f84:	20000680 	.word	0x20000680

08001f88 <TIM22_IRQHandler>:

/**
  * @brief This function handles TIM22 global interrupt.
  */
void TIM22_IRQHandler(void)
{
 8001f88:	b510      	push	{r4, lr}
  /* USER CODE BEGIN TIM22_IRQn 0 */

  /* USER CODE END TIM22_IRQn 0 */
  HAL_TIM_IRQHandler(&htim22);
 8001f8a:	4802      	ldr	r0, [pc, #8]	; (8001f94 <TIM22_IRQHandler+0xc>)
 8001f8c:	f002 f90b 	bl	80041a6 <HAL_TIM_IRQHandler>
  /* USER CODE BEGIN TIM22_IRQn 1 */

  /* USER CODE END TIM22_IRQn 1 */
}
 8001f90:	bd10      	pop	{r4, pc}
 8001f92:	46c0      	nop			; (mov r8, r8)
 8001f94:	200006c0 	.word	0x200006c0

08001f98 <_sbrk>:
 *
 * @param incr Memory size
 * @return Pointer to allocated memory
 */
void *_sbrk(ptrdiff_t incr)
{
 8001f98:	b510      	push	{r4, lr}
 8001f9a:	0003      	movs	r3, r0
  extern uint8_t _end; /* Symbol defined in the linker script */
  extern uint8_t _estack; /* Symbol defined in the linker script */
  extern uint32_t _Min_Stack_Size; /* Symbol defined in the linker script */
  const uint32_t stack_limit = (uint32_t)&_estack - (uint32_t)&_Min_Stack_Size;
 8001f9c:	4a0c      	ldr	r2, [pc, #48]	; (8001fd0 <_sbrk+0x38>)
 8001f9e:	490d      	ldr	r1, [pc, #52]	; (8001fd4 <_sbrk+0x3c>)
 8001fa0:	1a52      	subs	r2, r2, r1
  const uint8_t *max_heap = (uint8_t *)stack_limit;
  uint8_t *prev_heap_end;

  /* Initialize heap end at first call */
  if (NULL == __sbrk_heap_end)
 8001fa2:	490d      	ldr	r1, [pc, #52]	; (8001fd8 <_sbrk+0x40>)
 8001fa4:	6809      	ldr	r1, [r1, #0]
 8001fa6:	2900      	cmp	r1, #0
 8001fa8:	d007      	beq.n	8001fba <_sbrk+0x22>
  {
    __sbrk_heap_end = &_end;
  }

  /* Protect heap from growing into the reserved MSP stack */
  if (__sbrk_heap_end + incr > max_heap)
 8001faa:	490b      	ldr	r1, [pc, #44]	; (8001fd8 <_sbrk+0x40>)
 8001fac:	6808      	ldr	r0, [r1, #0]
 8001fae:	18c3      	adds	r3, r0, r3
 8001fb0:	4293      	cmp	r3, r2
 8001fb2:	d806      	bhi.n	8001fc2 <_sbrk+0x2a>
    errno = ENOMEM;
    return (void *)-1;
  }

  prev_heap_end = __sbrk_heap_end;
  __sbrk_heap_end += incr;
 8001fb4:	4a08      	ldr	r2, [pc, #32]	; (8001fd8 <_sbrk+0x40>)
 8001fb6:	6013      	str	r3, [r2, #0]

  return (void *)prev_heap_end;
}
 8001fb8:	bd10      	pop	{r4, pc}
    __sbrk_heap_end = &_end;
 8001fba:	4907      	ldr	r1, [pc, #28]	; (8001fd8 <_sbrk+0x40>)
 8001fbc:	4807      	ldr	r0, [pc, #28]	; (8001fdc <_sbrk+0x44>)
 8001fbe:	6008      	str	r0, [r1, #0]
 8001fc0:	e7f3      	b.n	8001faa <_sbrk+0x12>
    errno = ENOMEM;
 8001fc2:	f002 fc77 	bl	80048b4 <__errno>
 8001fc6:	230c      	movs	r3, #12
 8001fc8:	6003      	str	r3, [r0, #0]
    return (void *)-1;
 8001fca:	2001      	movs	r0, #1
 8001fcc:	4240      	negs	r0, r0
 8001fce:	e7f3      	b.n	8001fb8 <_sbrk+0x20>
 8001fd0:	20005000 	.word	0x20005000
 8001fd4:	00000400 	.word	0x00000400
 8001fd8:	2000063c 	.word	0x2000063c
 8001fdc:	20000818 	.word	0x20000818

08001fe0 <SystemInit>:
{
  /* Configure the Vector Table location add offset address ------------------*/
#if defined (USER_VECT_TAB_ADDRESS)
  SCB->VTOR = VECT_TAB_BASE_ADDRESS | VECT_TAB_OFFSET; /* Vector Table Relocation in Internal SRAM */
#endif /* USER_VECT_TAB_ADDRESS */
}
 8001fe0:	4770      	bx	lr
	...

08001fe4 <MX_TIM2_Init>:
TIM_HandleTypeDef htim21;
TIM_HandleTypeDef htim22;

/* TIM2 init function */
void MX_TIM2_Init(void)
{
 8001fe4:	b500      	push	{lr}
 8001fe6:	b08d      	sub	sp, #52	; 0x34

  /* USER CODE BEGIN TIM2_Init 0 */

  /* USER CODE END TIM2_Init 0 */

  TIM_Encoder_InitTypeDef sConfig = {0};
 8001fe8:	221c      	movs	r2, #28
 8001fea:	2100      	movs	r1, #0
 8001fec:	a804      	add	r0, sp, #16
 8001fee:	f002 fc94 	bl	800491a <memset>
  TIM_MasterConfigTypeDef sMasterConfig = {0};
 8001ff2:	2208      	movs	r2, #8
 8001ff4:	2100      	movs	r1, #0
 8001ff6:	a801      	add	r0, sp, #4
 8001ff8:	f002 fc8f 	bl	800491a <memset>

  /* USER CODE BEGIN TIM2_Init 1 */

  /* USER CODE END TIM2_Init 1 */
  htim2.Instance = TIM2;
 8001ffc:	4813      	ldr	r0, [pc, #76]	; (800204c <MX_TIM2_Init+0x68>)
 8001ffe:	2380      	movs	r3, #128	; 0x80
 8002000:	05db      	lsls	r3, r3, #23
 8002002:	6003      	str	r3, [r0, #0]
  htim2.Init.Prescaler = 0;
 8002004:	2300      	movs	r3, #0
 8002006:	6043      	str	r3, [r0, #4]
  htim2.Init.CounterMode = TIM_COUNTERMODE_UP;
 8002008:	6083      	str	r3, [r0, #8]
  htim2.Init.Period = 65535;
 800200a:	4a11      	ldr	r2, [pc, #68]	; (8002050 <MX_TIM2_Init+0x6c>)
 800200c:	60c2      	str	r2, [r0, #12]
  htim2.Init.ClockDivision = TIM_CLOCKDIVISION_DIV1;
 800200e:	6103      	str	r3, [r0, #16]
  htim2.Init.AutoReloadPreload = TIM_AUTORELOAD_PRELOAD_DISABLE;
 8002010:	6143      	str	r3, [r0, #20]
  sConfig.EncoderMode = TIM_ENCODERMODE_TI1;
 8002012:	3301      	adds	r3, #1
 8002014:	9303      	str	r3, [sp, #12]
  sConfig.IC1Polarity = TIM_ICPOLARITY_RISING;
  sConfig.IC1Selection = TIM_ICSELECTION_DIRECTTI;
 8002016:	9305      	str	r3, [sp, #20]
  sConfig.IC1Prescaler = TIM_ICPSC_DIV1;
  sConfig.IC1Filter = 15;
 8002018:	220f      	movs	r2, #15
 800201a:	9207      	str	r2, [sp, #28]
  sConfig.IC2Polarity = TIM_ICPOLARITY_RISING;
  sConfig.IC2Selection = TIM_ICSELECTION_DIRECTTI;
 800201c:	9309      	str	r3, [sp, #36]	; 0x24
  sConfig.IC2Prescaler = TIM_ICPSC_DIV1;
  sConfig.IC2Filter = 15;
 800201e:	920b      	str	r2, [sp, #44]	; 0x2c
  if (HAL_TIM_Encoder_Init(&htim2, &sConfig) != HAL_OK)
 8002020:	a903      	add	r1, sp, #12
 8002022:	f001 fe6f 	bl	8003d04 <HAL_TIM_Encoder_Init>
 8002026:	2800      	cmp	r0, #0
 8002028:	d10a      	bne.n	8002040 <MX_TIM2_Init+0x5c>
  {
    Error_Handler();
  }
  sMasterConfig.MasterOutputTrigger = TIM_TRGO_RESET;
 800202a:	2300      	movs	r3, #0
 800202c:	9301      	str	r3, [sp, #4]
  sMasterConfig.MasterSlaveMode = TIM_MASTERSLAVEMODE_DISABLE;
 800202e:	9302      	str	r3, [sp, #8]
  if (HAL_TIMEx_MasterConfigSynchronization(&htim2, &sMasterConfig) != HAL_OK)
 8002030:	a901      	add	r1, sp, #4
 8002032:	4806      	ldr	r0, [pc, #24]	; (800204c <MX_TIM2_Init+0x68>)
 8002034:	f002 f950 	bl	80042d8 <HAL_TIMEx_MasterConfigSynchronization>
 8002038:	2800      	cmp	r0, #0
 800203a:	d104      	bne.n	8002046 <MX_TIM2_Init+0x62>
  }
  /* USER CODE BEGIN TIM2_Init 2 */

  /* USER CODE END TIM2_Init 2 */

}
 800203c:	b00d      	add	sp, #52	; 0x34
 800203e:	bd00      	pop	{pc}
    Error_Handler();
 8002040:	f7fe fd48 	bl	8000ad4 <Error_Handler>
 8002044:	e7f1      	b.n	800202a <MX_TIM2_Init+0x46>
    Error_Handler();
 8002046:	f7fe fd45 	bl	8000ad4 <Error_Handler>
}
 800204a:	e7f7      	b.n	800203c <MX_TIM2_Init+0x58>
 800204c:	20000640 	.word	0x20000640
 8002050:	0000ffff 	.word	0x0000ffff

08002054 <MX_TIM6_Init>:
/* TIM6 init function */
void MX_TIM6_Init(void)
{
 8002054:	b500      	push	{lr}
 8002056:	b083      	sub	sp, #12

  /* USER CODE BEGIN TIM6_Init 0 */

  /* USER CODE END TIM6_Init 0 */

  TIM_MasterConfigTypeDef sMasterConfig = {0};
 8002058:	2208      	movs	r2, #8
 800205a:	2100      	movs	r1, #0
 800205c:	4668      	mov	r0, sp
 800205e:	f002 fc5c 	bl	800491a <memset>

  /* USER CODE BEGIN TIM6_Init 1 */

  /* USER CODE END TIM6_Init 1 */
  htim6.Instance = TIM6;
 8002062:	480f      	ldr	r0, [pc, #60]	; (80020a0 <MX_TIM6_Init+0x4c>)
 8002064:	4b0f      	ldr	r3, [pc, #60]	; (80020a4 <MX_TIM6_Init+0x50>)
 8002066:	6003      	str	r3, [r0, #0]
  htim6.Init.Prescaler = 7999;
 8002068:	4b0f      	ldr	r3, [pc, #60]	; (80020a8 <MX_TIM6_Init+0x54>)
 800206a:	6043      	str	r3, [r0, #4]
  htim6.Init.CounterMode = TIM_COUNTERMODE_UP;
 800206c:	2300      	movs	r3, #0
 800206e:	6083      	str	r3, [r0, #8]
  htim6.Init.Period = 199;
 8002070:	22c7      	movs	r2, #199	; 0xc7
 8002072:	60c2      	str	r2, [r0, #12]
  htim6.Init.AutoReloadPreload = TIM_AUTORELOAD_PRELOAD_DISABLE;
 8002074:	6143      	str	r3, [r0, #20]
  if (HAL_TIM_Base_Init(&htim6) != HAL_OK)
 8002076:	f001 fdb0 	bl	8003bda <HAL_TIM_Base_Init>
 800207a:	2800      	cmp	r0, #0
 800207c:	d10a      	bne.n	8002094 <MX_TIM6_Init+0x40>
  {
    Error_Handler();
  }
  sMasterConfig.MasterOutputTrigger = TIM_TRGO_RESET;
 800207e:	2300      	movs	r3, #0
 8002080:	9300      	str	r3, [sp, #0]
  sMasterConfig.MasterSlaveMode = TIM_MASTERSLAVEMODE_DISABLE;
 8002082:	9301      	str	r3, [sp, #4]
  if (HAL_TIMEx_MasterConfigSynchronization(&htim6, &sMasterConfig) != HAL_OK)
 8002084:	4669      	mov	r1, sp
 8002086:	4806      	ldr	r0, [pc, #24]	; (80020a0 <MX_TIM6_Init+0x4c>)
 8002088:	f002 f926 	bl	80042d8 <HAL_TIMEx_MasterConfigSynchronization>
 800208c:	2800      	cmp	r0, #0
 800208e:	d104      	bne.n	800209a <MX_TIM6_Init+0x46>
  }
  /* USER CODE BEGIN TIM6_Init 2 */

  /* USER CODE END TIM6_Init 2 */

}
 8002090:	b003      	add	sp, #12
 8002092:	bd00      	pop	{pc}
    Error_Handler();
 8002094:	f7fe fd1e 	bl	8000ad4 <Error_Handler>
 8002098:	e7f1      	b.n	800207e <MX_TIM6_Init+0x2a>
    Error_Handler();
 800209a:	f7fe fd1b 	bl	8000ad4 <Error_Handler>
}
 800209e:	e7f7      	b.n	8002090 <MX_TIM6_Init+0x3c>
 80020a0:	20000700 	.word	0x20000700
 80020a4:	40001000 	.word	0x40001000
 80020a8:	00001f3f 	.word	0x00001f3f

080020ac <MX_TIM7_Init>:
/* TIM7 init function */
void MX_TIM7_Init(void)
{
 80020ac:	b500      	push	{lr}
 80020ae:	b083      	sub	sp, #12

  /* USER CODE BEGIN TIM7_Init 0 */

  /* USER CODE END TIM7_Init 0 */

  TIM_MasterConfigTypeDef sMasterConfig = {0};
 80020b0:	2208      	movs	r2, #8
 80020b2:	2100      	movs	r1, #0
 80020b4:	4668      	mov	r0, sp
 80020b6:	f002 fc30 	bl	800491a <memset>

  /* USER CODE BEGIN TIM7_Init 1 */

  /* USER CODE END TIM7_Init 1 */
  htim7.Instance = TIM7;
 80020ba:	480f      	ldr	r0, [pc, #60]	; (80020f8 <MX_TIM7_Init+0x4c>)
 80020bc:	4b0f      	ldr	r3, [pc, #60]	; (80020fc <MX_TIM7_Init+0x50>)
 80020be:	6003      	str	r3, [r0, #0]
  htim7.Init.Prescaler = 7999;
 80020c0:	4b0f      	ldr	r3, [pc, #60]	; (8002100 <MX_TIM7_Init+0x54>)
 80020c2:	6043      	str	r3, [r0, #4]
  htim7.Init.CounterMode = TIM_COUNTERMODE_UP;
 80020c4:	2300      	movs	r3, #0
 80020c6:	6083      	str	r3, [r0, #8]
  htim7.Init.Period = 199;
 80020c8:	22c7      	movs	r2, #199	; 0xc7
 80020ca:	60c2      	str	r2, [r0, #12]
  htim7.Init.AutoReloadPreload = TIM_AUTORELOAD_PRELOAD_DISABLE;
 80020cc:	6143      	str	r3, [r0, #20]
  if (HAL_TIM_Base_Init(&htim7) != HAL_OK)
 80020ce:	f001 fd84 	bl	8003bda <HAL_TIM_Base_Init>
 80020d2:	2800      	cmp	r0, #0
 80020d4:	d10a      	bne.n	80020ec <MX_TIM7_Init+0x40>
  {
    Error_Handler();
  }
  sMasterConfig.MasterOutputTrigger = TIM_TRGO_RESET;
 80020d6:	2300      	movs	r3, #0
 80020d8:	9300      	str	r3, [sp, #0]
  sMasterConfig.MasterSlaveMode = TIM_MASTERSLAVEMODE_DISABLE;
 80020da:	9301      	str	r3, [sp, #4]
  if (HAL_TIMEx_MasterConfigSynchronization(&htim7, &sMasterConfig) != HAL_OK)
 80020dc:	4669      	mov	r1, sp
 80020de:	4806      	ldr	r0, [pc, #24]	; (80020f8 <MX_TIM7_Init+0x4c>)
 80020e0:	f002 f8fa 	bl	80042d8 <HAL_TIMEx_MasterConfigSynchronization>
 80020e4:	2800      	cmp	r0, #0
 80020e6:	d104      	bne.n	80020f2 <MX_TIM7_Init+0x46>
  }
  /* USER CODE BEGIN TIM7_Init 2 */

  /* USER CODE END TIM7_Init 2 */

}
 80020e8:	b003      	add	sp, #12
 80020ea:	bd00      	pop	{pc}
    Error_Handler();
 80020ec:	f7fe fcf2 	bl	8000ad4 <Error_Handler>
 80020f0:	e7f1      	b.n	80020d6 <MX_TIM7_Init+0x2a>
    Error_Handler();
 80020f2:	f7fe fcef 	bl	8000ad4 <Error_Handler>
}
 80020f6:	e7f7      	b.n	80020e8 <MX_TIM7_Init+0x3c>
 80020f8:	20000740 	.word	0x20000740
 80020fc:	40001400 	.word	0x40001400
 8002100:	00001f3f 	.word	0x00001f3f

08002104 <MX_TIM22_Init>:
  HAL_TIM_MspPostInit(&htim21);

}
/* TIM22 init function */
void MX_TIM22_Init(void)
{
 8002104:	b500      	push	{lr}
 8002106:	b089      	sub	sp, #36	; 0x24

  /* USER CODE BEGIN TIM22_Init 0 */

  /* USER CODE END TIM22_Init 0 */

  TIM_SlaveConfigTypeDef sSlaveConfig = {0};
 8002108:	2214      	movs	r2, #20
 800210a:	2100      	movs	r1, #0
 800210c:	a803      	add	r0, sp, #12
 800210e:	f002 fc04 	bl	800491a <memset>
  TIM_MasterConfigTypeDef sMasterConfig = {0};
 8002112:	2208      	movs	r2, #8
 8002114:	2100      	movs	r1, #0
 8002116:	a801      	add	r0, sp, #4
 8002118:	f002 fbff 	bl	800491a <memset>

  /* USER CODE BEGIN TIM22_Init 1 */

  /* USER CODE END TIM22_Init 1 */
  htim22.Instance = TIM22;
 800211c:	4816      	ldr	r0, [pc, #88]	; (8002178 <MX_TIM22_Init+0x74>)
 800211e:	4b17      	ldr	r3, [pc, #92]	; (800217c <MX_TIM22_Init+0x78>)
 8002120:	6003      	str	r3, [r0, #0]
  htim22.Init.Prescaler = 0;
 8002122:	2300      	movs	r3, #0
 8002124:	6043      	str	r3, [r0, #4]
  htim22.Init.CounterMode = TIM_COUNTERMODE_UP;
 8002126:	6083      	str	r3, [r0, #8]
  htim22.Init.Period = 199;
 8002128:	22c7      	movs	r2, #199	; 0xc7
 800212a:	60c2      	str	r2, [r0, #12]
  htim22.Init.ClockDivision = TIM_CLOCKDIVISION_DIV1;
 800212c:	6103      	str	r3, [r0, #16]
  htim22.Init.AutoReloadPreload = TIM_AUTORELOAD_PRELOAD_ENABLE;
 800212e:	3380      	adds	r3, #128	; 0x80
 8002130:	6143      	str	r3, [r0, #20]
  if (HAL_TIM_Base_Init(&htim22) != HAL_OK)
 8002132:	f001 fd52 	bl	8003bda <HAL_TIM_Base_Init>
 8002136:	2800      	cmp	r0, #0
 8002138:	d114      	bne.n	8002164 <MX_TIM22_Init+0x60>
  {
    Error_Handler();
  }
  sSlaveConfig.SlaveMode = TIM_SLAVEMODE_EXTERNAL1;
 800213a:	2307      	movs	r3, #7
 800213c:	9303      	str	r3, [sp, #12]
  sSlaveConfig.InputTrigger = TIM_TS_ITR0;
 800213e:	2300      	movs	r3, #0
 8002140:	9304      	str	r3, [sp, #16]
  if (HAL_TIM_SlaveConfigSynchro(&htim22, &sSlaveConfig) != HAL_OK)
 8002142:	a903      	add	r1, sp, #12
 8002144:	480c      	ldr	r0, [pc, #48]	; (8002178 <MX_TIM22_Init+0x74>)
 8002146:	f001 fffd 	bl	8004144 <HAL_TIM_SlaveConfigSynchro>
 800214a:	2800      	cmp	r0, #0
 800214c:	d10d      	bne.n	800216a <MX_TIM22_Init+0x66>
  {
    Error_Handler();
  }
  sMasterConfig.MasterOutputTrigger = TIM_TRGO_RESET;
 800214e:	2300      	movs	r3, #0
 8002150:	9301      	str	r3, [sp, #4]
  sMasterConfig.MasterSlaveMode = TIM_MASTERSLAVEMODE_DISABLE;
 8002152:	9302      	str	r3, [sp, #8]
  if (HAL_TIMEx_MasterConfigSynchronization(&htim22, &sMasterConfig) != HAL_OK)
 8002154:	a901      	add	r1, sp, #4
 8002156:	4808      	ldr	r0, [pc, #32]	; (8002178 <MX_TIM22_Init+0x74>)
 8002158:	f002 f8be 	bl	80042d8 <HAL_TIMEx_MasterConfigSynchronization>
 800215c:	2800      	cmp	r0, #0
 800215e:	d107      	bne.n	8002170 <MX_TIM22_Init+0x6c>
  }
  /* USER CODE BEGIN TIM22_Init 2 */

  /* USER CODE END TIM22_Init 2 */

}
 8002160:	b009      	add	sp, #36	; 0x24
 8002162:	bd00      	pop	{pc}
    Error_Handler();
 8002164:	f7fe fcb6 	bl	8000ad4 <Error_Handler>
 8002168:	e7e7      	b.n	800213a <MX_TIM22_Init+0x36>
    Error_Handler();
 800216a:	f7fe fcb3 	bl	8000ad4 <Error_Handler>
 800216e:	e7ee      	b.n	800214e <MX_TIM22_Init+0x4a>
    Error_Handler();
 8002170:	f7fe fcb0 	bl	8000ad4 <Error_Handler>
}
 8002174:	e7f4      	b.n	8002160 <MX_TIM22_Init+0x5c>
 8002176:	46c0      	nop			; (mov r8, r8)
 8002178:	200006c0 	.word	0x200006c0
 800217c:	40011400 	.word	0x40011400

08002180 <HAL_TIM_Encoder_MspInit>:

void HAL_TIM_Encoder_MspInit(TIM_HandleTypeDef* tim_encoderHandle)
{
 8002180:	b510      	push	{r4, lr}
 8002182:	b086      	sub	sp, #24
 8002184:	0004      	movs	r4, r0

  GPIO_InitTypeDef GPIO_InitStruct = {0};
 8002186:	2214      	movs	r2, #20
 8002188:	2100      	movs	r1, #0
 800218a:	a801      	add	r0, sp, #4
 800218c:	f002 fbc5 	bl	800491a <memset>
  if(tim_encoderHandle->Instance==TIM2)
 8002190:	2380      	movs	r3, #128	; 0x80
 8002192:	05db      	lsls	r3, r3, #23
 8002194:	6822      	ldr	r2, [r4, #0]
 8002196:	429a      	cmp	r2, r3
 8002198:	d001      	beq.n	800219e <HAL_TIM_Encoder_MspInit+0x1e>
    HAL_NVIC_EnableIRQ(TIM2_IRQn);
  /* USER CODE BEGIN TIM2_MspInit 1 */

  /* USER CODE END TIM2_MspInit 1 */
  }
}
 800219a:	b006      	add	sp, #24
 800219c:	bd10      	pop	{r4, pc}
    __HAL_RCC_TIM2_CLK_ENABLE();
 800219e:	4a0f      	ldr	r2, [pc, #60]	; (80021dc <HAL_TIM_Encoder_MspInit+0x5c>)
 80021a0:	6b91      	ldr	r1, [r2, #56]	; 0x38
 80021a2:	2301      	movs	r3, #1
 80021a4:	4319      	orrs	r1, r3
 80021a6:	6391      	str	r1, [r2, #56]	; 0x38
    __HAL_RCC_GPIOA_CLK_ENABLE();
 80021a8:	6ad1      	ldr	r1, [r2, #44]	; 0x2c
 80021aa:	4319      	orrs	r1, r3
 80021ac:	62d1      	str	r1, [r2, #44]	; 0x2c
 80021ae:	6ad2      	ldr	r2, [r2, #44]	; 0x2c
 80021b0:	4013      	ands	r3, r2
 80021b2:	9300      	str	r3, [sp, #0]
 80021b4:	9b00      	ldr	r3, [sp, #0]
    GPIO_InitStruct.Pin = GPIO_PIN_0|GPIO_PIN_1;
 80021b6:	2303      	movs	r3, #3
 80021b8:	9301      	str	r3, [sp, #4]
    GPIO_InitStruct.Mode = GPIO_MODE_AF_PP;
 80021ba:	3b01      	subs	r3, #1
 80021bc:	9302      	str	r3, [sp, #8]
    GPIO_InitStruct.Alternate = GPIO_AF2_TIM2;
 80021be:	9305      	str	r3, [sp, #20]
    HAL_GPIO_Init(GPIOA, &GPIO_InitStruct);
 80021c0:	20a0      	movs	r0, #160	; 0xa0
 80021c2:	a901      	add	r1, sp, #4
 80021c4:	05c0      	lsls	r0, r0, #23
 80021c6:	f000 fa15 	bl	80025f4 <HAL_GPIO_Init>
    HAL_NVIC_SetPriority(TIM2_IRQn, 0, 0);
 80021ca:	2200      	movs	r2, #0
 80021cc:	2100      	movs	r1, #0
 80021ce:	200f      	movs	r0, #15
 80021d0:	f000 f9b6 	bl	8002540 <HAL_NVIC_SetPriority>
    HAL_NVIC_EnableIRQ(TIM2_IRQn);
 80021d4:	200f      	movs	r0, #15
 80021d6:	f000 f9e5 	bl	80025a4 <HAL_NVIC_EnableIRQ>
}
 80021da:	e7de      	b.n	800219a <HAL_TIM_Encoder_MspInit+0x1a>
 80021dc:	40021000 	.word	0x40021000

080021e0 <HAL_TIM_Base_MspInit>:

void HAL_TIM_Base_MspInit(TIM_HandleTypeDef* tim_baseHandle)
{
 80021e0:	b510      	push	{r4, lr}

  if(tim_baseHandle->Instance==TIM6)
 80021e2:	6803      	ldr	r3, [r0, #0]
 80021e4:	4a22      	ldr	r2, [pc, #136]	; (8002270 <HAL_TIM_Base_MspInit+0x90>)
 80021e6:	4293      	cmp	r3, r2
 80021e8:	d009      	beq.n	80021fe <HAL_TIM_Base_MspInit+0x1e>
    HAL_NVIC_EnableIRQ(TIM6_DAC_IRQn);
  /* USER CODE BEGIN TIM6_MspInit 1 */

  /* USER CODE END TIM6_MspInit 1 */
  }
  else if(tim_baseHandle->Instance==TIM7)
 80021ea:	4a22      	ldr	r2, [pc, #136]	; (8002274 <HAL_TIM_Base_MspInit+0x94>)
 80021ec:	4293      	cmp	r3, r2
 80021ee:	d014      	beq.n	800221a <HAL_TIM_Base_MspInit+0x3a>
    HAL_NVIC_EnableIRQ(TIM7_IRQn);
  /* USER CODE BEGIN TIM7_MspInit 1 */

  /* USER CODE END TIM7_MspInit 1 */
  }
  else if(tim_baseHandle->Instance==TIM21)
 80021f0:	4a21      	ldr	r2, [pc, #132]	; (8002278 <HAL_TIM_Base_MspInit+0x98>)
 80021f2:	4293      	cmp	r3, r2
 80021f4:	d01f      	beq.n	8002236 <HAL_TIM_Base_MspInit+0x56>
    HAL_NVIC_EnableIRQ(TIM21_IRQn);
  /* USER CODE BEGIN TIM21_MspInit 1 */

  /* USER CODE END TIM21_MspInit 1 */
  }
  else if(tim_baseHandle->Instance==TIM22)
 80021f6:	4a21      	ldr	r2, [pc, #132]	; (800227c <HAL_TIM_Base_MspInit+0x9c>)
 80021f8:	4293      	cmp	r3, r2
 80021fa:	d02a      	beq.n	8002252 <HAL_TIM_Base_MspInit+0x72>
    HAL_NVIC_EnableIRQ(TIM22_IRQn);
  /* USER CODE BEGIN TIM22_MspInit 1 */

  /* USER CODE END TIM22_MspInit 1 */
  }
}
 80021fc:	bd10      	pop	{r4, pc}
    __HAL_RCC_TIM6_CLK_ENABLE();
 80021fe:	4a20      	ldr	r2, [pc, #128]	; (8002280 <HAL_TIM_Base_MspInit+0xa0>)
 8002200:	6b93      	ldr	r3, [r2, #56]	; 0x38
 8002202:	2110      	movs	r1, #16
 8002204:	430b      	orrs	r3, r1
 8002206:	6393      	str	r3, [r2, #56]	; 0x38
    HAL_NVIC_SetPriority(TIM6_DAC_IRQn, 0, 0);
 8002208:	2200      	movs	r2, #0
 800220a:	2100      	movs	r1, #0
 800220c:	2011      	movs	r0, #17
 800220e:	f000 f997 	bl	8002540 <HAL_NVIC_SetPriority>
    HAL_NVIC_EnableIRQ(TIM6_DAC_IRQn);
 8002212:	2011      	movs	r0, #17
 8002214:	f000 f9c6 	bl	80025a4 <HAL_NVIC_EnableIRQ>
 8002218:	e7f0      	b.n	80021fc <HAL_TIM_Base_MspInit+0x1c>
    __HAL_RCC_TIM7_CLK_ENABLE();
 800221a:	4a19      	ldr	r2, [pc, #100]	; (8002280 <HAL_TIM_Base_MspInit+0xa0>)
 800221c:	6b93      	ldr	r3, [r2, #56]	; 0x38
 800221e:	2120      	movs	r1, #32
 8002220:	430b      	orrs	r3, r1
 8002222:	6393      	str	r3, [r2, #56]	; 0x38
    HAL_NVIC_SetPriority(TIM7_IRQn, 0, 0);
 8002224:	2200      	movs	r2, #0
 8002226:	2100      	movs	r1, #0
 8002228:	2012      	movs	r0, #18
 800222a:	f000 f989 	bl	8002540 <HAL_NVIC_SetPriority>
    HAL_NVIC_EnableIRQ(TIM7_IRQn);
 800222e:	2012      	movs	r0, #18
 8002230:	f000 f9b8 	bl	80025a4 <HAL_NVIC_EnableIRQ>
 8002234:	e7e2      	b.n	80021fc <HAL_TIM_Base_MspInit+0x1c>
    __HAL_RCC_TIM21_CLK_ENABLE();
 8002236:	4a12      	ldr	r2, [pc, #72]	; (8002280 <HAL_TIM_Base_MspInit+0xa0>)
 8002238:	6b53      	ldr	r3, [r2, #52]	; 0x34
 800223a:	2104      	movs	r1, #4
 800223c:	430b      	orrs	r3, r1
 800223e:	6353      	str	r3, [r2, #52]	; 0x34
    HAL_NVIC_SetPriority(TIM21_IRQn, 0, 0);
 8002240:	2200      	movs	r2, #0
 8002242:	2100      	movs	r1, #0
 8002244:	2014      	movs	r0, #20
 8002246:	f000 f97b 	bl	8002540 <HAL_NVIC_SetPriority>
    HAL_NVIC_EnableIRQ(TIM21_IRQn);
 800224a:	2014      	movs	r0, #20
 800224c:	f000 f9aa 	bl	80025a4 <HAL_NVIC_EnableIRQ>
 8002250:	e7d4      	b.n	80021fc <HAL_TIM_Base_MspInit+0x1c>
    __HAL_RCC_TIM22_CLK_ENABLE();
 8002252:	4a0b      	ldr	r2, [pc, #44]	; (8002280 <HAL_TIM_Base_MspInit+0xa0>)
 8002254:	6b53      	ldr	r3, [r2, #52]	; 0x34
 8002256:	2120      	movs	r1, #32
 8002258:	430b      	orrs	r3, r1
 800225a:	6353      	str	r3, [r2, #52]	; 0x34
    HAL_NVIC_SetPriority(TIM22_IRQn, 0, 0);
 800225c:	2200      	movs	r2, #0
 800225e:	2100      	movs	r1, #0
 8002260:	2016      	movs	r0, #22
 8002262:	f000 f96d 	bl	8002540 <HAL_NVIC_SetPriority>
    HAL_NVIC_EnableIRQ(TIM22_IRQn);
 8002266:	2016      	movs	r0, #22
 8002268:	f000 f99c 	bl	80025a4 <HAL_NVIC_EnableIRQ>
}
 800226c:	e7c6      	b.n	80021fc <HAL_TIM_Base_MspInit+0x1c>
 800226e:	46c0      	nop			; (mov r8, r8)
 8002270:	40001000 	.word	0x40001000
 8002274:	40001400 	.word	0x40001400
 8002278:	40010800 	.word	0x40010800
 800227c:	40011400 	.word	0x40011400
 8002280:	40021000 	.word	0x40021000

08002284 <HAL_TIM_MspPostInit>:
void HAL_TIM_MspPostInit(TIM_HandleTypeDef* timHandle)
{
 8002284:	b510      	push	{r4, lr}
 8002286:	b086      	sub	sp, #24
 8002288:	0004      	movs	r4, r0

  GPIO_InitTypeDef GPIO_InitStruct = {0};
 800228a:	2214      	movs	r2, #20
 800228c:	2100      	movs	r1, #0
 800228e:	a801      	add	r0, sp, #4
 8002290:	f002 fb43 	bl	800491a <memset>
  if(timHandle->Instance==TIM21)
 8002294:	4b0c      	ldr	r3, [pc, #48]	; (80022c8 <HAL_TIM_MspPostInit+0x44>)
 8002296:	6822      	ldr	r2, [r4, #0]
 8002298:	429a      	cmp	r2, r3
 800229a:	d001      	beq.n	80022a0 <HAL_TIM_MspPostInit+0x1c>
  /* USER CODE BEGIN TIM21_MspPostInit 1 */

  /* USER CODE END TIM21_MspPostInit 1 */
  }

}
 800229c:	b006      	add	sp, #24
 800229e:	bd10      	pop	{r4, pc}
    __HAL_RCC_GPIOB_CLK_ENABLE();
 80022a0:	4a0a      	ldr	r2, [pc, #40]	; (80022cc <HAL_TIM_MspPostInit+0x48>)
 80022a2:	6ad1      	ldr	r1, [r2, #44]	; 0x2c
 80022a4:	2302      	movs	r3, #2
 80022a6:	4319      	orrs	r1, r3
 80022a8:	62d1      	str	r1, [r2, #44]	; 0x2c
 80022aa:	6ad2      	ldr	r2, [r2, #44]	; 0x2c
 80022ac:	401a      	ands	r2, r3
 80022ae:	9200      	str	r2, [sp, #0]
 80022b0:	9a00      	ldr	r2, [sp, #0]
    GPIO_InitStruct.Pin = GPIO_PIN_13;
 80022b2:	2280      	movs	r2, #128	; 0x80
 80022b4:	0192      	lsls	r2, r2, #6
 80022b6:	9201      	str	r2, [sp, #4]
    GPIO_InitStruct.Mode = GPIO_MODE_AF_PP;
 80022b8:	9302      	str	r3, [sp, #8]
    GPIO_InitStruct.Alternate = GPIO_AF6_TIM21;
 80022ba:	3304      	adds	r3, #4
 80022bc:	9305      	str	r3, [sp, #20]
    HAL_GPIO_Init(GPIOB, &GPIO_InitStruct);
 80022be:	a901      	add	r1, sp, #4
 80022c0:	4803      	ldr	r0, [pc, #12]	; (80022d0 <HAL_TIM_MspPostInit+0x4c>)
 80022c2:	f000 f997 	bl	80025f4 <HAL_GPIO_Init>
}
 80022c6:	e7e9      	b.n	800229c <HAL_TIM_MspPostInit+0x18>
 80022c8:	40010800 	.word	0x40010800
 80022cc:	40021000 	.word	0x40021000
 80022d0:	50000400 	.word	0x50000400

080022d4 <MX_TIM21_Init>:
{
 80022d4:	b500      	push	{lr}
 80022d6:	b08b      	sub	sp, #44	; 0x2c
  TIM_ClockConfigTypeDef sClockSourceConfig = {0};
 80022d8:	2210      	movs	r2, #16
 80022da:	2100      	movs	r1, #0
 80022dc:	a806      	add	r0, sp, #24
 80022de:	f002 fb1c 	bl	800491a <memset>
  TIM_MasterConfigTypeDef sMasterConfig = {0};
 80022e2:	2208      	movs	r2, #8
 80022e4:	2100      	movs	r1, #0
 80022e6:	a804      	add	r0, sp, #16
 80022e8:	f002 fb17 	bl	800491a <memset>
  TIM_OC_InitTypeDef sConfigOC = {0};
 80022ec:	2210      	movs	r2, #16
 80022ee:	2100      	movs	r1, #0
 80022f0:	4668      	mov	r0, sp
 80022f2:	f002 fb12 	bl	800491a <memset>
  htim21.Instance = TIM21;
 80022f6:	4825      	ldr	r0, [pc, #148]	; (800238c <MX_TIM21_Init+0xb8>)
 80022f8:	4b25      	ldr	r3, [pc, #148]	; (8002390 <MX_TIM21_Init+0xbc>)
 80022fa:	6003      	str	r3, [r0, #0]
  htim21.Init.Prescaler = 99;
 80022fc:	2363      	movs	r3, #99	; 0x63
 80022fe:	6043      	str	r3, [r0, #4]
  htim21.Init.CounterMode = TIM_COUNTERMODE_UP;
 8002300:	2300      	movs	r3, #0
 8002302:	6083      	str	r3, [r0, #8]
  htim21.Init.Period = 999;
 8002304:	4a23      	ldr	r2, [pc, #140]	; (8002394 <MX_TIM21_Init+0xc0>)
 8002306:	60c2      	str	r2, [r0, #12]
  htim21.Init.ClockDivision = TIM_CLOCKDIVISION_DIV1;
 8002308:	6103      	str	r3, [r0, #16]
  htim21.Init.AutoReloadPreload = TIM_AUTORELOAD_PRELOAD_ENABLE;
 800230a:	3380      	adds	r3, #128	; 0x80
 800230c:	6143      	str	r3, [r0, #20]
  if (HAL_TIM_Base_Init(&htim21) != HAL_OK)
 800230e:	f001 fc64 	bl	8003bda <HAL_TIM_Base_Init>
 8002312:	2800      	cmp	r0, #0
 8002314:	d12a      	bne.n	800236c <MX_TIM21_Init+0x98>
  sClockSourceConfig.ClockSource = TIM_CLOCKSOURCE_INTERNAL;
 8002316:	2380      	movs	r3, #128	; 0x80
 8002318:	015b      	lsls	r3, r3, #5
 800231a:	9306      	str	r3, [sp, #24]
  if (HAL_TIM_ConfigClockSource(&htim21, &sClockSourceConfig) != HAL_OK)
 800231c:	a906      	add	r1, sp, #24
 800231e:	481b      	ldr	r0, [pc, #108]	; (800238c <MX_TIM21_Init+0xb8>)
 8002320:	f001 fe40 	bl	8003fa4 <HAL_TIM_ConfigClockSource>
 8002324:	2800      	cmp	r0, #0
 8002326:	d124      	bne.n	8002372 <MX_TIM21_Init+0x9e>
  if (HAL_TIM_PWM_Init(&htim21) != HAL_OK)
 8002328:	4818      	ldr	r0, [pc, #96]	; (800238c <MX_TIM21_Init+0xb8>)
 800232a:	f001 fcc6 	bl	8003cba <HAL_TIM_PWM_Init>
 800232e:	2800      	cmp	r0, #0
 8002330:	d122      	bne.n	8002378 <MX_TIM21_Init+0xa4>
  sMasterConfig.MasterOutputTrigger = TIM_TRGO_UPDATE;
 8002332:	2320      	movs	r3, #32
 8002334:	9304      	str	r3, [sp, #16]
  sMasterConfig.MasterSlaveMode = TIM_MASTERSLAVEMODE_ENABLE;
 8002336:	3360      	adds	r3, #96	; 0x60
 8002338:	9305      	str	r3, [sp, #20]
  if (HAL_TIMEx_MasterConfigSynchronization(&htim21, &sMasterConfig) != HAL_OK)
 800233a:	a904      	add	r1, sp, #16
 800233c:	4813      	ldr	r0, [pc, #76]	; (800238c <MX_TIM21_Init+0xb8>)
 800233e:	f001 ffcb 	bl	80042d8 <HAL_TIMEx_MasterConfigSynchronization>
 8002342:	2800      	cmp	r0, #0
 8002344:	d11b      	bne.n	800237e <MX_TIM21_Init+0xaa>
  sConfigOC.OCMode = TIM_OCMODE_PWM1;
 8002346:	2360      	movs	r3, #96	; 0x60
 8002348:	9300      	str	r3, [sp, #0]
  sConfigOC.Pulse = 100;
 800234a:	3304      	adds	r3, #4
 800234c:	9301      	str	r3, [sp, #4]
  sConfigOC.OCPolarity = TIM_OCPOLARITY_HIGH;
 800234e:	2300      	movs	r3, #0
 8002350:	9302      	str	r3, [sp, #8]
  sConfigOC.OCFastMode = TIM_OCFAST_DISABLE;
 8002352:	9303      	str	r3, [sp, #12]
  if (HAL_TIM_PWM_ConfigChannel(&htim21, &sConfigOC, TIM_CHANNEL_1) != HAL_OK)
 8002354:	2200      	movs	r2, #0
 8002356:	4669      	mov	r1, sp
 8002358:	480c      	ldr	r0, [pc, #48]	; (800238c <MX_TIM21_Init+0xb8>)
 800235a:	f001 fd7f 	bl	8003e5c <HAL_TIM_PWM_ConfigChannel>
 800235e:	2800      	cmp	r0, #0
 8002360:	d110      	bne.n	8002384 <MX_TIM21_Init+0xb0>
  HAL_TIM_MspPostInit(&htim21);
 8002362:	480a      	ldr	r0, [pc, #40]	; (800238c <MX_TIM21_Init+0xb8>)
 8002364:	f7ff ff8e 	bl	8002284 <HAL_TIM_MspPostInit>
}
 8002368:	b00b      	add	sp, #44	; 0x2c
 800236a:	bd00      	pop	{pc}
    Error_Handler();
 800236c:	f7fe fbb2 	bl	8000ad4 <Error_Handler>
 8002370:	e7d1      	b.n	8002316 <MX_TIM21_Init+0x42>
    Error_Handler();
 8002372:	f7fe fbaf 	bl	8000ad4 <Error_Handler>
 8002376:	e7d7      	b.n	8002328 <MX_TIM21_Init+0x54>
    Error_Handler();
 8002378:	f7fe fbac 	bl	8000ad4 <Error_Handler>
 800237c:	e7d9      	b.n	8002332 <MX_TIM21_Init+0x5e>
    Error_Handler();
 800237e:	f7fe fba9 	bl	8000ad4 <Error_Handler>
 8002382:	e7e0      	b.n	8002346 <MX_TIM21_Init+0x72>
    Error_Handler();
 8002384:	f7fe fba6 	bl	8000ad4 <Error_Handler>
 8002388:	e7eb      	b.n	8002362 <MX_TIM21_Init+0x8e>
 800238a:	46c0      	nop			; (mov r8, r8)
 800238c:	20000680 	.word	0x20000680
 8002390:	40010800 	.word	0x40010800
 8002394:	000003e7 	.word	0x000003e7

08002398 <MX_USART2_UART_Init>:
UART_HandleTypeDef huart2;

/* USART2 init function */

void MX_USART2_UART_Init(void)
{
 8002398:	b510      	push	{r4, lr}
  /* USER CODE END USART2_Init 0 */

  /* USER CODE BEGIN USART2_Init 1 */

  /* USER CODE END USART2_Init 1 */
  huart2.Instance = USART2;
 800239a:	480c      	ldr	r0, [pc, #48]	; (80023cc <MX_USART2_UART_Init+0x34>)
 800239c:	4b0c      	ldr	r3, [pc, #48]	; (80023d0 <MX_USART2_UART_Init+0x38>)
 800239e:	6003      	str	r3, [r0, #0]
  huart2.Init.BaudRate = 115200;
 80023a0:	23e1      	movs	r3, #225	; 0xe1
 80023a2:	025b      	lsls	r3, r3, #9
 80023a4:	6043      	str	r3, [r0, #4]
  huart2.Init.WordLength = UART_WORDLENGTH_8B;
 80023a6:	2300      	movs	r3, #0
 80023a8:	6083      	str	r3, [r0, #8]
  huart2.Init.StopBits = UART_STOPBITS_1;
 80023aa:	60c3      	str	r3, [r0, #12]
  huart2.Init.Parity = UART_PARITY_NONE;
 80023ac:	6103      	str	r3, [r0, #16]
  huart2.Init.Mode = UART_MODE_TX_RX;
 80023ae:	220c      	movs	r2, #12
 80023b0:	6142      	str	r2, [r0, #20]
  huart2.Init.HwFlowCtl = UART_HWCONTROL_NONE;
 80023b2:	6183      	str	r3, [r0, #24]
  huart2.Init.OverSampling = UART_OVERSAMPLING_16;
 80023b4:	61c3      	str	r3, [r0, #28]
  huart2.Init.OneBitSampling = UART_ONE_BIT_SAMPLE_DISABLE;
 80023b6:	6203      	str	r3, [r0, #32]
  huart2.AdvancedInit.AdvFeatureInit = UART_ADVFEATURE_NO_INIT;
 80023b8:	6243      	str	r3, [r0, #36]	; 0x24
  if (HAL_UART_Init(&huart2) != HAL_OK)
 80023ba:	f002 fa45 	bl	8004848 <HAL_UART_Init>
 80023be:	2800      	cmp	r0, #0
 80023c0:	d100      	bne.n	80023c4 <MX_USART2_UART_Init+0x2c>
  }
  /* USER CODE BEGIN USART2_Init 2 */

  /* USER CODE END USART2_Init 2 */

}
 80023c2:	bd10      	pop	{r4, pc}
    Error_Handler();
 80023c4:	f7fe fb86 	bl	8000ad4 <Error_Handler>
}
 80023c8:	e7fb      	b.n	80023c2 <MX_USART2_UART_Init+0x2a>
 80023ca:	46c0      	nop			; (mov r8, r8)
 80023cc:	20000780 	.word	0x20000780
 80023d0:	40004400 	.word	0x40004400

080023d4 <HAL_UART_MspInit>:

void HAL_UART_MspInit(UART_HandleTypeDef* uartHandle)
{
 80023d4:	b510      	push	{r4, lr}
 80023d6:	b086      	sub	sp, #24
 80023d8:	0004      	movs	r4, r0

  GPIO_InitTypeDef GPIO_InitStruct = {0};
 80023da:	2214      	movs	r2, #20
 80023dc:	2100      	movs	r1, #0
 80023de:	a801      	add	r0, sp, #4
 80023e0:	f002 fa9b 	bl	800491a <memset>
  if(uartHandle->Instance==USART2)
 80023e4:	4b10      	ldr	r3, [pc, #64]	; (8002428 <HAL_UART_MspInit+0x54>)
 80023e6:	6822      	ldr	r2, [r4, #0]
 80023e8:	429a      	cmp	r2, r3
 80023ea:	d001      	beq.n	80023f0 <HAL_UART_MspInit+0x1c>

  /* USER CODE BEGIN USART2_MspInit 1 */

  /* USER CODE END USART2_MspInit 1 */
  }
}
 80023ec:	b006      	add	sp, #24
 80023ee:	bd10      	pop	{r4, pc}
    __HAL_RCC_USART2_CLK_ENABLE();
 80023f0:	4b0e      	ldr	r3, [pc, #56]	; (800242c <HAL_UART_MspInit+0x58>)
 80023f2:	6b99      	ldr	r1, [r3, #56]	; 0x38
 80023f4:	2280      	movs	r2, #128	; 0x80
 80023f6:	0292      	lsls	r2, r2, #10
 80023f8:	430a      	orrs	r2, r1
 80023fa:	639a      	str	r2, [r3, #56]	; 0x38
    __HAL_RCC_GPIOA_CLK_ENABLE();
 80023fc:	6ad9      	ldr	r1, [r3, #44]	; 0x2c
 80023fe:	2201      	movs	r2, #1
 8002400:	4311      	orrs	r1, r2
 8002402:	62d9      	str	r1, [r3, #44]	; 0x2c
 8002404:	6adb      	ldr	r3, [r3, #44]	; 0x2c
 8002406:	401a      	ands	r2, r3
 8002408:	9200      	str	r2, [sp, #0]
 800240a:	9b00      	ldr	r3, [sp, #0]
    GPIO_InitStruct.Pin = USART_TX_Pin|USART_RX_Pin;
 800240c:	230c      	movs	r3, #12
 800240e:	9301      	str	r3, [sp, #4]
    GPIO_InitStruct.Mode = GPIO_MODE_AF_PP;
 8002410:	3b0a      	subs	r3, #10
 8002412:	9302      	str	r3, [sp, #8]
    GPIO_InitStruct.Speed = GPIO_SPEED_FREQ_VERY_HIGH;
 8002414:	3301      	adds	r3, #1
 8002416:	9304      	str	r3, [sp, #16]
    GPIO_InitStruct.Alternate = GPIO_AF4_USART2;
 8002418:	3301      	adds	r3, #1
 800241a:	9305      	str	r3, [sp, #20]
    HAL_GPIO_Init(GPIOA, &GPIO_InitStruct);
 800241c:	20a0      	movs	r0, #160	; 0xa0
 800241e:	a901      	add	r1, sp, #4
 8002420:	05c0      	lsls	r0, r0, #23
 8002422:	f000 f8e7 	bl	80025f4 <HAL_GPIO_Init>
}
 8002426:	e7e1      	b.n	80023ec <HAL_UART_MspInit+0x18>
 8002428:	40004400 	.word	0x40004400
 800242c:	40021000 	.word	0x40021000

08002430 <Reset_Handler>:

    .section  .text.Reset_Handler
  .weak  Reset_Handler
  .type  Reset_Handler, %function
Reset_Handler:  
   ldr   r0, =_estack
 8002430:	480d      	ldr	r0, [pc, #52]	; (8002468 <LoopForever+0x2>)
   mov   sp, r0          /* set stack pointer */
 8002432:	4685      	mov	sp, r0

/* Copy the data segment initializers from flash to SRAM */
  ldr r0, =_sdata
 8002434:	480d      	ldr	r0, [pc, #52]	; (800246c <LoopForever+0x6>)
  ldr r1, =_edata
 8002436:	490e      	ldr	r1, [pc, #56]	; (8002470 <LoopForever+0xa>)
  ldr r2, =_sidata
 8002438:	4a0e      	ldr	r2, [pc, #56]	; (8002474 <LoopForever+0xe>)
  movs r3, #0
 800243a:	2300      	movs	r3, #0
  b LoopCopyDataInit
 800243c:	e002      	b.n	8002444 <LoopCopyDataInit>

0800243e <CopyDataInit>:

CopyDataInit:
  ldr r4, [r2, r3]
 800243e:	58d4      	ldr	r4, [r2, r3]
  str r4, [r0, r3]
 8002440:	50c4      	str	r4, [r0, r3]
  adds r3, r3, #4
 8002442:	3304      	adds	r3, #4

08002444 <LoopCopyDataInit>:

LoopCopyDataInit:
  adds r4, r0, r3
 8002444:	18c4      	adds	r4, r0, r3
  cmp r4, r1
 8002446:	428c      	cmp	r4, r1
  bcc CopyDataInit
 8002448:	d3f9      	bcc.n	800243e <CopyDataInit>
  
/* Zero fill the bss segment. */
  ldr r2, =_sbss
 800244a:	4a0b      	ldr	r2, [pc, #44]	; (8002478 <LoopForever+0x12>)
  ldr r4, =_ebss
 800244c:	4c0b      	ldr	r4, [pc, #44]	; (800247c <LoopForever+0x16>)
  movs r3, #0
 800244e:	2300      	movs	r3, #0
  b LoopFillZerobss
 8002450:	e001      	b.n	8002456 <LoopFillZerobss>

08002452 <FillZerobss>:

FillZerobss:
  str  r3, [r2]
 8002452:	6013      	str	r3, [r2, #0]
  adds r2, r2, #4
 8002454:	3204      	adds	r2, #4

08002456 <LoopFillZerobss>:

LoopFillZerobss:
  cmp r2, r4
 8002456:	42a2      	cmp	r2, r4
  bcc FillZerobss
 8002458:	d3fb      	bcc.n	8002452 <FillZerobss>

/* Call the clock system intitialization function.*/
  bl  SystemInit
 800245a:	f7ff fdc1 	bl	8001fe0 <SystemInit>
/* Call static constructors */
    bl __libc_init_array
 800245e:	f002 fa2f 	bl	80048c0 <__libc_init_array>
/* Call the application's entry point.*/
  bl  main
 8002462:	f7fe f975 	bl	8000750 <main>

08002466 <LoopForever>:

LoopForever:
    b LoopForever
 8002466:	e7fe      	b.n	8002466 <LoopForever>
   ldr   r0, =_estack
 8002468:	20005000 	.word	0x20005000
  ldr r0, =_sdata
 800246c:	20000000 	.word	0x20000000
  ldr r1, =_edata
 8002470:	20000084 	.word	0x20000084
  ldr r2, =_sidata
 8002474:	08007ee8 	.word	0x08007ee8
  ldr r2, =_sbss
 8002478:	20000084 	.word	0x20000084
  ldr r4, =_ebss
 800247c:	20000818 	.word	0x20000818

08002480 <ADC1_COMP_IRQHandler>:
 * @retval : None
*/
    .section  .text.Default_Handler,"ax",%progbits
Default_Handler:
Infinite_Loop:
  b  Infinite_Loop
 8002480:	e7fe      	b.n	8002480 <ADC1_COMP_IRQHandler>
	...

08002484 <HAL_InitTick>:
  *       implementation  in user file.
  * @param TickPriority Tick interrupt priority.
  * @retval HAL status
  */
__weak HAL_StatusTypeDef HAL_InitTick(uint32_t TickPriority)
{
 8002484:	b510      	push	{r4, lr}
 8002486:	0004      	movs	r4, r0
  /* Configure the SysTick to have interrupt in 1ms time basis*/
  if (HAL_SYSTICK_Config(SystemCoreClock / (1000U / uwTickFreq)) > 0U)
 8002488:	4b0e      	ldr	r3, [pc, #56]	; (80024c4 <HAL_InitTick+0x40>)
 800248a:	7819      	ldrb	r1, [r3, #0]
 800248c:	20fa      	movs	r0, #250	; 0xfa
 800248e:	0080      	lsls	r0, r0, #2
 8002490:	f7fd fe44 	bl	800011c <__udivsi3>
 8002494:	0001      	movs	r1, r0
 8002496:	4b0c      	ldr	r3, [pc, #48]	; (80024c8 <HAL_InitTick+0x44>)
 8002498:	6818      	ldr	r0, [r3, #0]
 800249a:	f7fd fe3f 	bl	800011c <__udivsi3>
 800249e:	f000 f88d 	bl	80025bc <HAL_SYSTICK_Config>
 80024a2:	2800      	cmp	r0, #0
 80024a4:	d10b      	bne.n	80024be <HAL_InitTick+0x3a>
    HAL_NVIC_SetPriority(SysTick_IRQn, TickPriority, 0U);
    uwTickPrio = TickPriority;
  }
  else
  {
    return HAL_ERROR;
 80024a6:	3001      	adds	r0, #1
  if (TickPriority < (1UL << __NVIC_PRIO_BITS))
 80024a8:	2c03      	cmp	r4, #3
 80024aa:	d809      	bhi.n	80024c0 <HAL_InitTick+0x3c>
    HAL_NVIC_SetPriority(SysTick_IRQn, TickPriority, 0U);
 80024ac:	2200      	movs	r2, #0
 80024ae:	0021      	movs	r1, r4
 80024b0:	4240      	negs	r0, r0
 80024b2:	f000 f845 	bl	8002540 <HAL_NVIC_SetPriority>
    uwTickPrio = TickPriority;
 80024b6:	4b05      	ldr	r3, [pc, #20]	; (80024cc <HAL_InitTick+0x48>)
 80024b8:	601c      	str	r4, [r3, #0]
  }

  /* Return function status */
  return HAL_OK;
 80024ba:	2000      	movs	r0, #0
 80024bc:	e000      	b.n	80024c0 <HAL_InitTick+0x3c>
    return HAL_ERROR;
 80024be:	2001      	movs	r0, #1
}
 80024c0:	bd10      	pop	{r4, pc}
 80024c2:	46c0      	nop			; (mov r8, r8)
 80024c4:	20000018 	.word	0x20000018
 80024c8:	20000014 	.word	0x20000014
 80024cc:	2000001c 	.word	0x2000001c

080024d0 <HAL_Init>:
{
 80024d0:	b510      	push	{r4, lr}
  __HAL_FLASH_PREREAD_BUFFER_ENABLE();
 80024d2:	4a08      	ldr	r2, [pc, #32]	; (80024f4 <HAL_Init+0x24>)
 80024d4:	6813      	ldr	r3, [r2, #0]
 80024d6:	2140      	movs	r1, #64	; 0x40
 80024d8:	430b      	orrs	r3, r1
 80024da:	6013      	str	r3, [r2, #0]
  if (HAL_InitTick(TICK_INT_PRIORITY) != HAL_OK)
 80024dc:	2000      	movs	r0, #0
 80024de:	f7ff ffd1 	bl	8002484 <HAL_InitTick>
 80024e2:	1e04      	subs	r4, r0, #0
 80024e4:	d002      	beq.n	80024ec <HAL_Init+0x1c>
    status = HAL_ERROR;
 80024e6:	2401      	movs	r4, #1
}
 80024e8:	0020      	movs	r0, r4
 80024ea:	bd10      	pop	{r4, pc}
    HAL_MspInit();
 80024ec:	f7ff fd10 	bl	8001f10 <HAL_MspInit>
 80024f0:	e7fa      	b.n	80024e8 <HAL_Init+0x18>
 80024f2:	46c0      	nop			; (mov r8, r8)
 80024f4:	40022000 	.word	0x40022000

080024f8 <HAL_IncTick>:
  *      implementations in user file.
  * @retval None
  */
__weak void HAL_IncTick(void)
{
  uwTick += uwTickFreq;
 80024f8:	4a03      	ldr	r2, [pc, #12]	; (8002508 <HAL_IncTick+0x10>)
 80024fa:	6811      	ldr	r1, [r2, #0]
 80024fc:	4b03      	ldr	r3, [pc, #12]	; (800250c <HAL_IncTick+0x14>)
 80024fe:	781b      	ldrb	r3, [r3, #0]
 8002500:	185b      	adds	r3, r3, r1
 8002502:	6013      	str	r3, [r2, #0]
}
 8002504:	4770      	bx	lr
 8002506:	46c0      	nop			; (mov r8, r8)
 8002508:	20000804 	.word	0x20000804
 800250c:	20000018 	.word	0x20000018

08002510 <HAL_GetTick>:
  *       implementations in user file.
  * @retval tick value
  */
__weak uint32_t HAL_GetTick(void)
{
  return uwTick;
 8002510:	4b01      	ldr	r3, [pc, #4]	; (8002518 <HAL_GetTick+0x8>)
 8002512:	6818      	ldr	r0, [r3, #0]
}
 8002514:	4770      	bx	lr
 8002516:	46c0      	nop			; (mov r8, r8)
 8002518:	20000804 	.word	0x20000804

0800251c <HAL_Delay>:
  *       implementations in user file.
  * @param Delay specifies the delay time length, in milliseconds.
  * @retval None
  */
__weak void HAL_Delay(uint32_t Delay)
{
 800251c:	b570      	push	{r4, r5, r6, lr}
 800251e:	0004      	movs	r4, r0
  uint32_t tickstart = HAL_GetTick();
 8002520:	f7ff fff6 	bl	8002510 <HAL_GetTick>
 8002524:	0005      	movs	r5, r0
  uint32_t wait = Delay;

  /* Add a freq to guarantee minimum wait */
  if (wait < HAL_MAX_DELAY)
 8002526:	1c63      	adds	r3, r4, #1
 8002528:	d002      	beq.n	8002530 <HAL_Delay+0x14>
  {
    wait += (uint32_t)(uwTickFreq);
 800252a:	4b04      	ldr	r3, [pc, #16]	; (800253c <HAL_Delay+0x20>)
 800252c:	781b      	ldrb	r3, [r3, #0]
 800252e:	18e4      	adds	r4, r4, r3
  }

  while((HAL_GetTick() - tickstart) < wait)
 8002530:	f7ff ffee 	bl	8002510 <HAL_GetTick>
 8002534:	1b40      	subs	r0, r0, r5
 8002536:	42a0      	cmp	r0, r4
 8002538:	d3fa      	bcc.n	8002530 <HAL_Delay+0x14>
  {
  }
}
 800253a:	bd70      	pop	{r4, r5, r6, pc}
 800253c:	20000018 	.word	0x20000018

08002540 <HAL_NVIC_SetPriority>:
  *         with stm32l0xx devices, this parameter is a dummy value and it is ignored, because 
  *         no subpriority supported in Cortex M0+ based products.   
  * @retval None
  */
void HAL_NVIC_SetPriority(IRQn_Type IRQn, uint32_t PreemptPriority, uint32_t SubPriority)
{ 
 8002540:	b570      	push	{r4, r5, r6, lr}
  \param [in]  priority  Priority to set.
  \note    The priority cannot be set for every processor exception.
 */
__STATIC_INLINE void __NVIC_SetPriority(IRQn_Type IRQn, uint32_t priority)
{
  if ((int32_t)(IRQn) >= 0)
 8002542:	2800      	cmp	r0, #0
 8002544:	db14      	blt.n	8002570 <HAL_NVIC_SetPriority+0x30>
  {
    NVIC->IP[_IP_IDX(IRQn)]  = ((uint32_t)(NVIC->IP[_IP_IDX(IRQn)]  & ~(0xFFUL << _BIT_SHIFT(IRQn))) |
 8002546:	0884      	lsrs	r4, r0, #2
 8002548:	00a4      	lsls	r4, r4, #2
 800254a:	4b14      	ldr	r3, [pc, #80]	; (800259c <HAL_NVIC_SetPriority+0x5c>)
 800254c:	469c      	mov	ip, r3
 800254e:	4464      	add	r4, ip
 8002550:	26c0      	movs	r6, #192	; 0xc0
 8002552:	00b6      	lsls	r6, r6, #2
 8002554:	59a5      	ldr	r5, [r4, r6]
 8002556:	2203      	movs	r2, #3
 8002558:	4010      	ands	r0, r2
 800255a:	00c0      	lsls	r0, r0, #3
 800255c:	23ff      	movs	r3, #255	; 0xff
 800255e:	001a      	movs	r2, r3
 8002560:	4082      	lsls	r2, r0
 8002562:	4395      	bics	r5, r2
       (((priority << (8U - __NVIC_PRIO_BITS)) & (uint32_t)0xFFUL) << _BIT_SHIFT(IRQn)));
 8002564:	0189      	lsls	r1, r1, #6
 8002566:	400b      	ands	r3, r1
 8002568:	4083      	lsls	r3, r0
    NVIC->IP[_IP_IDX(IRQn)]  = ((uint32_t)(NVIC->IP[_IP_IDX(IRQn)]  & ~(0xFFUL << _BIT_SHIFT(IRQn))) |
 800256a:	432b      	orrs	r3, r5
 800256c:	51a3      	str	r3, [r4, r6]
    /* Check the parameters */
  assert_param(IS_NVIC_PREEMPTION_PRIORITY(PreemptPriority));
  NVIC_SetPriority(IRQn,PreemptPriority);
}
 800256e:	bd70      	pop	{r4, r5, r6, pc}
  }
  else
  {
    SCB->SHP[_SHP_IDX(IRQn)] = ((uint32_t)(SCB->SHP[_SHP_IDX(IRQn)] & ~(0xFFUL << _BIT_SHIFT(IRQn))) |
 8002570:	230f      	movs	r3, #15
 8002572:	4003      	ands	r3, r0
 8002574:	3b08      	subs	r3, #8
 8002576:	089b      	lsrs	r3, r3, #2
 8002578:	009b      	lsls	r3, r3, #2
 800257a:	4a09      	ldr	r2, [pc, #36]	; (80025a0 <HAL_NVIC_SetPriority+0x60>)
 800257c:	4694      	mov	ip, r2
 800257e:	4463      	add	r3, ip
 8002580:	69dc      	ldr	r4, [r3, #28]
 8002582:	2203      	movs	r2, #3
 8002584:	4010      	ands	r0, r2
 8002586:	00c0      	lsls	r0, r0, #3
 8002588:	32fc      	adds	r2, #252	; 0xfc
 800258a:	0015      	movs	r5, r2
 800258c:	4085      	lsls	r5, r0
 800258e:	43ac      	bics	r4, r5
       (((priority << (8U - __NVIC_PRIO_BITS)) & (uint32_t)0xFFUL) << _BIT_SHIFT(IRQn)));
 8002590:	0189      	lsls	r1, r1, #6
 8002592:	400a      	ands	r2, r1
 8002594:	4082      	lsls	r2, r0
    SCB->SHP[_SHP_IDX(IRQn)] = ((uint32_t)(SCB->SHP[_SHP_IDX(IRQn)] & ~(0xFFUL << _BIT_SHIFT(IRQn))) |
 8002596:	4322      	orrs	r2, r4
 8002598:	61da      	str	r2, [r3, #28]
 800259a:	e7e8      	b.n	800256e <HAL_NVIC_SetPriority+0x2e>
 800259c:	e000e100 	.word	0xe000e100
 80025a0:	e000ed00 	.word	0xe000ed00

080025a4 <HAL_NVIC_EnableIRQ>:
  if ((int32_t)(IRQn) >= 0)
 80025a4:	2800      	cmp	r0, #0
 80025a6:	db05      	blt.n	80025b4 <HAL_NVIC_EnableIRQ+0x10>
    NVIC->ISER[0U] = (uint32_t)(1UL << (((uint32_t)IRQn) & 0x1FUL));
 80025a8:	231f      	movs	r3, #31
 80025aa:	4018      	ands	r0, r3
 80025ac:	3b1e      	subs	r3, #30
 80025ae:	4083      	lsls	r3, r0
 80025b0:	4a01      	ldr	r2, [pc, #4]	; (80025b8 <HAL_NVIC_EnableIRQ+0x14>)
 80025b2:	6013      	str	r3, [r2, #0]
  /* Check the parameters */
  assert_param(IS_NVIC_DEVICE_IRQ(IRQn));
  
  /* Enable interrupt */
  NVIC_EnableIRQ(IRQn);
}
 80025b4:	4770      	bx	lr
 80025b6:	46c0      	nop			; (mov r8, r8)
 80025b8:	e000e100 	.word	0xe000e100

080025bc <HAL_SYSTICK_Config>:
           function <b>SysTick_Config</b> is not included. In this case, the file <b><i>device</i>.h</b>
           must contain a vendor-specific implementation of this function.
 */
__STATIC_INLINE uint32_t SysTick_Config(uint32_t ticks)
{
  if ((ticks - 1UL) > SysTick_LOAD_RELOAD_Msk)
 80025bc:	3801      	subs	r0, #1
 80025be:	2380      	movs	r3, #128	; 0x80
 80025c0:	045b      	lsls	r3, r3, #17
 80025c2:	4298      	cmp	r0, r3
 80025c4:	d20f      	bcs.n	80025e6 <HAL_SYSTICK_Config+0x2a>
  {
    return (1UL);                                                   /* Reload value impossible */
  }

  SysTick->LOAD  = (uint32_t)(ticks - 1UL);                         /* set reload register */
 80025c6:	4a09      	ldr	r2, [pc, #36]	; (80025ec <HAL_SYSTICK_Config+0x30>)
 80025c8:	6050      	str	r0, [r2, #4]
    SCB->SHP[_SHP_IDX(IRQn)] = ((uint32_t)(SCB->SHP[_SHP_IDX(IRQn)] & ~(0xFFUL << _BIT_SHIFT(IRQn))) |
 80025ca:	4809      	ldr	r0, [pc, #36]	; (80025f0 <HAL_SYSTICK_Config+0x34>)
 80025cc:	6a03      	ldr	r3, [r0, #32]
 80025ce:	021b      	lsls	r3, r3, #8
 80025d0:	0a1b      	lsrs	r3, r3, #8
 80025d2:	21c0      	movs	r1, #192	; 0xc0
 80025d4:	0609      	lsls	r1, r1, #24
 80025d6:	430b      	orrs	r3, r1
 80025d8:	6203      	str	r3, [r0, #32]
  NVIC_SetPriority (SysTick_IRQn, (1UL << __NVIC_PRIO_BITS) - 1UL); /* set Priority for Systick Interrupt */
  SysTick->VAL   = 0UL;                                             /* Load the SysTick Counter Value */
 80025da:	2300      	movs	r3, #0
 80025dc:	6093      	str	r3, [r2, #8]
  SysTick->CTRL  = SysTick_CTRL_CLKSOURCE_Msk |
 80025de:	3307      	adds	r3, #7
 80025e0:	6013      	str	r3, [r2, #0]
                   SysTick_CTRL_TICKINT_Msk   |
                   SysTick_CTRL_ENABLE_Msk;                         /* Enable SysTick IRQ and SysTick Timer */
  return (0UL);                                                     /* Function successful */
 80025e2:	2000      	movs	r0, #0
  *                  - 1  Function failed.
  */
uint32_t HAL_SYSTICK_Config(uint32_t TicksNumb)
{
   return SysTick_Config(TicksNumb);
}
 80025e4:	4770      	bx	lr
    return (1UL);                                                   /* Reload value impossible */
 80025e6:	2001      	movs	r0, #1
   return SysTick_Config(TicksNumb);
 80025e8:	e7fc      	b.n	80025e4 <HAL_SYSTICK_Config+0x28>
 80025ea:	46c0      	nop			; (mov r8, r8)
 80025ec:	e000e010 	.word	0xe000e010
 80025f0:	e000ed00 	.word	0xe000ed00

080025f4 <HAL_GPIO_Init>:
  * @param  GPIO_Init pointer to a GPIO_InitTypeDef structure that contains
  *                    the configuration information for the specified GPIO peripheral.
  * @retval None
  */
void HAL_GPIO_Init(GPIO_TypeDef  *GPIOx, GPIO_InitTypeDef *GPIO_Init)
{
 80025f4:	b5f0      	push	{r4, r5, r6, r7, lr}
 80025f6:	46de      	mov	lr, fp
 80025f8:	4657      	mov	r7, sl
 80025fa:	464e      	mov	r6, r9
 80025fc:	4645      	mov	r5, r8
 80025fe:	b5e0      	push	{r5, r6, r7, lr}
 8002600:	b083      	sub	sp, #12
  /* Check the parameters */
  assert_param(IS_GPIO_MODE(GPIO_Init->Mode));
  assert_param(IS_GPIO_PIN_AVAILABLE(GPIOx, (GPIO_Init->Pin)));

  /* Configure the port pins */
  while (((GPIO_Init->Pin) >> position) != 0)
 8002602:	680e      	ldr	r6, [r1, #0]
 8002604:	2e00      	cmp	r6, #0
 8002606:	d100      	bne.n	800260a <HAL_GPIO_Init+0x16>
 8002608:	e0d6      	b.n	80027b8 <HAL_GPIO_Init+0x1c4>
 800260a:	2200      	movs	r2, #0
  uint32_t position = 0x00U;
 800260c:	2300      	movs	r3, #0

    if (iocurrent)
    {
      /*--------------------- GPIO Mode Configuration ------------------------*/
      /* In case of Output or Alternate function mode selection */
      if (((GPIO_Init->Mode & GPIO_MODE) == MODE_OUTPUT) ||
 800260e:	2403      	movs	r4, #3
      temp |= ((GPIO_Init->Mode & GPIO_MODE) << (position * 2U));
      GPIOx->MODER = temp;

      /*--------------------- EXTI Mode Configuration ------------------------*/
      /* Configure the External Interrupt or event for the current IO */
      if ((GPIO_Init->Mode & EXTI_MODE) != 0x00U)
 8002610:	25c0      	movs	r5, #192	; 0xc0
 8002612:	02ad      	lsls	r5, r5, #10
 8002614:	46ab      	mov	fp, r5
      {
        /* Enable SYSCFG Clock */
        __HAL_RCC_SYSCFG_CLK_ENABLE();
 8002616:	4d6c      	ldr	r5, [pc, #432]	; (80027c8 <HAL_GPIO_Init+0x1d4>)
 8002618:	46aa      	mov	sl, r5

        temp = SYSCFG->EXTICR[position >> 2U];
        CLEAR_BIT(temp, (0x0FUL) << (4U * (position & 0x03U)));
        SET_BIT(temp, (GPIO_GET_INDEX(GPIOx)) << (4 * (position & 0x03U)));
 800261a:	4d6c      	ldr	r5, [pc, #432]	; (80027cc <HAL_GPIO_Init+0x1d8>)
 800261c:	1945      	adds	r5, r0, r5
 800261e:	1e6f      	subs	r7, r5, #1
 8002620:	41bd      	sbcs	r5, r7
 8002622:	3505      	adds	r5, #5
 8002624:	9501      	str	r5, [sp, #4]
 8002626:	e044      	b.n	80026b2 <HAL_GPIO_Init+0xbe>
        temp = GPIOx->OSPEEDR;
 8002628:	6886      	ldr	r6, [r0, #8]
        temp &= ~(GPIO_OSPEEDER_OSPEED0 << (position * 2U));
 800262a:	0027      	movs	r7, r4
 800262c:	4097      	lsls	r7, r2
 800262e:	43be      	bics	r6, r7
 8002630:	46b4      	mov	ip, r6
        temp |= (GPIO_Init->Speed << (position * 2U));
 8002632:	68ce      	ldr	r6, [r1, #12]
 8002634:	4096      	lsls	r6, r2
 8002636:	4667      	mov	r7, ip
 8002638:	433e      	orrs	r6, r7
        GPIOx->OSPEEDR = temp;
 800263a:	6086      	str	r6, [r0, #8]
        temp = GPIOx->OTYPER;
 800263c:	6846      	ldr	r6, [r0, #4]
        temp &= ~(GPIO_OTYPER_OT_0 << position) ;
 800263e:	43ae      	bics	r6, r5
        temp |= (((GPIO_Init->Mode & OUTPUT_TYPE) >> OUTPUT_TYPE_Pos) << position);
 8002640:	684d      	ldr	r5, [r1, #4]
 8002642:	092d      	lsrs	r5, r5, #4
 8002644:	2701      	movs	r7, #1
 8002646:	403d      	ands	r5, r7
 8002648:	409d      	lsls	r5, r3
 800264a:	4335      	orrs	r5, r6
        GPIOx->OTYPER = temp;
 800264c:	6045      	str	r5, [r0, #4]
 800264e:	e03c      	b.n	80026ca <HAL_GPIO_Init+0xd6>
        SET_BIT(temp, (GPIO_GET_INDEX(GPIOx)) << (4 * (position & 0x03U)));
 8002650:	2600      	movs	r6, #0
 8002652:	4667      	mov	r7, ip
 8002654:	40be      	lsls	r6, r7
 8002656:	4647      	mov	r7, r8
 8002658:	433e      	orrs	r6, r7
        SYSCFG->EXTICR[position >> 2U] = temp;
 800265a:	60ae      	str	r6, [r5, #8]

        /* Clear EXTI line configuration */
        temp = EXTI->IMR;
 800265c:	4d5c      	ldr	r5, [pc, #368]	; (80027d0 <HAL_GPIO_Init+0x1dc>)
 800265e:	682d      	ldr	r5, [r5, #0]
        temp &= ~((uint32_t)iocurrent);
 8002660:	9e00      	ldr	r6, [sp, #0]
 8002662:	43f6      	mvns	r6, r6
        if ((GPIO_Init->Mode & EXTI_IT) != 0x00U)
 8002664:	684f      	ldr	r7, [r1, #4]
 8002666:	03ff      	lsls	r7, r7, #15
 8002668:	d500      	bpl.n	800266c <HAL_GPIO_Init+0x78>
 800266a:	e099      	b.n	80027a0 <HAL_GPIO_Init+0x1ac>
        temp &= ~((uint32_t)iocurrent);
 800266c:	4035      	ands	r5, r6
        {
          temp |= iocurrent;
        }
        EXTI->IMR = temp;
 800266e:	4f58      	ldr	r7, [pc, #352]	; (80027d0 <HAL_GPIO_Init+0x1dc>)
 8002670:	603d      	str	r5, [r7, #0]

        temp = EXTI->EMR;
 8002672:	687d      	ldr	r5, [r7, #4]
        temp &= ~((uint32_t)iocurrent);
        if ((GPIO_Init->Mode & EXTI_EVT) != 0x00U)
 8002674:	684f      	ldr	r7, [r1, #4]
 8002676:	03bf      	lsls	r7, r7, #14
 8002678:	d500      	bpl.n	800267c <HAL_GPIO_Init+0x88>
 800267a:	e094      	b.n	80027a6 <HAL_GPIO_Init+0x1b2>
        temp &= ~((uint32_t)iocurrent);
 800267c:	4035      	ands	r5, r6
        {
          temp |= iocurrent;
        }
        EXTI->EMR = temp;
 800267e:	4f54      	ldr	r7, [pc, #336]	; (80027d0 <HAL_GPIO_Init+0x1dc>)
 8002680:	607d      	str	r5, [r7, #4]

        /* Clear Rising Falling edge configuration */
        temp = EXTI->RTSR;
 8002682:	68bd      	ldr	r5, [r7, #8]
        temp &= ~((uint32_t)iocurrent);
        if ((GPIO_Init->Mode & TRIGGER_RISING) != 0x00U)
 8002684:	684f      	ldr	r7, [r1, #4]
 8002686:	02ff      	lsls	r7, r7, #11
 8002688:	d500      	bpl.n	800268c <HAL_GPIO_Init+0x98>
 800268a:	e08f      	b.n	80027ac <HAL_GPIO_Init+0x1b8>
        temp &= ~((uint32_t)iocurrent);
 800268c:	4035      	ands	r5, r6
        {
          temp |= iocurrent;
        }
        EXTI->RTSR = temp;
 800268e:	4f50      	ldr	r7, [pc, #320]	; (80027d0 <HAL_GPIO_Init+0x1dc>)
 8002690:	60bd      	str	r5, [r7, #8]

        temp = EXTI->FTSR;
 8002692:	68fd      	ldr	r5, [r7, #12]
        temp &= ~((uint32_t)iocurrent);
        if ((GPIO_Init->Mode & TRIGGER_FALLING) != 0x00U)
 8002694:	684f      	ldr	r7, [r1, #4]
 8002696:	02bf      	lsls	r7, r7, #10
 8002698:	d500      	bpl.n	800269c <HAL_GPIO_Init+0xa8>
 800269a:	e08a      	b.n	80027b2 <HAL_GPIO_Init+0x1be>
        temp &= ~((uint32_t)iocurrent);
 800269c:	4035      	ands	r5, r6
 800269e:	002f      	movs	r7, r5
        {
          temp |= iocurrent;
        }
        EXTI->FTSR = temp;
 80026a0:	4d4b      	ldr	r5, [pc, #300]	; (80027d0 <HAL_GPIO_Init+0x1dc>)
 80026a2:	60ef      	str	r7, [r5, #12]
      }
    }
    position++;
 80026a4:	3301      	adds	r3, #1
  while (((GPIO_Init->Pin) >> position) != 0)
 80026a6:	680e      	ldr	r6, [r1, #0]
 80026a8:	3202      	adds	r2, #2
 80026aa:	0035      	movs	r5, r6
 80026ac:	40dd      	lsrs	r5, r3
 80026ae:	d100      	bne.n	80026b2 <HAL_GPIO_Init+0xbe>
 80026b0:	e082      	b.n	80027b8 <HAL_GPIO_Init+0x1c4>
    iocurrent = (GPIO_Init->Pin) & (1U << position);
 80026b2:	2501      	movs	r5, #1
 80026b4:	409d      	lsls	r5, r3
 80026b6:	0037      	movs	r7, r6
 80026b8:	402f      	ands	r7, r5
 80026ba:	9700      	str	r7, [sp, #0]
    if (iocurrent)
 80026bc:	422e      	tst	r6, r5
 80026be:	d0f1      	beq.n	80026a4 <HAL_GPIO_Init+0xb0>
      if (((GPIO_Init->Mode & GPIO_MODE) == MODE_OUTPUT) ||
 80026c0:	684e      	ldr	r6, [r1, #4]
 80026c2:	4026      	ands	r6, r4
 80026c4:	3e01      	subs	r6, #1
 80026c6:	2e01      	cmp	r6, #1
 80026c8:	d9ae      	bls.n	8002628 <HAL_GPIO_Init+0x34>
      if ((GPIO_Init->Mode & GPIO_MODE) != MODE_ANALOG)
 80026ca:	684d      	ldr	r5, [r1, #4]
 80026cc:	4025      	ands	r5, r4
 80026ce:	2d03      	cmp	r5, #3
 80026d0:	d024      	beq.n	800271c <HAL_GPIO_Init+0x128>
        temp = GPIOx->PUPDR;
 80026d2:	68c5      	ldr	r5, [r0, #12]
        temp &= ~(GPIO_PUPDR_PUPD0 << (position * 2U));
 80026d4:	0026      	movs	r6, r4
 80026d6:	4096      	lsls	r6, r2
 80026d8:	43b5      	bics	r5, r6
 80026da:	002e      	movs	r6, r5
        temp |= ((GPIO_Init->Pull) << (position * 2U));
 80026dc:	688d      	ldr	r5, [r1, #8]
 80026de:	4095      	lsls	r5, r2
 80026e0:	4335      	orrs	r5, r6
        GPIOx->PUPDR = temp;
 80026e2:	60c5      	str	r5, [r0, #12]
      if ((GPIO_Init->Mode & GPIO_MODE) == MODE_AF)
 80026e4:	684d      	ldr	r5, [r1, #4]
 80026e6:	4025      	ands	r5, r4
 80026e8:	2d02      	cmp	r5, #2
 80026ea:	d117      	bne.n	800271c <HAL_GPIO_Init+0x128>
        temp = GPIOx->AFR[position >> 3U];
 80026ec:	08dd      	lsrs	r5, r3, #3
 80026ee:	00ad      	lsls	r5, r5, #2
 80026f0:	46a9      	mov	r9, r5
 80026f2:	4481      	add	r9, r0
 80026f4:	464d      	mov	r5, r9
 80026f6:	6a2e      	ldr	r6, [r5, #32]
 80026f8:	46b4      	mov	ip, r6
        temp &= ~(0xFUL << ((uint32_t)(position & 0x07UL) * 4U));
 80026fa:	2607      	movs	r6, #7
 80026fc:	401e      	ands	r6, r3
 80026fe:	00b6      	lsls	r6, r6, #2
 8002700:	270f      	movs	r7, #15
 8002702:	40b7      	lsls	r7, r6
 8002704:	46b8      	mov	r8, r7
 8002706:	4667      	mov	r7, ip
 8002708:	4645      	mov	r5, r8
 800270a:	43af      	bics	r7, r5
 800270c:	46bc      	mov	ip, r7
        temp |= ((uint32_t)(GPIO_Init->Alternate) << (((uint32_t)position & (uint32_t)0x07U) * 4U));
 800270e:	690f      	ldr	r7, [r1, #16]
 8002710:	40b7      	lsls	r7, r6
 8002712:	003e      	movs	r6, r7
 8002714:	4665      	mov	r5, ip
 8002716:	432e      	orrs	r6, r5
        GPIOx->AFR[position >> 3U] = temp;
 8002718:	464d      	mov	r5, r9
 800271a:	622e      	str	r6, [r5, #32]
      temp = GPIOx->MODER;
 800271c:	6805      	ldr	r5, [r0, #0]
      temp &= ~(GPIO_MODER_MODE0 << (position * 2U));
 800271e:	0026      	movs	r6, r4
 8002720:	4096      	lsls	r6, r2
 8002722:	43b5      	bics	r5, r6
 8002724:	002e      	movs	r6, r5
      temp |= ((GPIO_Init->Mode & GPIO_MODE) << (position * 2U));
 8002726:	684d      	ldr	r5, [r1, #4]
 8002728:	4025      	ands	r5, r4
 800272a:	4095      	lsls	r5, r2
 800272c:	4335      	orrs	r5, r6
      GPIOx->MODER = temp;
 800272e:	6005      	str	r5, [r0, #0]
      if ((GPIO_Init->Mode & EXTI_MODE) != 0x00U)
 8002730:	684d      	ldr	r5, [r1, #4]
 8002732:	465e      	mov	r6, fp
 8002734:	4235      	tst	r5, r6
 8002736:	d0b5      	beq.n	80026a4 <HAL_GPIO_Init+0xb0>
        __HAL_RCC_SYSCFG_CLK_ENABLE();
 8002738:	4655      	mov	r5, sl
 800273a:	6b6d      	ldr	r5, [r5, #52]	; 0x34
 800273c:	2601      	movs	r6, #1
 800273e:	4335      	orrs	r5, r6
 8002740:	4656      	mov	r6, sl
 8002742:	6375      	str	r5, [r6, #52]	; 0x34
        temp = SYSCFG->EXTICR[position >> 2U];
 8002744:	089d      	lsrs	r5, r3, #2
 8002746:	00ad      	lsls	r5, r5, #2
 8002748:	4e22      	ldr	r6, [pc, #136]	; (80027d4 <HAL_GPIO_Init+0x1e0>)
 800274a:	46b4      	mov	ip, r6
 800274c:	4465      	add	r5, ip
 800274e:	68ae      	ldr	r6, [r5, #8]
 8002750:	46b0      	mov	r8, r6
        CLEAR_BIT(temp, (0x0FUL) << (4U * (position & 0x03U)));
 8002752:	0026      	movs	r6, r4
 8002754:	401e      	ands	r6, r3
 8002756:	00b6      	lsls	r6, r6, #2
 8002758:	46b4      	mov	ip, r6
 800275a:	260f      	movs	r6, #15
 800275c:	4667      	mov	r7, ip
 800275e:	40be      	lsls	r6, r7
 8002760:	4647      	mov	r7, r8
 8002762:	43b7      	bics	r7, r6
 8002764:	46b8      	mov	r8, r7
        SET_BIT(temp, (GPIO_GET_INDEX(GPIOx)) << (4 * (position & 0x03U)));
 8002766:	26a0      	movs	r6, #160	; 0xa0
 8002768:	05f6      	lsls	r6, r6, #23
 800276a:	42b0      	cmp	r0, r6
 800276c:	d100      	bne.n	8002770 <HAL_GPIO_Init+0x17c>
 800276e:	e76f      	b.n	8002650 <HAL_GPIO_Init+0x5c>
 8002770:	4e19      	ldr	r6, [pc, #100]	; (80027d8 <HAL_GPIO_Init+0x1e4>)
 8002772:	46b1      	mov	r9, r6
 8002774:	2601      	movs	r6, #1
 8002776:	4548      	cmp	r0, r9
 8002778:	d100      	bne.n	800277c <HAL_GPIO_Init+0x188>
 800277a:	e76a      	b.n	8002652 <HAL_GPIO_Init+0x5e>
 800277c:	4e17      	ldr	r6, [pc, #92]	; (80027dc <HAL_GPIO_Init+0x1e8>)
 800277e:	42b0      	cmp	r0, r6
 8002780:	d00a      	beq.n	8002798 <HAL_GPIO_Init+0x1a4>
 8002782:	4e17      	ldr	r6, [pc, #92]	; (80027e0 <HAL_GPIO_Init+0x1ec>)
 8002784:	46b1      	mov	r9, r6
 8002786:	0026      	movs	r6, r4
 8002788:	4548      	cmp	r0, r9
 800278a:	d100      	bne.n	800278e <HAL_GPIO_Init+0x19a>
 800278c:	e761      	b.n	8002652 <HAL_GPIO_Init+0x5e>
 800278e:	4e15      	ldr	r6, [pc, #84]	; (80027e4 <HAL_GPIO_Init+0x1f0>)
 8002790:	42b0      	cmp	r0, r6
 8002792:	d003      	beq.n	800279c <HAL_GPIO_Init+0x1a8>
 8002794:	9e01      	ldr	r6, [sp, #4]
 8002796:	e75c      	b.n	8002652 <HAL_GPIO_Init+0x5e>
 8002798:	2602      	movs	r6, #2
 800279a:	e75a      	b.n	8002652 <HAL_GPIO_Init+0x5e>
 800279c:	2604      	movs	r6, #4
 800279e:	e758      	b.n	8002652 <HAL_GPIO_Init+0x5e>
          temp |= iocurrent;
 80027a0:	9f00      	ldr	r7, [sp, #0]
 80027a2:	433d      	orrs	r5, r7
 80027a4:	e763      	b.n	800266e <HAL_GPIO_Init+0x7a>
          temp |= iocurrent;
 80027a6:	9f00      	ldr	r7, [sp, #0]
 80027a8:	433d      	orrs	r5, r7
 80027aa:	e768      	b.n	800267e <HAL_GPIO_Init+0x8a>
          temp |= iocurrent;
 80027ac:	9f00      	ldr	r7, [sp, #0]
 80027ae:	433d      	orrs	r5, r7
 80027b0:	e76d      	b.n	800268e <HAL_GPIO_Init+0x9a>
          temp |= iocurrent;
 80027b2:	9f00      	ldr	r7, [sp, #0]
 80027b4:	432f      	orrs	r7, r5
 80027b6:	e773      	b.n	80026a0 <HAL_GPIO_Init+0xac>
  }
}
 80027b8:	b003      	add	sp, #12
 80027ba:	bcf0      	pop	{r4, r5, r6, r7}
 80027bc:	46bb      	mov	fp, r7
 80027be:	46b2      	mov	sl, r6
 80027c0:	46a9      	mov	r9, r5
 80027c2:	46a0      	mov	r8, r4
 80027c4:	bdf0      	pop	{r4, r5, r6, r7, pc}
 80027c6:	46c0      	nop			; (mov r8, r8)
 80027c8:	40021000 	.word	0x40021000
 80027cc:	afffe400 	.word	0xafffe400
 80027d0:	40010400 	.word	0x40010400
 80027d4:	40010000 	.word	0x40010000
 80027d8:	50000400 	.word	0x50000400
 80027dc:	50000800 	.word	0x50000800
 80027e0:	50000c00 	.word	0x50000c00
 80027e4:	50001000 	.word	0x50001000

080027e8 <HAL_GPIO_ReadPin>:
  GPIO_PinState bitstatus;

  /* Check the parameters */
  assert_param(IS_GPIO_PIN_AVAILABLE(GPIOx, GPIO_Pin));

  if ((GPIOx->IDR & GPIO_Pin) != (uint32_t)GPIO_PIN_RESET)
 80027e8:	6900      	ldr	r0, [r0, #16]
 80027ea:	4008      	ands	r0, r1
 80027ec:	1e43      	subs	r3, r0, #1
 80027ee:	4198      	sbcs	r0, r3
  }
  else
  {
    bitstatus = GPIO_PIN_RESET;
  }
  return bitstatus;
 80027f0:	b2c0      	uxtb	r0, r0
}
 80027f2:	4770      	bx	lr

080027f4 <HAL_GPIO_WritePin>:
{
  /* Check the parameters */
  assert_param(IS_GPIO_PIN_AVAILABLE(GPIOx, GPIO_Pin));
  assert_param(IS_GPIO_PIN_ACTION(PinState));

  if (PinState != GPIO_PIN_RESET)
 80027f4:	2a00      	cmp	r2, #0
 80027f6:	d001      	beq.n	80027fc <HAL_GPIO_WritePin+0x8>
  {
    GPIOx->BSRR = GPIO_Pin;
 80027f8:	6181      	str	r1, [r0, #24]
  }
  else
  {
    GPIOx->BRR = GPIO_Pin ;
  }
}
 80027fa:	4770      	bx	lr
    GPIOx->BRR = GPIO_Pin ;
 80027fc:	6281      	str	r1, [r0, #40]	; 0x28
}
 80027fe:	e7fc      	b.n	80027fa <HAL_GPIO_WritePin+0x6>

08002800 <HAL_GPIO_TogglePin>:

  /* Check the parameters */
  assert_param(IS_GPIO_PIN_AVAILABLE(GPIOx, GPIO_Pin));

  /* get current Ouput Data Register value */
  odr = GPIOx->ODR;
 8002800:	6942      	ldr	r2, [r0, #20]

  /* Set selected pins that were at low level, and reset ones that were high */
  GPIOx->BSRR = ((odr & GPIO_Pin) << GPIO_NUMBER) | (~odr & GPIO_Pin);
 8002802:	0013      	movs	r3, r2
 8002804:	400b      	ands	r3, r1
 8002806:	041b      	lsls	r3, r3, #16
 8002808:	4391      	bics	r1, r2
 800280a:	4319      	orrs	r1, r3
 800280c:	6181      	str	r1, [r0, #24]
}
 800280e:	4770      	bx	lr

08002810 <HAL_GPIO_EXTI_IRQHandler>:
  * @brief  This function handles EXTI interrupt request.
  * @param  GPIO_Pin Specifies the pins connected to the EXTI line.
  * @retval None
  */
void HAL_GPIO_EXTI_IRQHandler(uint16_t GPIO_Pin)
{
 8002810:	b510      	push	{r4, lr}
  /* EXTI line interrupt detected */
  if (__HAL_GPIO_EXTI_GET_IT(GPIO_Pin) != RESET)
 8002812:	4b05      	ldr	r3, [pc, #20]	; (8002828 <HAL_GPIO_EXTI_IRQHandler+0x18>)
 8002814:	695b      	ldr	r3, [r3, #20]
 8002816:	4218      	tst	r0, r3
 8002818:	d100      	bne.n	800281c <HAL_GPIO_EXTI_IRQHandler+0xc>
  {
    __HAL_GPIO_EXTI_CLEAR_IT(GPIO_Pin);
    HAL_GPIO_EXTI_Callback(GPIO_Pin);
  }
}
 800281a:	bd10      	pop	{r4, pc}
    __HAL_GPIO_EXTI_CLEAR_IT(GPIO_Pin);
 800281c:	4b02      	ldr	r3, [pc, #8]	; (8002828 <HAL_GPIO_EXTI_IRQHandler+0x18>)
 800281e:	6158      	str	r0, [r3, #20]
    HAL_GPIO_EXTI_Callback(GPIO_Pin);
 8002820:	f7fe f940 	bl	8000aa4 <HAL_GPIO_EXTI_Callback>
}
 8002824:	e7f9      	b.n	800281a <HAL_GPIO_EXTI_IRQHandler+0xa>
 8002826:	46c0      	nop			; (mov r8, r8)
 8002828:	40010400 	.word	0x40010400

0800282c <I2C_Flush_TXDR>:
  */
static void I2C_Flush_TXDR(I2C_HandleTypeDef *hi2c)
{
  /* If a pending TXIS flag is set */
  /* Write a dummy data in TXDR to clear it */
  if (__HAL_I2C_GET_FLAG(hi2c, I2C_FLAG_TXIS) != RESET)
 800282c:	6803      	ldr	r3, [r0, #0]
 800282e:	699a      	ldr	r2, [r3, #24]
 8002830:	0792      	lsls	r2, r2, #30
 8002832:	d501      	bpl.n	8002838 <I2C_Flush_TXDR+0xc>
  {
    hi2c->Instance->TXDR = 0x00U;
 8002834:	2200      	movs	r2, #0
 8002836:	629a      	str	r2, [r3, #40]	; 0x28
  }

  /* Flush TX register if not empty */
  if (__HAL_I2C_GET_FLAG(hi2c, I2C_FLAG_TXE) == RESET)
 8002838:	6803      	ldr	r3, [r0, #0]
 800283a:	699a      	ldr	r2, [r3, #24]
 800283c:	07d2      	lsls	r2, r2, #31
 800283e:	d403      	bmi.n	8002848 <I2C_Flush_TXDR+0x1c>
  {
    __HAL_I2C_CLEAR_FLAG(hi2c, I2C_FLAG_TXE);
 8002840:	699a      	ldr	r2, [r3, #24]
 8002842:	2101      	movs	r1, #1
 8002844:	430a      	orrs	r2, r1
 8002846:	619a      	str	r2, [r3, #24]
  }
}
 8002848:	4770      	bx	lr
	...

0800284c <I2C_TransferConfig>:
  *     @arg @ref I2C_GENERATE_START_WRITE Generate Restart for write request.
  * @retval None
  */
static void I2C_TransferConfig(I2C_HandleTypeDef *hi2c, uint16_t DevAddress, uint8_t Size, uint32_t Mode,
                               uint32_t Request)
{
 800284c:	b570      	push	{r4, r5, r6, lr}
  assert_param(IS_I2C_ALL_INSTANCE(hi2c->Instance));
  assert_param(IS_TRANSFER_MODE(Mode));
  assert_param(IS_TRANSFER_REQUEST(Request));

  /* update CR2 register */
  MODIFY_REG(hi2c->Instance->CR2,
 800284e:	6805      	ldr	r5, [r0, #0]
 8002850:	6868      	ldr	r0, [r5, #4]
 8002852:	9c04      	ldr	r4, [sp, #16]
 8002854:	0d64      	lsrs	r4, r4, #21
 8002856:	2680      	movs	r6, #128	; 0x80
 8002858:	00f6      	lsls	r6, r6, #3
 800285a:	4026      	ands	r6, r4
 800285c:	4c06      	ldr	r4, [pc, #24]	; (8002878 <I2C_TransferConfig+0x2c>)
 800285e:	4334      	orrs	r4, r6
 8002860:	43a0      	bics	r0, r4
 8002862:	0412      	lsls	r2, r2, #16
 8002864:	9c04      	ldr	r4, [sp, #16]
 8002866:	4322      	orrs	r2, r4
 8002868:	431a      	orrs	r2, r3
 800286a:	0589      	lsls	r1, r1, #22
 800286c:	0d89      	lsrs	r1, r1, #22
 800286e:	430a      	orrs	r2, r1
 8002870:	4302      	orrs	r2, r0
 8002872:	606a      	str	r2, [r5, #4]
               (I2C_CR2_RD_WRN & (uint32_t)(Request >> (31U - I2C_CR2_RD_WRN_Pos))) | \
               I2C_CR2_START | I2C_CR2_STOP)), \
             (uint32_t)(((uint32_t)DevAddress & I2C_CR2_SADD) | \
                        (((uint32_t)Size << I2C_CR2_NBYTES_Pos) & I2C_CR2_NBYTES) | \
                        (uint32_t)Mode | (uint32_t)Request));
}
 8002874:	bd70      	pop	{r4, r5, r6, pc}
 8002876:	46c0      	nop			; (mov r8, r8)
 8002878:	03ff63ff 	.word	0x03ff63ff

0800287c <I2C_IsAcknowledgeFailed>:
{
 800287c:	b5f8      	push	{r3, r4, r5, r6, r7, lr}
 800287e:	0007      	movs	r7, r0
 8002880:	000c      	movs	r4, r1
 8002882:	0015      	movs	r5, r2
  if (__HAL_I2C_GET_FLAG(hi2c, I2C_FLAG_AF) == SET)
 8002884:	6803      	ldr	r3, [r0, #0]
 8002886:	699a      	ldr	r2, [r3, #24]
  return HAL_OK;
 8002888:	2000      	movs	r0, #0
  if (__HAL_I2C_GET_FLAG(hi2c, I2C_FLAG_AF) == SET)
 800288a:	06d2      	lsls	r2, r2, #27
 800288c:	d53b      	bpl.n	8002906 <I2C_IsAcknowledgeFailed+0x8a>
    if (I2C_GET_STOP_MODE(hi2c) != I2C_AUTOEND_MODE)
 800288e:	685a      	ldr	r2, [r3, #4]
 8002890:	0192      	lsls	r2, r2, #6
 8002892:	d404      	bmi.n	800289e <I2C_IsAcknowledgeFailed+0x22>
      hi2c->Instance->CR2 |= I2C_CR2_STOP;
 8002894:	6859      	ldr	r1, [r3, #4]
 8002896:	2280      	movs	r2, #128	; 0x80
 8002898:	01d2      	lsls	r2, r2, #7
 800289a:	430a      	orrs	r2, r1
 800289c:	605a      	str	r2, [r3, #4]
    while (__HAL_I2C_GET_FLAG(hi2c, I2C_FLAG_STOPF) == RESET)
 800289e:	2620      	movs	r6, #32
 80028a0:	6839      	ldr	r1, [r7, #0]
 80028a2:	698b      	ldr	r3, [r1, #24]
 80028a4:	421e      	tst	r6, r3
 80028a6:	d115      	bne.n	80028d4 <I2C_IsAcknowledgeFailed+0x58>
      if (Timeout != HAL_MAX_DELAY)
 80028a8:	1c63      	adds	r3, r4, #1
 80028aa:	d0fa      	beq.n	80028a2 <I2C_IsAcknowledgeFailed+0x26>
        if (((HAL_GetTick() - Tickstart) > Timeout) || (Timeout == 0U))
 80028ac:	f7ff fe30 	bl	8002510 <HAL_GetTick>
 80028b0:	1b40      	subs	r0, r0, r5
 80028b2:	42a0      	cmp	r0, r4
 80028b4:	d801      	bhi.n	80028ba <I2C_IsAcknowledgeFailed+0x3e>
 80028b6:	2c00      	cmp	r4, #0
 80028b8:	d1f2      	bne.n	80028a0 <I2C_IsAcknowledgeFailed+0x24>
          hi2c->ErrorCode |= HAL_I2C_ERROR_TIMEOUT;
 80028ba:	6c7b      	ldr	r3, [r7, #68]	; 0x44
 80028bc:	2220      	movs	r2, #32
 80028be:	4313      	orrs	r3, r2
 80028c0:	647b      	str	r3, [r7, #68]	; 0x44
          hi2c->State = HAL_I2C_STATE_READY;
 80028c2:	2341      	movs	r3, #65	; 0x41
 80028c4:	54fa      	strb	r2, [r7, r3]
          hi2c->Mode = HAL_I2C_MODE_NONE;
 80028c6:	2300      	movs	r3, #0
 80028c8:	3222      	adds	r2, #34	; 0x22
 80028ca:	54bb      	strb	r3, [r7, r2]
          __HAL_UNLOCK(hi2c);
 80028cc:	3a02      	subs	r2, #2
 80028ce:	54bb      	strb	r3, [r7, r2]
          return HAL_ERROR;
 80028d0:	2001      	movs	r0, #1
 80028d2:	e018      	b.n	8002906 <I2C_IsAcknowledgeFailed+0x8a>
    __HAL_I2C_CLEAR_FLAG(hi2c, I2C_FLAG_AF);
 80028d4:	2310      	movs	r3, #16
 80028d6:	61cb      	str	r3, [r1, #28]
    __HAL_I2C_CLEAR_FLAG(hi2c, I2C_FLAG_STOPF);
 80028d8:	683b      	ldr	r3, [r7, #0]
 80028da:	2420      	movs	r4, #32
 80028dc:	61dc      	str	r4, [r3, #28]
    I2C_Flush_TXDR(hi2c);
 80028de:	0038      	movs	r0, r7
 80028e0:	f7ff ffa4 	bl	800282c <I2C_Flush_TXDR>
    I2C_RESET_CR2(hi2c);
 80028e4:	683a      	ldr	r2, [r7, #0]
 80028e6:	6853      	ldr	r3, [r2, #4]
 80028e8:	4907      	ldr	r1, [pc, #28]	; (8002908 <I2C_IsAcknowledgeFailed+0x8c>)
 80028ea:	400b      	ands	r3, r1
 80028ec:	6053      	str	r3, [r2, #4]
    hi2c->ErrorCode |= HAL_I2C_ERROR_AF;
 80028ee:	6c7b      	ldr	r3, [r7, #68]	; 0x44
 80028f0:	2204      	movs	r2, #4
 80028f2:	4313      	orrs	r3, r2
 80028f4:	647b      	str	r3, [r7, #68]	; 0x44
    hi2c->State = HAL_I2C_STATE_READY;
 80028f6:	2341      	movs	r3, #65	; 0x41
 80028f8:	54fc      	strb	r4, [r7, r3]
    hi2c->Mode = HAL_I2C_MODE_NONE;
 80028fa:	2300      	movs	r3, #0
 80028fc:	323e      	adds	r2, #62	; 0x3e
 80028fe:	54bb      	strb	r3, [r7, r2]
    __HAL_UNLOCK(hi2c);
 8002900:	3a02      	subs	r2, #2
 8002902:	54bb      	strb	r3, [r7, r2]
    return HAL_ERROR;
 8002904:	2001      	movs	r0, #1
}
 8002906:	bdf8      	pop	{r3, r4, r5, r6, r7, pc}
 8002908:	fe00e800 	.word	0xfe00e800

0800290c <I2C_WaitOnTXISFlagUntilTimeout>:
{
 800290c:	b5f8      	push	{r3, r4, r5, r6, r7, lr}
 800290e:	0004      	movs	r4, r0
 8002910:	000d      	movs	r5, r1
 8002912:	0016      	movs	r6, r2
  while (__HAL_I2C_GET_FLAG(hi2c, I2C_FLAG_TXIS) == RESET)
 8002914:	2702      	movs	r7, #2
 8002916:	6823      	ldr	r3, [r4, #0]
 8002918:	699b      	ldr	r3, [r3, #24]
 800291a:	421f      	tst	r7, r3
 800291c:	d11c      	bne.n	8002958 <I2C_WaitOnTXISFlagUntilTimeout+0x4c>
    if (I2C_IsAcknowledgeFailed(hi2c, Timeout, Tickstart) != HAL_OK)
 800291e:	0032      	movs	r2, r6
 8002920:	0029      	movs	r1, r5
 8002922:	0020      	movs	r0, r4
 8002924:	f7ff ffaa 	bl	800287c <I2C_IsAcknowledgeFailed>
 8002928:	2800      	cmp	r0, #0
 800292a:	d117      	bne.n	800295c <I2C_WaitOnTXISFlagUntilTimeout+0x50>
    if (Timeout != HAL_MAX_DELAY)
 800292c:	1c6b      	adds	r3, r5, #1
 800292e:	d0f2      	beq.n	8002916 <I2C_WaitOnTXISFlagUntilTimeout+0xa>
      if (((HAL_GetTick() - Tickstart) > Timeout) || (Timeout == 0U))
 8002930:	f7ff fdee 	bl	8002510 <HAL_GetTick>
 8002934:	1b80      	subs	r0, r0, r6
 8002936:	42a8      	cmp	r0, r5
 8002938:	d801      	bhi.n	800293e <I2C_WaitOnTXISFlagUntilTimeout+0x32>
 800293a:	2d00      	cmp	r5, #0
 800293c:	d1eb      	bne.n	8002916 <I2C_WaitOnTXISFlagUntilTimeout+0xa>
        hi2c->ErrorCode |= HAL_I2C_ERROR_TIMEOUT;
 800293e:	6c63      	ldr	r3, [r4, #68]	; 0x44
 8002940:	2220      	movs	r2, #32
 8002942:	4313      	orrs	r3, r2
 8002944:	6463      	str	r3, [r4, #68]	; 0x44
        hi2c->State = HAL_I2C_STATE_READY;
 8002946:	2341      	movs	r3, #65	; 0x41
 8002948:	54e2      	strb	r2, [r4, r3]
        hi2c->Mode = HAL_I2C_MODE_NONE;
 800294a:	2300      	movs	r3, #0
 800294c:	3222      	adds	r2, #34	; 0x22
 800294e:	54a3      	strb	r3, [r4, r2]
        __HAL_UNLOCK(hi2c);
 8002950:	3a02      	subs	r2, #2
 8002952:	54a3      	strb	r3, [r4, r2]
        return HAL_ERROR;
 8002954:	2001      	movs	r0, #1
 8002956:	e000      	b.n	800295a <I2C_WaitOnTXISFlagUntilTimeout+0x4e>
  return HAL_OK;
 8002958:	2000      	movs	r0, #0
}
 800295a:	bdf8      	pop	{r3, r4, r5, r6, r7, pc}
      return HAL_ERROR;
 800295c:	2001      	movs	r0, #1
 800295e:	e7fc      	b.n	800295a <I2C_WaitOnTXISFlagUntilTimeout+0x4e>

08002960 <I2C_WaitOnFlagUntilTimeout>:
{
 8002960:	b5f0      	push	{r4, r5, r6, r7, lr}
 8002962:	46c6      	mov	lr, r8
 8002964:	b500      	push	{lr}
 8002966:	4680      	mov	r8, r0
 8002968:	000d      	movs	r5, r1
 800296a:	0017      	movs	r7, r2
 800296c:	001e      	movs	r6, r3
  while (__HAL_I2C_GET_FLAG(hi2c, Flag) == Status)
 800296e:	4643      	mov	r3, r8
 8002970:	681b      	ldr	r3, [r3, #0]
 8002972:	699c      	ldr	r4, [r3, #24]
 8002974:	402c      	ands	r4, r5
 8002976:	1b64      	subs	r4, r4, r5
 8002978:	4262      	negs	r2, r4
 800297a:	4154      	adcs	r4, r2
 800297c:	42bc      	cmp	r4, r7
 800297e:	d118      	bne.n	80029b2 <I2C_WaitOnFlagUntilTimeout+0x52>
    if (Timeout != HAL_MAX_DELAY)
 8002980:	1c72      	adds	r2, r6, #1
 8002982:	d0f6      	beq.n	8002972 <I2C_WaitOnFlagUntilTimeout+0x12>
      if (((HAL_GetTick() - Tickstart) > Timeout) || (Timeout == 0U))
 8002984:	f7ff fdc4 	bl	8002510 <HAL_GetTick>
 8002988:	9b06      	ldr	r3, [sp, #24]
 800298a:	1ac0      	subs	r0, r0, r3
 800298c:	42b0      	cmp	r0, r6
 800298e:	d801      	bhi.n	8002994 <I2C_WaitOnFlagUntilTimeout+0x34>
 8002990:	2e00      	cmp	r6, #0
 8002992:	d1ec      	bne.n	800296e <I2C_WaitOnFlagUntilTimeout+0xe>
        hi2c->ErrorCode |= HAL_I2C_ERROR_TIMEOUT;
 8002994:	4643      	mov	r3, r8
 8002996:	6c5b      	ldr	r3, [r3, #68]	; 0x44
 8002998:	2220      	movs	r2, #32
 800299a:	4313      	orrs	r3, r2
 800299c:	4641      	mov	r1, r8
 800299e:	644b      	str	r3, [r1, #68]	; 0x44
        hi2c->State = HAL_I2C_STATE_READY;
 80029a0:	2341      	movs	r3, #65	; 0x41
 80029a2:	54ca      	strb	r2, [r1, r3]
        hi2c->Mode = HAL_I2C_MODE_NONE;
 80029a4:	2300      	movs	r3, #0
 80029a6:	3222      	adds	r2, #34	; 0x22
 80029a8:	548b      	strb	r3, [r1, r2]
        __HAL_UNLOCK(hi2c);
 80029aa:	3a02      	subs	r2, #2
 80029ac:	548b      	strb	r3, [r1, r2]
        return HAL_ERROR;
 80029ae:	2001      	movs	r0, #1
 80029b0:	e000      	b.n	80029b4 <I2C_WaitOnFlagUntilTimeout+0x54>
  return HAL_OK;
 80029b2:	2000      	movs	r0, #0
}
 80029b4:	bc80      	pop	{r7}
 80029b6:	46b8      	mov	r8, r7
 80029b8:	bdf0      	pop	{r4, r5, r6, r7, pc}

080029ba <I2C_WaitOnSTOPFlagUntilTimeout>:
{
 80029ba:	b5f8      	push	{r3, r4, r5, r6, r7, lr}
 80029bc:	0005      	movs	r5, r0
 80029be:	000c      	movs	r4, r1
 80029c0:	0016      	movs	r6, r2
  while (__HAL_I2C_GET_FLAG(hi2c, I2C_FLAG_STOPF) == RESET)
 80029c2:	2720      	movs	r7, #32
 80029c4:	682b      	ldr	r3, [r5, #0]
 80029c6:	699b      	ldr	r3, [r3, #24]
 80029c8:	421f      	tst	r7, r3
 80029ca:	d11a      	bne.n	8002a02 <I2C_WaitOnSTOPFlagUntilTimeout+0x48>
    if (I2C_IsAcknowledgeFailed(hi2c, Timeout, Tickstart) != HAL_OK)
 80029cc:	0032      	movs	r2, r6
 80029ce:	0021      	movs	r1, r4
 80029d0:	0028      	movs	r0, r5
 80029d2:	f7ff ff53 	bl	800287c <I2C_IsAcknowledgeFailed>
 80029d6:	2800      	cmp	r0, #0
 80029d8:	d115      	bne.n	8002a06 <I2C_WaitOnSTOPFlagUntilTimeout+0x4c>
    if (((HAL_GetTick() - Tickstart) > Timeout) || (Timeout == 0U))
 80029da:	f7ff fd99 	bl	8002510 <HAL_GetTick>
 80029de:	1b80      	subs	r0, r0, r6
 80029e0:	42a0      	cmp	r0, r4
 80029e2:	d801      	bhi.n	80029e8 <I2C_WaitOnSTOPFlagUntilTimeout+0x2e>
 80029e4:	2c00      	cmp	r4, #0
 80029e6:	d1ed      	bne.n	80029c4 <I2C_WaitOnSTOPFlagUntilTimeout+0xa>
      hi2c->ErrorCode |= HAL_I2C_ERROR_TIMEOUT;
 80029e8:	6c6b      	ldr	r3, [r5, #68]	; 0x44
 80029ea:	2220      	movs	r2, #32
 80029ec:	4313      	orrs	r3, r2
 80029ee:	646b      	str	r3, [r5, #68]	; 0x44
      hi2c->State = HAL_I2C_STATE_READY;
 80029f0:	2341      	movs	r3, #65	; 0x41
 80029f2:	54ea      	strb	r2, [r5, r3]
      hi2c->Mode = HAL_I2C_MODE_NONE;
 80029f4:	2300      	movs	r3, #0
 80029f6:	3222      	adds	r2, #34	; 0x22
 80029f8:	54ab      	strb	r3, [r5, r2]
      __HAL_UNLOCK(hi2c);
 80029fa:	3a02      	subs	r2, #2
 80029fc:	54ab      	strb	r3, [r5, r2]
      return HAL_ERROR;
 80029fe:	2001      	movs	r0, #1
}
 8002a00:	bdf8      	pop	{r3, r4, r5, r6, r7, pc}
  return HAL_OK;
 8002a02:	2000      	movs	r0, #0
 8002a04:	e7fc      	b.n	8002a00 <I2C_WaitOnSTOPFlagUntilTimeout+0x46>
      return HAL_ERROR;
 8002a06:	2001      	movs	r0, #1
 8002a08:	e7fa      	b.n	8002a00 <I2C_WaitOnSTOPFlagUntilTimeout+0x46>
	...

08002a0c <HAL_I2C_Init>:
{
 8002a0c:	b510      	push	{r4, lr}
 8002a0e:	1e04      	subs	r4, r0, #0
  if (hi2c == NULL)
 8002a10:	d059      	beq.n	8002ac6 <HAL_I2C_Init+0xba>
  if (hi2c->State == HAL_I2C_STATE_RESET)
 8002a12:	2341      	movs	r3, #65	; 0x41
 8002a14:	5cc3      	ldrb	r3, [r0, r3]
 8002a16:	2b00      	cmp	r3, #0
 8002a18:	d043      	beq.n	8002aa2 <HAL_I2C_Init+0x96>
  hi2c->State = HAL_I2C_STATE_BUSY;
 8002a1a:	2341      	movs	r3, #65	; 0x41
 8002a1c:	2224      	movs	r2, #36	; 0x24
 8002a1e:	54e2      	strb	r2, [r4, r3]
  __HAL_I2C_DISABLE(hi2c);
 8002a20:	6822      	ldr	r2, [r4, #0]
 8002a22:	6813      	ldr	r3, [r2, #0]
 8002a24:	2101      	movs	r1, #1
 8002a26:	438b      	bics	r3, r1
 8002a28:	6013      	str	r3, [r2, #0]
  hi2c->Instance->TIMINGR = hi2c->Init.Timing & TIMING_CLEAR_MASK;
 8002a2a:	6822      	ldr	r2, [r4, #0]
 8002a2c:	4b27      	ldr	r3, [pc, #156]	; (8002acc <HAL_I2C_Init+0xc0>)
 8002a2e:	6861      	ldr	r1, [r4, #4]
 8002a30:	400b      	ands	r3, r1
 8002a32:	6113      	str	r3, [r2, #16]
  hi2c->Instance->OAR1 &= ~I2C_OAR1_OA1EN;
 8002a34:	6822      	ldr	r2, [r4, #0]
 8002a36:	6893      	ldr	r3, [r2, #8]
 8002a38:	4925      	ldr	r1, [pc, #148]	; (8002ad0 <HAL_I2C_Init+0xc4>)
 8002a3a:	400b      	ands	r3, r1
 8002a3c:	6093      	str	r3, [r2, #8]
  if (hi2c->Init.AddressingMode == I2C_ADDRESSINGMODE_7BIT)
 8002a3e:	68e3      	ldr	r3, [r4, #12]
 8002a40:	2b01      	cmp	r3, #1
 8002a42:	d034      	beq.n	8002aae <HAL_I2C_Init+0xa2>
    hi2c->Instance->OAR1 = (I2C_OAR1_OA1EN | I2C_OAR1_OA1MODE | hi2c->Init.OwnAddress1);
 8002a44:	6822      	ldr	r2, [r4, #0]
 8002a46:	2384      	movs	r3, #132	; 0x84
 8002a48:	021b      	lsls	r3, r3, #8
 8002a4a:	68a1      	ldr	r1, [r4, #8]
 8002a4c:	430b      	orrs	r3, r1
 8002a4e:	6093      	str	r3, [r2, #8]
  if (hi2c->Init.AddressingMode == I2C_ADDRESSINGMODE_10BIT)
 8002a50:	68e3      	ldr	r3, [r4, #12]
 8002a52:	2b02      	cmp	r3, #2
 8002a54:	d032      	beq.n	8002abc <HAL_I2C_Init+0xb0>
  hi2c->Instance->CR2 |= (I2C_CR2_AUTOEND | I2C_CR2_NACK);
 8002a56:	6822      	ldr	r2, [r4, #0]
 8002a58:	6851      	ldr	r1, [r2, #4]
 8002a5a:	4b1e      	ldr	r3, [pc, #120]	; (8002ad4 <HAL_I2C_Init+0xc8>)
 8002a5c:	430b      	orrs	r3, r1
 8002a5e:	6053      	str	r3, [r2, #4]
  hi2c->Instance->OAR2 &= ~I2C_DUALADDRESS_ENABLE;
 8002a60:	6822      	ldr	r2, [r4, #0]
 8002a62:	68d3      	ldr	r3, [r2, #12]
 8002a64:	491a      	ldr	r1, [pc, #104]	; (8002ad0 <HAL_I2C_Init+0xc4>)
 8002a66:	400b      	ands	r3, r1
 8002a68:	60d3      	str	r3, [r2, #12]
  hi2c->Instance->OAR2 = (hi2c->Init.DualAddressMode | hi2c->Init.OwnAddress2 | \
 8002a6a:	6821      	ldr	r1, [r4, #0]
 8002a6c:	6923      	ldr	r3, [r4, #16]
 8002a6e:	6962      	ldr	r2, [r4, #20]
 8002a70:	4313      	orrs	r3, r2
                          (hi2c->Init.OwnAddress2Masks << 8));
 8002a72:	69a2      	ldr	r2, [r4, #24]
 8002a74:	0212      	lsls	r2, r2, #8
  hi2c->Instance->OAR2 = (hi2c->Init.DualAddressMode | hi2c->Init.OwnAddress2 | \
 8002a76:	4313      	orrs	r3, r2
 8002a78:	60cb      	str	r3, [r1, #12]
  hi2c->Instance->CR1 = (hi2c->Init.GeneralCallMode | hi2c->Init.NoStretchMode);
 8002a7a:	6822      	ldr	r2, [r4, #0]
 8002a7c:	69e3      	ldr	r3, [r4, #28]
 8002a7e:	6a21      	ldr	r1, [r4, #32]
 8002a80:	430b      	orrs	r3, r1
 8002a82:	6013      	str	r3, [r2, #0]
  __HAL_I2C_ENABLE(hi2c);
 8002a84:	6822      	ldr	r2, [r4, #0]
 8002a86:	6813      	ldr	r3, [r2, #0]
 8002a88:	2101      	movs	r1, #1
 8002a8a:	430b      	orrs	r3, r1
 8002a8c:	6013      	str	r3, [r2, #0]
  hi2c->ErrorCode = HAL_I2C_ERROR_NONE;
 8002a8e:	2300      	movs	r3, #0
 8002a90:	6463      	str	r3, [r4, #68]	; 0x44
  hi2c->State = HAL_I2C_STATE_READY;
 8002a92:	2241      	movs	r2, #65	; 0x41
 8002a94:	311f      	adds	r1, #31
 8002a96:	54a1      	strb	r1, [r4, r2]
  hi2c->PreviousState = I2C_STATE_NONE;
 8002a98:	6323      	str	r3, [r4, #48]	; 0x30
  hi2c->Mode = HAL_I2C_MODE_NONE;
 8002a9a:	3201      	adds	r2, #1
 8002a9c:	54a3      	strb	r3, [r4, r2]
  return HAL_OK;
 8002a9e:	2000      	movs	r0, #0
}
 8002aa0:	bd10      	pop	{r4, pc}
    hi2c->Lock = HAL_UNLOCKED;
 8002aa2:	3340      	adds	r3, #64	; 0x40
 8002aa4:	2200      	movs	r2, #0
 8002aa6:	54c2      	strb	r2, [r0, r3]
    HAL_I2C_MspInit(hi2c);
 8002aa8:	f7fd fdce 	bl	8000648 <HAL_I2C_MspInit>
 8002aac:	e7b5      	b.n	8002a1a <HAL_I2C_Init+0xe>
    hi2c->Instance->OAR1 = (I2C_OAR1_OA1EN | hi2c->Init.OwnAddress1);
 8002aae:	6822      	ldr	r2, [r4, #0]
 8002ab0:	2380      	movs	r3, #128	; 0x80
 8002ab2:	021b      	lsls	r3, r3, #8
 8002ab4:	68a1      	ldr	r1, [r4, #8]
 8002ab6:	430b      	orrs	r3, r1
 8002ab8:	6093      	str	r3, [r2, #8]
 8002aba:	e7c9      	b.n	8002a50 <HAL_I2C_Init+0x44>
    hi2c->Instance->CR2 = (I2C_CR2_ADD10);
 8002abc:	6823      	ldr	r3, [r4, #0]
 8002abe:	2280      	movs	r2, #128	; 0x80
 8002ac0:	0112      	lsls	r2, r2, #4
 8002ac2:	605a      	str	r2, [r3, #4]
 8002ac4:	e7c7      	b.n	8002a56 <HAL_I2C_Init+0x4a>
    return HAL_ERROR;
 8002ac6:	2001      	movs	r0, #1
 8002ac8:	e7ea      	b.n	8002aa0 <HAL_I2C_Init+0x94>
 8002aca:	46c0      	nop			; (mov r8, r8)
 8002acc:	f0ffffff 	.word	0xf0ffffff
 8002ad0:	ffff7fff 	.word	0xffff7fff
 8002ad4:	02008000 	.word	0x02008000

08002ad8 <HAL_I2C_Master_Transmit>:
{
 8002ad8:	b5f0      	push	{r4, r5, r6, r7, lr}
 8002ada:	46d6      	mov	lr, sl
 8002adc:	464f      	mov	r7, r9
 8002ade:	4646      	mov	r6, r8
 8002ae0:	b5c0      	push	{r6, r7, lr}
 8002ae2:	b084      	sub	sp, #16
 8002ae4:	0004      	movs	r4, r0
 8002ae6:	4689      	mov	r9, r1
 8002ae8:	9203      	str	r2, [sp, #12]
 8002aea:	001e      	movs	r6, r3
 8002aec:	9d0c      	ldr	r5, [sp, #48]	; 0x30
  if (hi2c->State == HAL_I2C_STATE_READY)
 8002aee:	2341      	movs	r3, #65	; 0x41
 8002af0:	5cc3      	ldrb	r3, [r0, r3]
 8002af2:	2b20      	cmp	r3, #32
 8002af4:	d000      	beq.n	8002af8 <HAL_I2C_Master_Transmit+0x20>
 8002af6:	e0a2      	b.n	8002c3e <HAL_I2C_Master_Transmit+0x166>
    __HAL_LOCK(hi2c);
 8002af8:	3320      	adds	r3, #32
 8002afa:	5cc3      	ldrb	r3, [r0, r3]
 8002afc:	2b01      	cmp	r3, #1
 8002afe:	d100      	bne.n	8002b02 <HAL_I2C_Master_Transmit+0x2a>
 8002b00:	e0a4      	b.n	8002c4c <HAL_I2C_Master_Transmit+0x174>
 8002b02:	2340      	movs	r3, #64	; 0x40
 8002b04:	2201      	movs	r2, #1
 8002b06:	54c2      	strb	r2, [r0, r3]
    tickstart = HAL_GetTick();
 8002b08:	f7ff fd02 	bl	8002510 <HAL_GetTick>
 8002b0c:	0007      	movs	r7, r0
    if (I2C_WaitOnFlagUntilTimeout(hi2c, I2C_FLAG_BUSY, SET, I2C_TIMEOUT_BUSY, tickstart) != HAL_OK)
 8002b0e:	2180      	movs	r1, #128	; 0x80
 8002b10:	9000      	str	r0, [sp, #0]
 8002b12:	2319      	movs	r3, #25
 8002b14:	2201      	movs	r2, #1
 8002b16:	0209      	lsls	r1, r1, #8
 8002b18:	0020      	movs	r0, r4
 8002b1a:	f7ff ff21 	bl	8002960 <I2C_WaitOnFlagUntilTimeout>
 8002b1e:	2800      	cmp	r0, #0
 8002b20:	d000      	beq.n	8002b24 <HAL_I2C_Master_Transmit+0x4c>
 8002b22:	e095      	b.n	8002c50 <HAL_I2C_Master_Transmit+0x178>
    hi2c->State     = HAL_I2C_STATE_BUSY_TX;
 8002b24:	2341      	movs	r3, #65	; 0x41
 8002b26:	2221      	movs	r2, #33	; 0x21
 8002b28:	54e2      	strb	r2, [r4, r3]
    hi2c->Mode      = HAL_I2C_MODE_MASTER;
 8002b2a:	3301      	adds	r3, #1
 8002b2c:	3a11      	subs	r2, #17
 8002b2e:	54e2      	strb	r2, [r4, r3]
    hi2c->ErrorCode = HAL_I2C_ERROR_NONE;
 8002b30:	2300      	movs	r3, #0
 8002b32:	6463      	str	r3, [r4, #68]	; 0x44
    hi2c->pBuffPtr  = pData;
 8002b34:	9a03      	ldr	r2, [sp, #12]
 8002b36:	6262      	str	r2, [r4, #36]	; 0x24
    hi2c->XferCount = Size;
 8002b38:	8566      	strh	r6, [r4, #42]	; 0x2a
    hi2c->XferISR   = NULL;
 8002b3a:	6363      	str	r3, [r4, #52]	; 0x34
    if (hi2c->XferCount > MAX_NBYTE_SIZE)
 8002b3c:	8d63      	ldrh	r3, [r4, #42]	; 0x2a
 8002b3e:	b29b      	uxth	r3, r3
 8002b40:	2bff      	cmp	r3, #255	; 0xff
 8002b42:	d916      	bls.n	8002b72 <HAL_I2C_Master_Transmit+0x9a>
      hi2c->XferSize = MAX_NBYTE_SIZE;
 8002b44:	23ff      	movs	r3, #255	; 0xff
 8002b46:	8523      	strh	r3, [r4, #40]	; 0x28
      I2C_TransferConfig(hi2c, DevAddress, (uint8_t)hi2c->XferSize, I2C_RELOAD_MODE,
 8002b48:	3b7f      	subs	r3, #127	; 0x7f
 8002b4a:	4a45      	ldr	r2, [pc, #276]	; (8002c60 <HAL_I2C_Master_Transmit+0x188>)
 8002b4c:	9200      	str	r2, [sp, #0]
 8002b4e:	045b      	lsls	r3, r3, #17
 8002b50:	22ff      	movs	r2, #255	; 0xff
 8002b52:	4649      	mov	r1, r9
 8002b54:	0020      	movs	r0, r4
 8002b56:	f7ff fe79 	bl	800284c <I2C_TransferConfig>
    while (hi2c->XferCount > 0U)
 8002b5a:	8d63      	ldrh	r3, [r4, #42]	; 0x2a
 8002b5c:	b29b      	uxth	r3, r3
 8002b5e:	2b00      	cmp	r3, #0
 8002b60:	d056      	beq.n	8002c10 <HAL_I2C_Master_Transmit+0x138>
          I2C_TransferConfig(hi2c, DevAddress, (uint8_t)hi2c->XferSize, I2C_AUTOEND_MODE,
 8002b62:	2380      	movs	r3, #128	; 0x80
 8002b64:	049b      	lsls	r3, r3, #18
 8002b66:	469a      	mov	sl, r3
          hi2c->XferSize = MAX_NBYTE_SIZE;
 8002b68:	26ff      	movs	r6, #255	; 0xff
          I2C_TransferConfig(hi2c, DevAddress, (uint8_t)hi2c->XferSize, I2C_RELOAD_MODE,
 8002b6a:	2380      	movs	r3, #128	; 0x80
 8002b6c:	045b      	lsls	r3, r3, #17
 8002b6e:	4698      	mov	r8, r3
 8002b70:	e01b      	b.n	8002baa <HAL_I2C_Master_Transmit+0xd2>
      hi2c->XferSize = hi2c->XferCount;
 8002b72:	8d62      	ldrh	r2, [r4, #42]	; 0x2a
 8002b74:	b292      	uxth	r2, r2
 8002b76:	8522      	strh	r2, [r4, #40]	; 0x28
      I2C_TransferConfig(hi2c, DevAddress, (uint8_t)hi2c->XferSize, I2C_AUTOEND_MODE,
 8002b78:	2380      	movs	r3, #128	; 0x80
 8002b7a:	b2d2      	uxtb	r2, r2
 8002b7c:	4938      	ldr	r1, [pc, #224]	; (8002c60 <HAL_I2C_Master_Transmit+0x188>)
 8002b7e:	9100      	str	r1, [sp, #0]
 8002b80:	049b      	lsls	r3, r3, #18
 8002b82:	4649      	mov	r1, r9
 8002b84:	0020      	movs	r0, r4
 8002b86:	f7ff fe61 	bl	800284c <I2C_TransferConfig>
 8002b8a:	e7e6      	b.n	8002b5a <HAL_I2C_Master_Transmit+0x82>
          hi2c->XferSize = hi2c->XferCount;
 8002b8c:	8d62      	ldrh	r2, [r4, #42]	; 0x2a
 8002b8e:	b292      	uxth	r2, r2
 8002b90:	8522      	strh	r2, [r4, #40]	; 0x28
          I2C_TransferConfig(hi2c, DevAddress, (uint8_t)hi2c->XferSize, I2C_AUTOEND_MODE,
 8002b92:	b2d2      	uxtb	r2, r2
 8002b94:	2300      	movs	r3, #0
 8002b96:	9300      	str	r3, [sp, #0]
 8002b98:	4653      	mov	r3, sl
 8002b9a:	4649      	mov	r1, r9
 8002b9c:	0020      	movs	r0, r4
 8002b9e:	f7ff fe55 	bl	800284c <I2C_TransferConfig>
    while (hi2c->XferCount > 0U)
 8002ba2:	8d63      	ldrh	r3, [r4, #42]	; 0x2a
 8002ba4:	b29b      	uxth	r3, r3
 8002ba6:	2b00      	cmp	r3, #0
 8002ba8:	d032      	beq.n	8002c10 <HAL_I2C_Master_Transmit+0x138>
      if (I2C_WaitOnTXISFlagUntilTimeout(hi2c, Timeout, tickstart) != HAL_OK)
 8002baa:	003a      	movs	r2, r7
 8002bac:	0029      	movs	r1, r5
 8002bae:	0020      	movs	r0, r4
 8002bb0:	f7ff feac 	bl	800290c <I2C_WaitOnTXISFlagUntilTimeout>
 8002bb4:	2800      	cmp	r0, #0
 8002bb6:	d14d      	bne.n	8002c54 <HAL_I2C_Master_Transmit+0x17c>
      hi2c->Instance->TXDR = *hi2c->pBuffPtr;
 8002bb8:	6823      	ldr	r3, [r4, #0]
 8002bba:	6a62      	ldr	r2, [r4, #36]	; 0x24
 8002bbc:	7812      	ldrb	r2, [r2, #0]
 8002bbe:	629a      	str	r2, [r3, #40]	; 0x28
      hi2c->pBuffPtr++;
 8002bc0:	6a63      	ldr	r3, [r4, #36]	; 0x24
 8002bc2:	3301      	adds	r3, #1
 8002bc4:	6263      	str	r3, [r4, #36]	; 0x24
      hi2c->XferCount--;
 8002bc6:	8d63      	ldrh	r3, [r4, #42]	; 0x2a
 8002bc8:	3b01      	subs	r3, #1
 8002bca:	b29b      	uxth	r3, r3
 8002bcc:	8563      	strh	r3, [r4, #42]	; 0x2a
      hi2c->XferSize--;
 8002bce:	8d23      	ldrh	r3, [r4, #40]	; 0x28
 8002bd0:	3b01      	subs	r3, #1
 8002bd2:	b29b      	uxth	r3, r3
 8002bd4:	8523      	strh	r3, [r4, #40]	; 0x28
      if ((hi2c->XferCount != 0U) && (hi2c->XferSize == 0U))
 8002bd6:	8d62      	ldrh	r2, [r4, #42]	; 0x2a
 8002bd8:	b292      	uxth	r2, r2
 8002bda:	2a00      	cmp	r2, #0
 8002bdc:	d0e1      	beq.n	8002ba2 <HAL_I2C_Master_Transmit+0xca>
 8002bde:	2b00      	cmp	r3, #0
 8002be0:	d1df      	bne.n	8002ba2 <HAL_I2C_Master_Transmit+0xca>
        if (I2C_WaitOnFlagUntilTimeout(hi2c, I2C_FLAG_TCR, RESET, Timeout, tickstart) != HAL_OK)
 8002be2:	9700      	str	r7, [sp, #0]
 8002be4:	002b      	movs	r3, r5
 8002be6:	2200      	movs	r2, #0
 8002be8:	2180      	movs	r1, #128	; 0x80
 8002bea:	0020      	movs	r0, r4
 8002bec:	f7ff feb8 	bl	8002960 <I2C_WaitOnFlagUntilTimeout>
 8002bf0:	2800      	cmp	r0, #0
 8002bf2:	d131      	bne.n	8002c58 <HAL_I2C_Master_Transmit+0x180>
        if (hi2c->XferCount > MAX_NBYTE_SIZE)
 8002bf4:	8d63      	ldrh	r3, [r4, #42]	; 0x2a
 8002bf6:	b29b      	uxth	r3, r3
 8002bf8:	2bff      	cmp	r3, #255	; 0xff
 8002bfa:	d9c7      	bls.n	8002b8c <HAL_I2C_Master_Transmit+0xb4>
          hi2c->XferSize = MAX_NBYTE_SIZE;
 8002bfc:	8526      	strh	r6, [r4, #40]	; 0x28
          I2C_TransferConfig(hi2c, DevAddress, (uint8_t)hi2c->XferSize, I2C_RELOAD_MODE,
 8002bfe:	2300      	movs	r3, #0
 8002c00:	9300      	str	r3, [sp, #0]
 8002c02:	4643      	mov	r3, r8
 8002c04:	0032      	movs	r2, r6
 8002c06:	4649      	mov	r1, r9
 8002c08:	0020      	movs	r0, r4
 8002c0a:	f7ff fe1f 	bl	800284c <I2C_TransferConfig>
 8002c0e:	e7c8      	b.n	8002ba2 <HAL_I2C_Master_Transmit+0xca>
    if (I2C_WaitOnSTOPFlagUntilTimeout(hi2c, Timeout, tickstart) != HAL_OK)
 8002c10:	003a      	movs	r2, r7
 8002c12:	0029      	movs	r1, r5
 8002c14:	0020      	movs	r0, r4
 8002c16:	f7ff fed0 	bl	80029ba <I2C_WaitOnSTOPFlagUntilTimeout>
 8002c1a:	2800      	cmp	r0, #0
 8002c1c:	d11e      	bne.n	8002c5c <HAL_I2C_Master_Transmit+0x184>
    __HAL_I2C_CLEAR_FLAG(hi2c, I2C_FLAG_STOPF);
 8002c1e:	6823      	ldr	r3, [r4, #0]
 8002c20:	2220      	movs	r2, #32
 8002c22:	61da      	str	r2, [r3, #28]
    I2C_RESET_CR2(hi2c);
 8002c24:	6821      	ldr	r1, [r4, #0]
 8002c26:	684b      	ldr	r3, [r1, #4]
 8002c28:	4d0e      	ldr	r5, [pc, #56]	; (8002c64 <HAL_I2C_Master_Transmit+0x18c>)
 8002c2a:	402b      	ands	r3, r5
 8002c2c:	604b      	str	r3, [r1, #4]
    hi2c->State = HAL_I2C_STATE_READY;
 8002c2e:	2341      	movs	r3, #65	; 0x41
 8002c30:	54e2      	strb	r2, [r4, r3]
    hi2c->Mode  = HAL_I2C_MODE_NONE;
 8002c32:	2300      	movs	r3, #0
 8002c34:	3222      	adds	r2, #34	; 0x22
 8002c36:	54a3      	strb	r3, [r4, r2]
    __HAL_UNLOCK(hi2c);
 8002c38:	3a02      	subs	r2, #2
 8002c3a:	54a3      	strb	r3, [r4, r2]
    return HAL_OK;
 8002c3c:	e000      	b.n	8002c40 <HAL_I2C_Master_Transmit+0x168>
    return HAL_BUSY;
 8002c3e:	2002      	movs	r0, #2
}
 8002c40:	b004      	add	sp, #16
 8002c42:	bce0      	pop	{r5, r6, r7}
 8002c44:	46ba      	mov	sl, r7
 8002c46:	46b1      	mov	r9, r6
 8002c48:	46a8      	mov	r8, r5
 8002c4a:	bdf0      	pop	{r4, r5, r6, r7, pc}
    __HAL_LOCK(hi2c);
 8002c4c:	2002      	movs	r0, #2
 8002c4e:	e7f7      	b.n	8002c40 <HAL_I2C_Master_Transmit+0x168>
      return HAL_ERROR;
 8002c50:	2001      	movs	r0, #1
 8002c52:	e7f5      	b.n	8002c40 <HAL_I2C_Master_Transmit+0x168>
        return HAL_ERROR;
 8002c54:	2001      	movs	r0, #1
 8002c56:	e7f3      	b.n	8002c40 <HAL_I2C_Master_Transmit+0x168>
          return HAL_ERROR;
 8002c58:	2001      	movs	r0, #1
 8002c5a:	e7f1      	b.n	8002c40 <HAL_I2C_Master_Transmit+0x168>
      return HAL_ERROR;
 8002c5c:	2001      	movs	r0, #1
 8002c5e:	e7ef      	b.n	8002c40 <HAL_I2C_Master_Transmit+0x168>
 8002c60:	80002000 	.word	0x80002000
 8002c64:	fe00e800 	.word	0xfe00e800

08002c68 <HAL_I2C_IsDeviceReady>:
{
 8002c68:	b5f0      	push	{r4, r5, r6, r7, lr}
 8002c6a:	46de      	mov	lr, fp
 8002c6c:	4657      	mov	r7, sl
 8002c6e:	464e      	mov	r6, r9
 8002c70:	4645      	mov	r5, r8
 8002c72:	b5e0      	push	{r5, r6, r7, lr}
 8002c74:	b085      	sub	sp, #20
 8002c76:	0005      	movs	r5, r0
 8002c78:	4692      	mov	sl, r2
 8002c7a:	001c      	movs	r4, r3
  __IO uint32_t I2C_Trials = 0UL;
 8002c7c:	2300      	movs	r3, #0
 8002c7e:	9303      	str	r3, [sp, #12]
  if (hi2c->State == HAL_I2C_STATE_READY)
 8002c80:	3341      	adds	r3, #65	; 0x41
 8002c82:	5cc3      	ldrb	r3, [r0, r3]
 8002c84:	2b20      	cmp	r3, #32
 8002c86:	d000      	beq.n	8002c8a <HAL_I2C_IsDeviceReady+0x22>
 8002c88:	e0a2      	b.n	8002dd0 <HAL_I2C_IsDeviceReady+0x168>
    if (__HAL_I2C_GET_FLAG(hi2c, I2C_FLAG_BUSY) == SET)
 8002c8a:	6803      	ldr	r3, [r0, #0]
 8002c8c:	699b      	ldr	r3, [r3, #24]
 8002c8e:	041b      	lsls	r3, r3, #16
 8002c90:	d500      	bpl.n	8002c94 <HAL_I2C_IsDeviceReady+0x2c>
 8002c92:	e09f      	b.n	8002dd4 <HAL_I2C_IsDeviceReady+0x16c>
    __HAL_LOCK(hi2c);
 8002c94:	2340      	movs	r3, #64	; 0x40
 8002c96:	5cc3      	ldrb	r3, [r0, r3]
 8002c98:	2b01      	cmp	r3, #1
 8002c9a:	d100      	bne.n	8002c9e <HAL_I2C_IsDeviceReady+0x36>
 8002c9c:	e09c      	b.n	8002dd8 <HAL_I2C_IsDeviceReady+0x170>
 8002c9e:	2340      	movs	r3, #64	; 0x40
 8002ca0:	2201      	movs	r2, #1
 8002ca2:	54c2      	strb	r2, [r0, r3]
    hi2c->State = HAL_I2C_STATE_BUSY;
 8002ca4:	3301      	adds	r3, #1
 8002ca6:	3223      	adds	r2, #35	; 0x23
 8002ca8:	54c2      	strb	r2, [r0, r3]
    hi2c->ErrorCode = HAL_I2C_ERROR_NONE;
 8002caa:	2300      	movs	r3, #0
 8002cac:	6443      	str	r3, [r0, #68]	; 0x44
      hi2c->Instance->CR2 = I2C_GENERATE_START(hi2c->Init.AddressingMode, DevAddress);
 8002cae:	0589      	lsls	r1, r1, #22
 8002cb0:	0d8b      	lsrs	r3, r1, #22
 8002cb2:	469b      	mov	fp, r3
 8002cb4:	4699      	mov	r9, r3
 8002cb6:	68eb      	ldr	r3, [r5, #12]
 8002cb8:	2b01      	cmp	r3, #1
 8002cba:	d014      	beq.n	8002ce6 <HAL_I2C_IsDeviceReady+0x7e>
 8002cbc:	23a0      	movs	r3, #160	; 0xa0
 8002cbe:	019b      	lsls	r3, r3, #6
 8002cc0:	465a      	mov	r2, fp
 8002cc2:	4313      	orrs	r3, r2
 8002cc4:	682a      	ldr	r2, [r5, #0]
 8002cc6:	6053      	str	r3, [r2, #4]
      tickstart = HAL_GetTick();
 8002cc8:	f7ff fc22 	bl	8002510 <HAL_GetTick>
 8002ccc:	4680      	mov	r8, r0
      tmp1 = __HAL_I2C_GET_FLAG(hi2c, I2C_FLAG_STOPF);
 8002cce:	682a      	ldr	r2, [r5, #0]
 8002cd0:	6990      	ldr	r0, [r2, #24]
      tmp2 = __HAL_I2C_GET_FLAG(hi2c, I2C_FLAG_AF);
 8002cd2:	6991      	ldr	r1, [r2, #24]
      tmp1 = __HAL_I2C_GET_FLAG(hi2c, I2C_FLAG_STOPF);
 8002cd4:	2320      	movs	r3, #32
 8002cd6:	4003      	ands	r3, r0
      tmp2 = __HAL_I2C_GET_FLAG(hi2c, I2C_FLAG_AF);
 8002cd8:	2210      	movs	r2, #16
 8002cda:	400a      	ands	r2, r1
      while ((tmp1 == RESET) && (tmp2 == RESET))
 8002cdc:	4313      	orrs	r3, r2
 8002cde:	d128      	bne.n	8002d32 <HAL_I2C_IsDeviceReady+0xca>
        tmp1 = __HAL_I2C_GET_FLAG(hi2c, I2C_FLAG_STOPF);
 8002ce0:	2720      	movs	r7, #32
        tmp2 = __HAL_I2C_GET_FLAG(hi2c, I2C_FLAG_AF);
 8002ce2:	2610      	movs	r6, #16
 8002ce4:	e00a      	b.n	8002cfc <HAL_I2C_IsDeviceReady+0x94>
      hi2c->Instance->CR2 = I2C_GENERATE_START(hi2c->Init.AddressingMode, DevAddress);
 8002ce6:	4b40      	ldr	r3, [pc, #256]	; (8002de8 <HAL_I2C_IsDeviceReady+0x180>)
 8002ce8:	464a      	mov	r2, r9
 8002cea:	4313      	orrs	r3, r2
 8002cec:	e7ea      	b.n	8002cc4 <HAL_I2C_IsDeviceReady+0x5c>
        tmp1 = __HAL_I2C_GET_FLAG(hi2c, I2C_FLAG_STOPF);
 8002cee:	682a      	ldr	r2, [r5, #0]
 8002cf0:	6993      	ldr	r3, [r2, #24]
        tmp2 = __HAL_I2C_GET_FLAG(hi2c, I2C_FLAG_AF);
 8002cf2:	6992      	ldr	r2, [r2, #24]
        tmp1 = __HAL_I2C_GET_FLAG(hi2c, I2C_FLAG_STOPF);
 8002cf4:	403b      	ands	r3, r7
        tmp2 = __HAL_I2C_GET_FLAG(hi2c, I2C_FLAG_AF);
 8002cf6:	4032      	ands	r2, r6
      while ((tmp1 == RESET) && (tmp2 == RESET))
 8002cf8:	4313      	orrs	r3, r2
 8002cfa:	d11a      	bne.n	8002d32 <HAL_I2C_IsDeviceReady+0xca>
        if (Timeout != HAL_MAX_DELAY)
 8002cfc:	1c63      	adds	r3, r4, #1
 8002cfe:	d0f6      	beq.n	8002cee <HAL_I2C_IsDeviceReady+0x86>
          if (((HAL_GetTick() - tickstart) > Timeout) || (Timeout == 0U))
 8002d00:	f7ff fc06 	bl	8002510 <HAL_GetTick>
 8002d04:	4643      	mov	r3, r8
 8002d06:	1ac0      	subs	r0, r0, r3
 8002d08:	42a0      	cmp	r0, r4
 8002d0a:	d801      	bhi.n	8002d10 <HAL_I2C_IsDeviceReady+0xa8>
 8002d0c:	2c00      	cmp	r4, #0
 8002d0e:	d1ee      	bne.n	8002cee <HAL_I2C_IsDeviceReady+0x86>
            hi2c->State = HAL_I2C_STATE_READY;
 8002d10:	2220      	movs	r2, #32
 8002d12:	2341      	movs	r3, #65	; 0x41
 8002d14:	54ea      	strb	r2, [r5, r3]
            hi2c->ErrorCode |= HAL_I2C_ERROR_TIMEOUT;
 8002d16:	6c6b      	ldr	r3, [r5, #68]	; 0x44
 8002d18:	4313      	orrs	r3, r2
 8002d1a:	646b      	str	r3, [r5, #68]	; 0x44
            __HAL_UNLOCK(hi2c);
 8002d1c:	2340      	movs	r3, #64	; 0x40
 8002d1e:	2200      	movs	r2, #0
 8002d20:	54ea      	strb	r2, [r5, r3]
            return HAL_ERROR;
 8002d22:	2001      	movs	r0, #1
}
 8002d24:	b005      	add	sp, #20
 8002d26:	bcf0      	pop	{r4, r5, r6, r7}
 8002d28:	46bb      	mov	fp, r7
 8002d2a:	46b2      	mov	sl, r6
 8002d2c:	46a9      	mov	r9, r5
 8002d2e:	46a0      	mov	r8, r4
 8002d30:	bdf0      	pop	{r4, r5, r6, r7, pc}
      if (__HAL_I2C_GET_FLAG(hi2c, I2C_FLAG_AF) == RESET)
 8002d32:	682b      	ldr	r3, [r5, #0]
 8002d34:	699b      	ldr	r3, [r3, #24]
 8002d36:	06db      	lsls	r3, r3, #27
 8002d38:	d523      	bpl.n	8002d82 <HAL_I2C_IsDeviceReady+0x11a>
        if (I2C_WaitOnFlagUntilTimeout(hi2c, I2C_FLAG_STOPF, RESET, Timeout, tickstart) != HAL_OK)
 8002d3a:	4643      	mov	r3, r8
 8002d3c:	9300      	str	r3, [sp, #0]
 8002d3e:	0023      	movs	r3, r4
 8002d40:	2200      	movs	r2, #0
 8002d42:	2120      	movs	r1, #32
 8002d44:	0028      	movs	r0, r5
 8002d46:	f7ff fe0b 	bl	8002960 <I2C_WaitOnFlagUntilTimeout>
 8002d4a:	2800      	cmp	r0, #0
 8002d4c:	d148      	bne.n	8002de0 <HAL_I2C_IsDeviceReady+0x178>
        __HAL_I2C_CLEAR_FLAG(hi2c, I2C_FLAG_AF);
 8002d4e:	682b      	ldr	r3, [r5, #0]
 8002d50:	2210      	movs	r2, #16
 8002d52:	61da      	str	r2, [r3, #28]
        __HAL_I2C_CLEAR_FLAG(hi2c, I2C_FLAG_STOPF);
 8002d54:	682b      	ldr	r3, [r5, #0]
 8002d56:	3210      	adds	r2, #16
 8002d58:	61da      	str	r2, [r3, #28]
      if (I2C_Trials == Trials)
 8002d5a:	9b03      	ldr	r3, [sp, #12]
 8002d5c:	4553      	cmp	r3, sl
 8002d5e:	d023      	beq.n	8002da8 <HAL_I2C_IsDeviceReady+0x140>
      I2C_Trials++;
 8002d60:	9b03      	ldr	r3, [sp, #12]
 8002d62:	3301      	adds	r3, #1
 8002d64:	9303      	str	r3, [sp, #12]
    } while (I2C_Trials < Trials);
 8002d66:	9b03      	ldr	r3, [sp, #12]
 8002d68:	4553      	cmp	r3, sl
 8002d6a:	d3a4      	bcc.n	8002cb6 <HAL_I2C_IsDeviceReady+0x4e>
    hi2c->State = HAL_I2C_STATE_READY;
 8002d6c:	2220      	movs	r2, #32
 8002d6e:	2341      	movs	r3, #65	; 0x41
 8002d70:	54ea      	strb	r2, [r5, r3]
    hi2c->ErrorCode |= HAL_I2C_ERROR_TIMEOUT;
 8002d72:	6c6b      	ldr	r3, [r5, #68]	; 0x44
 8002d74:	4313      	orrs	r3, r2
 8002d76:	646b      	str	r3, [r5, #68]	; 0x44
    __HAL_UNLOCK(hi2c);
 8002d78:	2340      	movs	r3, #64	; 0x40
 8002d7a:	2200      	movs	r2, #0
 8002d7c:	54ea      	strb	r2, [r5, r3]
    return HAL_ERROR;
 8002d7e:	2001      	movs	r0, #1
 8002d80:	e7d0      	b.n	8002d24 <HAL_I2C_IsDeviceReady+0xbc>
        if (I2C_WaitOnFlagUntilTimeout(hi2c, I2C_FLAG_STOPF, RESET, Timeout, tickstart) != HAL_OK)
 8002d82:	4643      	mov	r3, r8
 8002d84:	9300      	str	r3, [sp, #0]
 8002d86:	0023      	movs	r3, r4
 8002d88:	2200      	movs	r2, #0
 8002d8a:	2120      	movs	r1, #32
 8002d8c:	0028      	movs	r0, r5
 8002d8e:	f7ff fde7 	bl	8002960 <I2C_WaitOnFlagUntilTimeout>
 8002d92:	2800      	cmp	r0, #0
 8002d94:	d122      	bne.n	8002ddc <HAL_I2C_IsDeviceReady+0x174>
        __HAL_I2C_CLEAR_FLAG(hi2c, I2C_FLAG_STOPF);
 8002d96:	682a      	ldr	r2, [r5, #0]
 8002d98:	2320      	movs	r3, #32
 8002d9a:	61d3      	str	r3, [r2, #28]
        hi2c->State = HAL_I2C_STATE_READY;
 8002d9c:	2241      	movs	r2, #65	; 0x41
 8002d9e:	54ab      	strb	r3, [r5, r2]
        __HAL_UNLOCK(hi2c);
 8002da0:	3320      	adds	r3, #32
 8002da2:	2200      	movs	r2, #0
 8002da4:	54ea      	strb	r2, [r5, r3]
        return HAL_OK;
 8002da6:	e7bd      	b.n	8002d24 <HAL_I2C_IsDeviceReady+0xbc>
        hi2c->Instance->CR2 |= I2C_CR2_STOP;
 8002da8:	682a      	ldr	r2, [r5, #0]
 8002daa:	6851      	ldr	r1, [r2, #4]
 8002dac:	2380      	movs	r3, #128	; 0x80
 8002dae:	01db      	lsls	r3, r3, #7
 8002db0:	430b      	orrs	r3, r1
 8002db2:	6053      	str	r3, [r2, #4]
        if (I2C_WaitOnFlagUntilTimeout(hi2c, I2C_FLAG_STOPF, RESET, Timeout, tickstart) != HAL_OK)
 8002db4:	4643      	mov	r3, r8
 8002db6:	9300      	str	r3, [sp, #0]
 8002db8:	0023      	movs	r3, r4
 8002dba:	2200      	movs	r2, #0
 8002dbc:	2120      	movs	r1, #32
 8002dbe:	0028      	movs	r0, r5
 8002dc0:	f7ff fdce 	bl	8002960 <I2C_WaitOnFlagUntilTimeout>
 8002dc4:	2800      	cmp	r0, #0
 8002dc6:	d10d      	bne.n	8002de4 <HAL_I2C_IsDeviceReady+0x17c>
        __HAL_I2C_CLEAR_FLAG(hi2c, I2C_FLAG_STOPF);
 8002dc8:	682b      	ldr	r3, [r5, #0]
 8002dca:	2220      	movs	r2, #32
 8002dcc:	61da      	str	r2, [r3, #28]
 8002dce:	e7c7      	b.n	8002d60 <HAL_I2C_IsDeviceReady+0xf8>
    return HAL_BUSY;
 8002dd0:	2002      	movs	r0, #2
 8002dd2:	e7a7      	b.n	8002d24 <HAL_I2C_IsDeviceReady+0xbc>
      return HAL_BUSY;
 8002dd4:	2002      	movs	r0, #2
 8002dd6:	e7a5      	b.n	8002d24 <HAL_I2C_IsDeviceReady+0xbc>
    __HAL_LOCK(hi2c);
 8002dd8:	2002      	movs	r0, #2
 8002dda:	e7a3      	b.n	8002d24 <HAL_I2C_IsDeviceReady+0xbc>
          return HAL_ERROR;
 8002ddc:	2001      	movs	r0, #1
 8002dde:	e7a1      	b.n	8002d24 <HAL_I2C_IsDeviceReady+0xbc>
          return HAL_ERROR;
 8002de0:	2001      	movs	r0, #1
 8002de2:	e79f      	b.n	8002d24 <HAL_I2C_IsDeviceReady+0xbc>
          return HAL_ERROR;
 8002de4:	2001      	movs	r0, #1
 8002de6:	e79d      	b.n	8002d24 <HAL_I2C_IsDeviceReady+0xbc>
 8002de8:	02002000 	.word	0x02002000

08002dec <HAL_I2CEx_ConfigAnalogFilter>:
  *                the configuration information for the specified I2Cx peripheral.
  * @param  AnalogFilter New state of the Analog filter.
  * @retval HAL status
  */
HAL_StatusTypeDef HAL_I2CEx_ConfigAnalogFilter(I2C_HandleTypeDef *hi2c, uint32_t AnalogFilter)
{
 8002dec:	b5f0      	push	{r4, r5, r6, r7, lr}
  /* Check the parameters */
  assert_param(IS_I2C_ALL_INSTANCE(hi2c->Instance));
  assert_param(IS_I2C_ANALOG_FILTER(AnalogFilter));

  if (hi2c->State == HAL_I2C_STATE_READY)
 8002dee:	2341      	movs	r3, #65	; 0x41
 8002df0:	5cc3      	ldrb	r3, [r0, r3]
 8002df2:	2b20      	cmp	r3, #32
 8002df4:	d120      	bne.n	8002e38 <HAL_I2CEx_ConfigAnalogFilter+0x4c>
  {
    /* Process Locked */
    __HAL_LOCK(hi2c);
 8002df6:	3320      	adds	r3, #32
 8002df8:	5cc3      	ldrb	r3, [r0, r3]
 8002dfa:	2b01      	cmp	r3, #1
 8002dfc:	d01e      	beq.n	8002e3c <HAL_I2CEx_ConfigAnalogFilter+0x50>
 8002dfe:	2440      	movs	r4, #64	; 0x40
 8002e00:	2201      	movs	r2, #1
 8002e02:	5502      	strb	r2, [r0, r4]

    hi2c->State = HAL_I2C_STATE_BUSY;
 8002e04:	2541      	movs	r5, #65	; 0x41
 8002e06:	2324      	movs	r3, #36	; 0x24
 8002e08:	5543      	strb	r3, [r0, r5]

    /* Disable the selected I2C peripheral */
    __HAL_I2C_DISABLE(hi2c);
 8002e0a:	6806      	ldr	r6, [r0, #0]
 8002e0c:	6833      	ldr	r3, [r6, #0]
 8002e0e:	4393      	bics	r3, r2
 8002e10:	6033      	str	r3, [r6, #0]

    /* Reset I2Cx ANOFF bit */
    hi2c->Instance->CR1 &= ~(I2C_CR1_ANFOFF);
 8002e12:	6806      	ldr	r6, [r0, #0]
 8002e14:	6833      	ldr	r3, [r6, #0]
 8002e16:	4f0a      	ldr	r7, [pc, #40]	; (8002e40 <HAL_I2CEx_ConfigAnalogFilter+0x54>)
 8002e18:	403b      	ands	r3, r7
 8002e1a:	6033      	str	r3, [r6, #0]

    /* Set analog filter bit*/
    hi2c->Instance->CR1 |= AnalogFilter;
 8002e1c:	6806      	ldr	r6, [r0, #0]
 8002e1e:	6833      	ldr	r3, [r6, #0]
 8002e20:	4319      	orrs	r1, r3
 8002e22:	6031      	str	r1, [r6, #0]

    __HAL_I2C_ENABLE(hi2c);
 8002e24:	6801      	ldr	r1, [r0, #0]
 8002e26:	680b      	ldr	r3, [r1, #0]
 8002e28:	4313      	orrs	r3, r2
 8002e2a:	600b      	str	r3, [r1, #0]

    hi2c->State = HAL_I2C_STATE_READY;
 8002e2c:	2320      	movs	r3, #32
 8002e2e:	5543      	strb	r3, [r0, r5]

    /* Process Unlocked */
    __HAL_UNLOCK(hi2c);
 8002e30:	2300      	movs	r3, #0
 8002e32:	5503      	strb	r3, [r0, r4]

    return HAL_OK;
 8002e34:	2000      	movs	r0, #0
  }
  else
  {
    return HAL_BUSY;
  }
}
 8002e36:	bdf0      	pop	{r4, r5, r6, r7, pc}
    return HAL_BUSY;
 8002e38:	2002      	movs	r0, #2
 8002e3a:	e7fc      	b.n	8002e36 <HAL_I2CEx_ConfigAnalogFilter+0x4a>
    __HAL_LOCK(hi2c);
 8002e3c:	2002      	movs	r0, #2
 8002e3e:	e7fa      	b.n	8002e36 <HAL_I2CEx_ConfigAnalogFilter+0x4a>
 8002e40:	ffffefff 	.word	0xffffefff

08002e44 <HAL_I2CEx_ConfigDigitalFilter>:
  *                the configuration information for the specified I2Cx peripheral.
  * @param  DigitalFilter Coefficient of digital noise filter between Min_Data=0x00 and Max_Data=0x0F.
  * @retval HAL status
  */
HAL_StatusTypeDef HAL_I2CEx_ConfigDigitalFilter(I2C_HandleTypeDef *hi2c, uint32_t DigitalFilter)
{
 8002e44:	b5f0      	push	{r4, r5, r6, r7, lr}

  /* Check the parameters */
  assert_param(IS_I2C_ALL_INSTANCE(hi2c->Instance));
  assert_param(IS_I2C_DIGITAL_FILTER(DigitalFilter));

  if (hi2c->State == HAL_I2C_STATE_READY)
 8002e46:	2341      	movs	r3, #65	; 0x41
 8002e48:	5cc3      	ldrb	r3, [r0, r3]
 8002e4a:	2b20      	cmp	r3, #32
 8002e4c:	d11e      	bne.n	8002e8c <HAL_I2CEx_ConfigDigitalFilter+0x48>
  {
    /* Process Locked */
    __HAL_LOCK(hi2c);
 8002e4e:	3320      	adds	r3, #32
 8002e50:	5cc3      	ldrb	r3, [r0, r3]
 8002e52:	2b01      	cmp	r3, #1
 8002e54:	d01c      	beq.n	8002e90 <HAL_I2CEx_ConfigDigitalFilter+0x4c>
 8002e56:	2440      	movs	r4, #64	; 0x40
 8002e58:	2201      	movs	r2, #1
 8002e5a:	5502      	strb	r2, [r0, r4]

    hi2c->State = HAL_I2C_STATE_BUSY;
 8002e5c:	2541      	movs	r5, #65	; 0x41
 8002e5e:	2324      	movs	r3, #36	; 0x24
 8002e60:	5543      	strb	r3, [r0, r5]

    /* Disable the selected I2C peripheral */
    __HAL_I2C_DISABLE(hi2c);
 8002e62:	6806      	ldr	r6, [r0, #0]
 8002e64:	6833      	ldr	r3, [r6, #0]
 8002e66:	4393      	bics	r3, r2
 8002e68:	6033      	str	r3, [r6, #0]

    /* Get the old register value */
    tmpreg = hi2c->Instance->CR1;
 8002e6a:	6806      	ldr	r6, [r0, #0]
 8002e6c:	6833      	ldr	r3, [r6, #0]

    /* Reset I2Cx DNF bits [11:8] */
    tmpreg &= ~(I2C_CR1_DNF);
 8002e6e:	4f09      	ldr	r7, [pc, #36]	; (8002e94 <HAL_I2CEx_ConfigDigitalFilter+0x50>)
 8002e70:	403b      	ands	r3, r7

    /* Set I2Cx DNF coefficient */
    tmpreg |= DigitalFilter << 8U;
 8002e72:	0209      	lsls	r1, r1, #8
 8002e74:	4319      	orrs	r1, r3

    /* Store the new register value */
    hi2c->Instance->CR1 = tmpreg;
 8002e76:	6031      	str	r1, [r6, #0]

    __HAL_I2C_ENABLE(hi2c);
 8002e78:	6801      	ldr	r1, [r0, #0]
 8002e7a:	680b      	ldr	r3, [r1, #0]
 8002e7c:	4313      	orrs	r3, r2
 8002e7e:	600b      	str	r3, [r1, #0]

    hi2c->State = HAL_I2C_STATE_READY;
 8002e80:	2320      	movs	r3, #32
 8002e82:	5543      	strb	r3, [r0, r5]

    /* Process Unlocked */
    __HAL_UNLOCK(hi2c);
 8002e84:	2300      	movs	r3, #0
 8002e86:	5503      	strb	r3, [r0, r4]

    return HAL_OK;
 8002e88:	2000      	movs	r0, #0
  }
  else
  {
    return HAL_BUSY;
  }
}
 8002e8a:	bdf0      	pop	{r4, r5, r6, r7, pc}
    return HAL_BUSY;
 8002e8c:	2002      	movs	r0, #2
 8002e8e:	e7fc      	b.n	8002e8a <HAL_I2CEx_ConfigDigitalFilter+0x46>
    __HAL_LOCK(hi2c);
 8002e90:	2002      	movs	r0, #2
 8002e92:	e7fa      	b.n	8002e8a <HAL_I2CEx_ConfigDigitalFilter+0x46>
 8002e94:	fffff0ff 	.word	0xfffff0ff

08002e98 <HAL_RCC_GetSysClockFreq>:
  *         right SYSCLK value. Otherwise, any configuration based on this function will be incorrect.
  *
  * @retval SYSCLK frequency
  */
uint32_t HAL_RCC_GetSysClockFreq(void)
{
 8002e98:	b510      	push	{r4, lr}
  uint32_t tmpreg, pllm, plld, pllvco, msiclkrange;    /* no init needed */
  uint32_t sysclockfreq;

  tmpreg = RCC->CFGR;
 8002e9a:	4b26      	ldr	r3, [pc, #152]	; (8002f34 <HAL_RCC_GetSysClockFreq+0x9c>)
 8002e9c:	68da      	ldr	r2, [r3, #12]

  /* Get SYSCLK source -------------------------------------------------------*/
  switch (tmpreg & RCC_CFGR_SWS)
 8002e9e:	230c      	movs	r3, #12
 8002ea0:	4013      	ands	r3, r2
 8002ea2:	2b08      	cmp	r3, #8
 8002ea4:	d043      	beq.n	8002f2e <HAL_RCC_GetSysClockFreq+0x96>
 8002ea6:	2b0c      	cmp	r3, #12
 8002ea8:	d014      	beq.n	8002ed4 <HAL_RCC_GetSysClockFreq+0x3c>
 8002eaa:	2b04      	cmp	r3, #4
 8002eac:	d008      	beq.n	8002ec0 <HAL_RCC_GetSysClockFreq+0x28>
      break;
    }
    case RCC_SYSCLKSOURCE_STATUS_MSI:  /* MSI used as system clock source */
    default: /* MSI used as system clock */
    {
      msiclkrange = (RCC->ICSCR & RCC_ICSCR_MSIRANGE ) >> RCC_ICSCR_MSIRANGE_Pos;
 8002eae:	4b21      	ldr	r3, [pc, #132]	; (8002f34 <HAL_RCC_GetSysClockFreq+0x9c>)
 8002eb0:	685b      	ldr	r3, [r3, #4]
 8002eb2:	041b      	lsls	r3, r3, #16
 8002eb4:	0f5b      	lsrs	r3, r3, #29
      sysclockfreq = (32768U * (1UL << (msiclkrange + 1U)));
 8002eb6:	3301      	adds	r3, #1
 8002eb8:	2080      	movs	r0, #128	; 0x80
 8002eba:	0200      	lsls	r0, r0, #8
 8002ebc:	4098      	lsls	r0, r3
      break;
 8002ebe:	e008      	b.n	8002ed2 <HAL_RCC_GetSysClockFreq+0x3a>
      if ((RCC->CR & RCC_CR_HSIDIVF) != 0U)
 8002ec0:	4b1c      	ldr	r3, [pc, #112]	; (8002f34 <HAL_RCC_GetSysClockFreq+0x9c>)
 8002ec2:	6818      	ldr	r0, [r3, #0]
 8002ec4:	06c0      	lsls	r0, r0, #27
        sysclockfreq =  HSI_VALUE;
 8002ec6:	17c0      	asrs	r0, r0, #31
 8002ec8:	4b1b      	ldr	r3, [pc, #108]	; (8002f38 <HAL_RCC_GetSysClockFreq+0xa0>)
 8002eca:	4018      	ands	r0, r3
 8002ecc:	4b1b      	ldr	r3, [pc, #108]	; (8002f3c <HAL_RCC_GetSysClockFreq+0xa4>)
 8002ece:	469c      	mov	ip, r3
 8002ed0:	4460      	add	r0, ip
    }
  }
  return sysclockfreq;
}
 8002ed2:	bd10      	pop	{r4, pc}
      pllm = PLLMulTable[(uint32_t)(tmpreg & RCC_CFGR_PLLMUL) >> RCC_CFGR_PLLMUL_Pos];
 8002ed4:	0293      	lsls	r3, r2, #10
 8002ed6:	0f1b      	lsrs	r3, r3, #28
 8002ed8:	4919      	ldr	r1, [pc, #100]	; (8002f40 <HAL_RCC_GetSysClockFreq+0xa8>)
 8002eda:	5cc8      	ldrb	r0, [r1, r3]
      plld = ((uint32_t)(tmpreg & RCC_CFGR_PLLDIV) >> RCC_CFGR_PLLDIV_Pos) + 1U;
 8002edc:	0212      	lsls	r2, r2, #8
 8002ede:	0f94      	lsrs	r4, r2, #30
 8002ee0:	3401      	adds	r4, #1
      if (__HAL_RCC_GET_PLL_OSCSOURCE() != RCC_PLLSOURCE_HSI)
 8002ee2:	4b14      	ldr	r3, [pc, #80]	; (8002f34 <HAL_RCC_GetSysClockFreq+0x9c>)
 8002ee4:	68db      	ldr	r3, [r3, #12]
 8002ee6:	03db      	lsls	r3, r3, #15
 8002ee8:	d509      	bpl.n	8002efe <HAL_RCC_GetSysClockFreq+0x66>
        pllvco = (uint32_t)(((uint64_t)HSE_VALUE * (uint64_t)pllm) / (uint64_t)plld);
 8002eea:	4a16      	ldr	r2, [pc, #88]	; (8002f44 <HAL_RCC_GetSysClockFreq+0xac>)
 8002eec:	2300      	movs	r3, #0
 8002eee:	2100      	movs	r1, #0
 8002ef0:	f7fd f9c0 	bl	8000274 <__aeabi_lmul>
 8002ef4:	0022      	movs	r2, r4
 8002ef6:	2300      	movs	r3, #0
 8002ef8:	f7fd f99c 	bl	8000234 <__aeabi_uldivmod>
 8002efc:	e7e9      	b.n	8002ed2 <HAL_RCC_GetSysClockFreq+0x3a>
        if ((RCC->CR & RCC_CR_HSIDIVF) != 0U)
 8002efe:	4b0d      	ldr	r3, [pc, #52]	; (8002f34 <HAL_RCC_GetSysClockFreq+0x9c>)
 8002f00:	681b      	ldr	r3, [r3, #0]
 8002f02:	06db      	lsls	r3, r3, #27
 8002f04:	d509      	bpl.n	8002f1a <HAL_RCC_GetSysClockFreq+0x82>
          pllvco = (uint32_t)((((uint64_t)(HSI_VALUE >> 2)) * (uint64_t)pllm) / (uint64_t)plld);
 8002f06:	4a10      	ldr	r2, [pc, #64]	; (8002f48 <HAL_RCC_GetSysClockFreq+0xb0>)
 8002f08:	2300      	movs	r3, #0
 8002f0a:	2100      	movs	r1, #0
 8002f0c:	f7fd f9b2 	bl	8000274 <__aeabi_lmul>
 8002f10:	0022      	movs	r2, r4
 8002f12:	2300      	movs	r3, #0
 8002f14:	f7fd f98e 	bl	8000234 <__aeabi_uldivmod>
 8002f18:	e7db      	b.n	8002ed2 <HAL_RCC_GetSysClockFreq+0x3a>
         pllvco = (uint32_t)(((uint64_t)HSI_VALUE * (uint64_t)pllm) / (uint64_t)plld);
 8002f1a:	4a08      	ldr	r2, [pc, #32]	; (8002f3c <HAL_RCC_GetSysClockFreq+0xa4>)
 8002f1c:	2300      	movs	r3, #0
 8002f1e:	2100      	movs	r1, #0
 8002f20:	f7fd f9a8 	bl	8000274 <__aeabi_lmul>
 8002f24:	0022      	movs	r2, r4
 8002f26:	2300      	movs	r3, #0
 8002f28:	f7fd f984 	bl	8000234 <__aeabi_uldivmod>
 8002f2c:	e7d1      	b.n	8002ed2 <HAL_RCC_GetSysClockFreq+0x3a>
  switch (tmpreg & RCC_CFGR_SWS)
 8002f2e:	4805      	ldr	r0, [pc, #20]	; (8002f44 <HAL_RCC_GetSysClockFreq+0xac>)
 8002f30:	e7cf      	b.n	8002ed2 <HAL_RCC_GetSysClockFreq+0x3a>
 8002f32:	46c0      	nop			; (mov r8, r8)
 8002f34:	40021000 	.word	0x40021000
 8002f38:	ff48e500 	.word	0xff48e500
 8002f3c:	00f42400 	.word	0x00f42400
 8002f40:	08007e50 	.word	0x08007e50
 8002f44:	007a1200 	.word	0x007a1200
 8002f48:	003d0900 	.word	0x003d0900

08002f4c <HAL_RCC_OscConfig>:
{
 8002f4c:	b5f0      	push	{r4, r5, r6, r7, lr}
 8002f4e:	46d6      	mov	lr, sl
 8002f50:	464f      	mov	r7, r9
 8002f52:	4646      	mov	r6, r8
 8002f54:	b5c0      	push	{r6, r7, lr}
 8002f56:	b082      	sub	sp, #8
 8002f58:	1e04      	subs	r4, r0, #0
  if(RCC_OscInitStruct == NULL)
 8002f5a:	d100      	bne.n	8002f5e <HAL_RCC_OscConfig+0x12>
 8002f5c:	e2d9      	b.n	8003512 <HAL_RCC_OscConfig+0x5c6>
  sysclk_source = __HAL_RCC_GET_SYSCLK_SOURCE();
 8002f5e:	4bc2      	ldr	r3, [pc, #776]	; (8003268 <HAL_RCC_OscConfig+0x31c>)
 8002f60:	68da      	ldr	r2, [r3, #12]
 8002f62:	250c      	movs	r5, #12
 8002f64:	4015      	ands	r5, r2
  pll_config = __HAL_RCC_GET_PLL_OSCSOURCE();
 8002f66:	68de      	ldr	r6, [r3, #12]
 8002f68:	2380      	movs	r3, #128	; 0x80
 8002f6a:	025b      	lsls	r3, r3, #9
 8002f6c:	401e      	ands	r6, r3
  if(((RCC_OscInitStruct->OscillatorType) & RCC_OSCILLATORTYPE_HSE) == RCC_OSCILLATORTYPE_HSE)
 8002f6e:	6803      	ldr	r3, [r0, #0]
 8002f70:	07db      	lsls	r3, r3, #31
 8002f72:	d53c      	bpl.n	8002fee <HAL_RCC_OscConfig+0xa2>
    if((sysclk_source == RCC_SYSCLKSOURCE_STATUS_HSE)
 8002f74:	2d08      	cmp	r5, #8
 8002f76:	d032      	beq.n	8002fde <HAL_RCC_OscConfig+0x92>
       || ((sysclk_source == RCC_SYSCLKSOURCE_STATUS_PLLCLK) && (pll_config == RCC_PLLSOURCE_HSE)))
 8002f78:	2d0c      	cmp	r5, #12
 8002f7a:	d02e      	beq.n	8002fda <HAL_RCC_OscConfig+0x8e>
      __HAL_RCC_HSE_CONFIG(RCC_OscInitStruct->HSEState);
 8002f7c:	6863      	ldr	r3, [r4, #4]
 8002f7e:	2280      	movs	r2, #128	; 0x80
 8002f80:	0252      	lsls	r2, r2, #9
 8002f82:	4293      	cmp	r3, r2
 8002f84:	d05e      	beq.n	8003044 <HAL_RCC_OscConfig+0xf8>
 8002f86:	22a0      	movs	r2, #160	; 0xa0
 8002f88:	02d2      	lsls	r2, r2, #11
 8002f8a:	4293      	cmp	r3, r2
 8002f8c:	d061      	beq.n	8003052 <HAL_RCC_OscConfig+0x106>
 8002f8e:	4bb6      	ldr	r3, [pc, #728]	; (8003268 <HAL_RCC_OscConfig+0x31c>)
 8002f90:	681a      	ldr	r2, [r3, #0]
 8002f92:	49b6      	ldr	r1, [pc, #728]	; (800326c <HAL_RCC_OscConfig+0x320>)
 8002f94:	400a      	ands	r2, r1
 8002f96:	601a      	str	r2, [r3, #0]
 8002f98:	681a      	ldr	r2, [r3, #0]
 8002f9a:	2180      	movs	r1, #128	; 0x80
 8002f9c:	0249      	lsls	r1, r1, #9
 8002f9e:	400a      	ands	r2, r1
 8002fa0:	9201      	str	r2, [sp, #4]
 8002fa2:	9a01      	ldr	r2, [sp, #4]
 8002fa4:	681a      	ldr	r2, [r3, #0]
 8002fa6:	49b2      	ldr	r1, [pc, #712]	; (8003270 <HAL_RCC_OscConfig+0x324>)
 8002fa8:	400a      	ands	r2, r1
 8002faa:	601a      	str	r2, [r3, #0]
      if(RCC_OscInitStruct->HSEState != RCC_HSE_OFF)
 8002fac:	6863      	ldr	r3, [r4, #4]
 8002fae:	2b00      	cmp	r3, #0
 8002fb0:	d05b      	beq.n	800306a <HAL_RCC_OscConfig+0x11e>
        tickstart = HAL_GetTick();
 8002fb2:	f7ff faad 	bl	8002510 <HAL_GetTick>
 8002fb6:	0007      	movs	r7, r0
        while(__HAL_RCC_GET_FLAG(RCC_FLAG_HSERDY) == 0U)
 8002fb8:	4bab      	ldr	r3, [pc, #684]	; (8003268 <HAL_RCC_OscConfig+0x31c>)
 8002fba:	4699      	mov	r9, r3
 8002fbc:	2380      	movs	r3, #128	; 0x80
 8002fbe:	029b      	lsls	r3, r3, #10
 8002fc0:	4698      	mov	r8, r3
 8002fc2:	464b      	mov	r3, r9
 8002fc4:	681b      	ldr	r3, [r3, #0]
 8002fc6:	4642      	mov	r2, r8
 8002fc8:	4213      	tst	r3, r2
 8002fca:	d110      	bne.n	8002fee <HAL_RCC_OscConfig+0xa2>
          if((HAL_GetTick() - tickstart ) > HSE_TIMEOUT_VALUE)
 8002fcc:	f7ff faa0 	bl	8002510 <HAL_GetTick>
 8002fd0:	1bc0      	subs	r0, r0, r7
 8002fd2:	2864      	cmp	r0, #100	; 0x64
 8002fd4:	d9f5      	bls.n	8002fc2 <HAL_RCC_OscConfig+0x76>
            return HAL_TIMEOUT;
 8002fd6:	2003      	movs	r0, #3
 8002fd8:	e29c      	b.n	8003514 <HAL_RCC_OscConfig+0x5c8>
       || ((sysclk_source == RCC_SYSCLKSOURCE_STATUS_PLLCLK) && (pll_config == RCC_PLLSOURCE_HSE)))
 8002fda:	2e00      	cmp	r6, #0
 8002fdc:	d0ce      	beq.n	8002f7c <HAL_RCC_OscConfig+0x30>
      if((__HAL_RCC_GET_FLAG(RCC_FLAG_HSERDY) != 0U) && (RCC_OscInitStruct->HSEState == RCC_HSE_OFF))
 8002fde:	4ba2      	ldr	r3, [pc, #648]	; (8003268 <HAL_RCC_OscConfig+0x31c>)
 8002fe0:	681b      	ldr	r3, [r3, #0]
 8002fe2:	039b      	lsls	r3, r3, #14
 8002fe4:	d503      	bpl.n	8002fee <HAL_RCC_OscConfig+0xa2>
 8002fe6:	6863      	ldr	r3, [r4, #4]
 8002fe8:	2b00      	cmp	r3, #0
 8002fea:	d100      	bne.n	8002fee <HAL_RCC_OscConfig+0xa2>
 8002fec:	e298      	b.n	8003520 <HAL_RCC_OscConfig+0x5d4>
  if(((RCC_OscInitStruct->OscillatorType) & RCC_OSCILLATORTYPE_HSI) == RCC_OSCILLATORTYPE_HSI)
 8002fee:	6823      	ldr	r3, [r4, #0]
 8002ff0:	079b      	lsls	r3, r3, #30
 8002ff2:	d575      	bpl.n	80030e0 <HAL_RCC_OscConfig+0x194>
    hsi_state = RCC_OscInitStruct->HSIState;
 8002ff4:	68e3      	ldr	r3, [r4, #12]
    if((hsi_state & RCC_HSI_OUTEN) != 0U)
 8002ff6:	069a      	lsls	r2, r3, #26
 8002ff8:	d505      	bpl.n	8003006 <HAL_RCC_OscConfig+0xba>
      SET_BIT(RCC->CR, RCC_CR_HSIOUTEN);
 8002ffa:	489b      	ldr	r0, [pc, #620]	; (8003268 <HAL_RCC_OscConfig+0x31c>)
 8002ffc:	6802      	ldr	r2, [r0, #0]
 8002ffe:	2120      	movs	r1, #32
 8003000:	430a      	orrs	r2, r1
 8003002:	6002      	str	r2, [r0, #0]
      hsi_state &= ~RCC_CR_HSIOUTEN;
 8003004:	438b      	bics	r3, r1
    if((sysclk_source == RCC_SYSCLKSOURCE_STATUS_HSI)
 8003006:	2d04      	cmp	r5, #4
 8003008:	d045      	beq.n	8003096 <HAL_RCC_OscConfig+0x14a>
       || ((sysclk_source == RCC_SYSCLKSOURCE_STATUS_PLLCLK) && (pll_config == RCC_PLLSOURCE_HSI)))
 800300a:	2d0c      	cmp	r5, #12
 800300c:	d041      	beq.n	8003092 <HAL_RCC_OscConfig+0x146>
      if(hsi_state != RCC_HSI_OFF)
 800300e:	2b00      	cmp	r3, #0
 8003010:	d100      	bne.n	8003014 <HAL_RCC_OscConfig+0xc8>
 8003012:	e0bc      	b.n	800318e <HAL_RCC_OscConfig+0x242>
        __HAL_RCC_HSI_CONFIG(hsi_state);
 8003014:	4994      	ldr	r1, [pc, #592]	; (8003268 <HAL_RCC_OscConfig+0x31c>)
 8003016:	680a      	ldr	r2, [r1, #0]
 8003018:	2009      	movs	r0, #9
 800301a:	4382      	bics	r2, r0
 800301c:	4313      	orrs	r3, r2
 800301e:	600b      	str	r3, [r1, #0]
        tickstart = HAL_GetTick();
 8003020:	f7ff fa76 	bl	8002510 <HAL_GetTick>
 8003024:	0006      	movs	r6, r0
        while(__HAL_RCC_GET_FLAG(RCC_FLAG_HSIRDY) == 0U)
 8003026:	4b90      	ldr	r3, [pc, #576]	; (8003268 <HAL_RCC_OscConfig+0x31c>)
 8003028:	4698      	mov	r8, r3
 800302a:	2704      	movs	r7, #4
 800302c:	4643      	mov	r3, r8
 800302e:	681b      	ldr	r3, [r3, #0]
 8003030:	421f      	tst	r7, r3
 8003032:	d000      	beq.n	8003036 <HAL_RCC_OscConfig+0xea>
 8003034:	e0a2      	b.n	800317c <HAL_RCC_OscConfig+0x230>
          if((HAL_GetTick() - tickstart ) > HSI_TIMEOUT_VALUE)
 8003036:	f7ff fa6b 	bl	8002510 <HAL_GetTick>
 800303a:	1b80      	subs	r0, r0, r6
 800303c:	2802      	cmp	r0, #2
 800303e:	d9f5      	bls.n	800302c <HAL_RCC_OscConfig+0xe0>
            return HAL_TIMEOUT;
 8003040:	2003      	movs	r0, #3
 8003042:	e267      	b.n	8003514 <HAL_RCC_OscConfig+0x5c8>
      __HAL_RCC_HSE_CONFIG(RCC_OscInitStruct->HSEState);
 8003044:	4a88      	ldr	r2, [pc, #544]	; (8003268 <HAL_RCC_OscConfig+0x31c>)
 8003046:	6811      	ldr	r1, [r2, #0]
 8003048:	2380      	movs	r3, #128	; 0x80
 800304a:	025b      	lsls	r3, r3, #9
 800304c:	430b      	orrs	r3, r1
 800304e:	6013      	str	r3, [r2, #0]
 8003050:	e7ac      	b.n	8002fac <HAL_RCC_OscConfig+0x60>
 8003052:	4b85      	ldr	r3, [pc, #532]	; (8003268 <HAL_RCC_OscConfig+0x31c>)
 8003054:	6819      	ldr	r1, [r3, #0]
 8003056:	2280      	movs	r2, #128	; 0x80
 8003058:	02d2      	lsls	r2, r2, #11
 800305a:	430a      	orrs	r2, r1
 800305c:	601a      	str	r2, [r3, #0]
 800305e:	6819      	ldr	r1, [r3, #0]
 8003060:	2280      	movs	r2, #128	; 0x80
 8003062:	0252      	lsls	r2, r2, #9
 8003064:	430a      	orrs	r2, r1
 8003066:	601a      	str	r2, [r3, #0]
 8003068:	e7a0      	b.n	8002fac <HAL_RCC_OscConfig+0x60>
        tickstart = HAL_GetTick();
 800306a:	f7ff fa51 	bl	8002510 <HAL_GetTick>
 800306e:	0007      	movs	r7, r0
        while(__HAL_RCC_GET_FLAG(RCC_FLAG_HSERDY) != 0U)
 8003070:	4b7d      	ldr	r3, [pc, #500]	; (8003268 <HAL_RCC_OscConfig+0x31c>)
 8003072:	4699      	mov	r9, r3
 8003074:	2380      	movs	r3, #128	; 0x80
 8003076:	029b      	lsls	r3, r3, #10
 8003078:	4698      	mov	r8, r3
 800307a:	464b      	mov	r3, r9
 800307c:	681b      	ldr	r3, [r3, #0]
 800307e:	4642      	mov	r2, r8
 8003080:	4213      	tst	r3, r2
 8003082:	d0b4      	beq.n	8002fee <HAL_RCC_OscConfig+0xa2>
           if((HAL_GetTick() - tickstart ) > HSE_TIMEOUT_VALUE)
 8003084:	f7ff fa44 	bl	8002510 <HAL_GetTick>
 8003088:	1bc0      	subs	r0, r0, r7
 800308a:	2864      	cmp	r0, #100	; 0x64
 800308c:	d9f5      	bls.n	800307a <HAL_RCC_OscConfig+0x12e>
            return HAL_TIMEOUT;
 800308e:	2003      	movs	r0, #3
 8003090:	e240      	b.n	8003514 <HAL_RCC_OscConfig+0x5c8>
       || ((sysclk_source == RCC_SYSCLKSOURCE_STATUS_PLLCLK) && (pll_config == RCC_PLLSOURCE_HSI)))
 8003092:	2e00      	cmp	r6, #0
 8003094:	d1bb      	bne.n	800300e <HAL_RCC_OscConfig+0xc2>
      if((__HAL_RCC_GET_FLAG(RCC_FLAG_HSIRDY) != 0U) && (hsi_state == RCC_HSI_OFF))
 8003096:	4a74      	ldr	r2, [pc, #464]	; (8003268 <HAL_RCC_OscConfig+0x31c>)
 8003098:	6812      	ldr	r2, [r2, #0]
 800309a:	0752      	lsls	r2, r2, #29
 800309c:	d502      	bpl.n	80030a4 <HAL_RCC_OscConfig+0x158>
 800309e:	2b00      	cmp	r3, #0
 80030a0:	d100      	bne.n	80030a4 <HAL_RCC_OscConfig+0x158>
 80030a2:	e23f      	b.n	8003524 <HAL_RCC_OscConfig+0x5d8>
        __HAL_RCC_HSI_CALIBRATIONVALUE_ADJUST(RCC_OscInitStruct->HSICalibrationValue);
 80030a4:	4e70      	ldr	r6, [pc, #448]	; (8003268 <HAL_RCC_OscConfig+0x31c>)
 80030a6:	6871      	ldr	r1, [r6, #4]
 80030a8:	6922      	ldr	r2, [r4, #16]
 80030aa:	0212      	lsls	r2, r2, #8
 80030ac:	4871      	ldr	r0, [pc, #452]	; (8003274 <HAL_RCC_OscConfig+0x328>)
 80030ae:	4001      	ands	r1, r0
 80030b0:	430a      	orrs	r2, r1
 80030b2:	6072      	str	r2, [r6, #4]
        __HAL_RCC_HSI_CONFIG(hsi_state);
 80030b4:	6832      	ldr	r2, [r6, #0]
 80030b6:	2109      	movs	r1, #9
 80030b8:	438a      	bics	r2, r1
 80030ba:	4313      	orrs	r3, r2
 80030bc:	6033      	str	r3, [r6, #0]
      SystemCoreClock = HAL_RCC_GetSysClockFreq() >> AHBPrescTable[(RCC->CFGR & RCC_CFGR_HPRE)>> RCC_CFGR_HPRE_Pos];
 80030be:	f7ff feeb 	bl	8002e98 <HAL_RCC_GetSysClockFreq>
 80030c2:	68f3      	ldr	r3, [r6, #12]
 80030c4:	061b      	lsls	r3, r3, #24
 80030c6:	0f1b      	lsrs	r3, r3, #28
 80030c8:	4a6b      	ldr	r2, [pc, #428]	; (8003278 <HAL_RCC_OscConfig+0x32c>)
 80030ca:	5cd3      	ldrb	r3, [r2, r3]
 80030cc:	40d8      	lsrs	r0, r3
 80030ce:	4b6b      	ldr	r3, [pc, #428]	; (800327c <HAL_RCC_OscConfig+0x330>)
 80030d0:	6018      	str	r0, [r3, #0]
      status = HAL_InitTick (uwTickPrio);
 80030d2:	4b6b      	ldr	r3, [pc, #428]	; (8003280 <HAL_RCC_OscConfig+0x334>)
 80030d4:	6818      	ldr	r0, [r3, #0]
 80030d6:	f7ff f9d5 	bl	8002484 <HAL_InitTick>
      if(status != HAL_OK)
 80030da:	2800      	cmp	r0, #0
 80030dc:	d000      	beq.n	80030e0 <HAL_RCC_OscConfig+0x194>
 80030de:	e219      	b.n	8003514 <HAL_RCC_OscConfig+0x5c8>
  if(((RCC_OscInitStruct->OscillatorType) & RCC_OSCILLATORTYPE_MSI) == RCC_OSCILLATORTYPE_MSI)
 80030e0:	6823      	ldr	r3, [r4, #0]
 80030e2:	06db      	lsls	r3, r3, #27
 80030e4:	d52c      	bpl.n	8003140 <HAL_RCC_OscConfig+0x1f4>
    if(sysclk_source == RCC_CFGR_SWS_MSI)
 80030e6:	2d00      	cmp	r5, #0
 80030e8:	d167      	bne.n	80031ba <HAL_RCC_OscConfig+0x26e>
      if((__HAL_RCC_GET_FLAG(RCC_FLAG_MSIRDY) != 0U) && (RCC_OscInitStruct->MSIState == RCC_MSI_OFF))
 80030ea:	4b5f      	ldr	r3, [pc, #380]	; (8003268 <HAL_RCC_OscConfig+0x31c>)
 80030ec:	681b      	ldr	r3, [r3, #0]
 80030ee:	059b      	lsls	r3, r3, #22
 80030f0:	d503      	bpl.n	80030fa <HAL_RCC_OscConfig+0x1ae>
 80030f2:	69e3      	ldr	r3, [r4, #28]
 80030f4:	2b00      	cmp	r3, #0
 80030f6:	d100      	bne.n	80030fa <HAL_RCC_OscConfig+0x1ae>
 80030f8:	e216      	b.n	8003528 <HAL_RCC_OscConfig+0x5dc>
        __HAL_RCC_MSI_RANGE_CONFIG(RCC_OscInitStruct->MSIClockRange);
 80030fa:	4b5b      	ldr	r3, [pc, #364]	; (8003268 <HAL_RCC_OscConfig+0x31c>)
 80030fc:	685a      	ldr	r2, [r3, #4]
 80030fe:	4961      	ldr	r1, [pc, #388]	; (8003284 <HAL_RCC_OscConfig+0x338>)
 8003100:	400a      	ands	r2, r1
 8003102:	6a61      	ldr	r1, [r4, #36]	; 0x24
 8003104:	430a      	orrs	r2, r1
 8003106:	605a      	str	r2, [r3, #4]
        __HAL_RCC_MSI_CALIBRATIONVALUE_ADJUST(RCC_OscInitStruct->MSICalibrationValue);
 8003108:	6859      	ldr	r1, [r3, #4]
 800310a:	6a22      	ldr	r2, [r4, #32]
 800310c:	0612      	lsls	r2, r2, #24
 800310e:	0209      	lsls	r1, r1, #8
 8003110:	0a09      	lsrs	r1, r1, #8
 8003112:	430a      	orrs	r2, r1
 8003114:	605a      	str	r2, [r3, #4]
                           >> AHBPrescTable[((RCC->CFGR & RCC_CFGR_HPRE) >> RCC_CFGR_HPRE_Pos)];
 8003116:	68da      	ldr	r2, [r3, #12]
        SystemCoreClock =  (32768U * (1UL << ((RCC_OscInitStruct->MSIClockRange >> RCC_ICSCR_MSIRANGE_Pos) + 1U)))
 8003118:	6a63      	ldr	r3, [r4, #36]	; 0x24
 800311a:	0b59      	lsrs	r1, r3, #13
 800311c:	3101      	adds	r1, #1
 800311e:	2380      	movs	r3, #128	; 0x80
 8003120:	021b      	lsls	r3, r3, #8
 8003122:	408b      	lsls	r3, r1
                           >> AHBPrescTable[((RCC->CFGR & RCC_CFGR_HPRE) >> RCC_CFGR_HPRE_Pos)];
 8003124:	0612      	lsls	r2, r2, #24
 8003126:	0f12      	lsrs	r2, r2, #28
 8003128:	4953      	ldr	r1, [pc, #332]	; (8003278 <HAL_RCC_OscConfig+0x32c>)
 800312a:	5c8a      	ldrb	r2, [r1, r2]
 800312c:	40d3      	lsrs	r3, r2
        SystemCoreClock =  (32768U * (1UL << ((RCC_OscInitStruct->MSIClockRange >> RCC_ICSCR_MSIRANGE_Pos) + 1U)))
 800312e:	4a53      	ldr	r2, [pc, #332]	; (800327c <HAL_RCC_OscConfig+0x330>)
 8003130:	6013      	str	r3, [r2, #0]
        status = HAL_InitTick (uwTickPrio);
 8003132:	4b53      	ldr	r3, [pc, #332]	; (8003280 <HAL_RCC_OscConfig+0x334>)
 8003134:	6818      	ldr	r0, [r3, #0]
 8003136:	f7ff f9a5 	bl	8002484 <HAL_InitTick>
        if(status != HAL_OK)
 800313a:	2800      	cmp	r0, #0
 800313c:	d000      	beq.n	8003140 <HAL_RCC_OscConfig+0x1f4>
 800313e:	e1e9      	b.n	8003514 <HAL_RCC_OscConfig+0x5c8>
  if(((RCC_OscInitStruct->OscillatorType) & RCC_OSCILLATORTYPE_LSI) == RCC_OSCILLATORTYPE_LSI)
 8003140:	6823      	ldr	r3, [r4, #0]
 8003142:	071b      	lsls	r3, r3, #28
 8003144:	d400      	bmi.n	8003148 <HAL_RCC_OscConfig+0x1fc>
 8003146:	e0a1      	b.n	800328c <HAL_RCC_OscConfig+0x340>
    if(RCC_OscInitStruct->LSIState != RCC_LSI_OFF)
 8003148:	6963      	ldr	r3, [r4, #20]
 800314a:	2b00      	cmp	r3, #0
 800314c:	d076      	beq.n	800323c <HAL_RCC_OscConfig+0x2f0>
      __HAL_RCC_LSI_ENABLE();
 800314e:	4a46      	ldr	r2, [pc, #280]	; (8003268 <HAL_RCC_OscConfig+0x31c>)
 8003150:	6d13      	ldr	r3, [r2, #80]	; 0x50
 8003152:	2101      	movs	r1, #1
 8003154:	430b      	orrs	r3, r1
 8003156:	6513      	str	r3, [r2, #80]	; 0x50
      tickstart = HAL_GetTick();
 8003158:	f7ff f9da 	bl	8002510 <HAL_GetTick>
 800315c:	0006      	movs	r6, r0
      while(__HAL_RCC_GET_FLAG(RCC_FLAG_LSIRDY) == 0U)
 800315e:	4b42      	ldr	r3, [pc, #264]	; (8003268 <HAL_RCC_OscConfig+0x31c>)
 8003160:	4698      	mov	r8, r3
 8003162:	2702      	movs	r7, #2
 8003164:	4643      	mov	r3, r8
 8003166:	6d1b      	ldr	r3, [r3, #80]	; 0x50
 8003168:	421f      	tst	r7, r3
 800316a:	d000      	beq.n	800316e <HAL_RCC_OscConfig+0x222>
 800316c:	e08e      	b.n	800328c <HAL_RCC_OscConfig+0x340>
        if((HAL_GetTick() - tickstart ) > LSI_TIMEOUT_VALUE)
 800316e:	f7ff f9cf 	bl	8002510 <HAL_GetTick>
 8003172:	1b80      	subs	r0, r0, r6
 8003174:	2802      	cmp	r0, #2
 8003176:	d9f5      	bls.n	8003164 <HAL_RCC_OscConfig+0x218>
          return HAL_TIMEOUT;
 8003178:	2003      	movs	r0, #3
 800317a:	e1cb      	b.n	8003514 <HAL_RCC_OscConfig+0x5c8>
        __HAL_RCC_HSI_CALIBRATIONVALUE_ADJUST(RCC_OscInitStruct->HSICalibrationValue);
 800317c:	493a      	ldr	r1, [pc, #232]	; (8003268 <HAL_RCC_OscConfig+0x31c>)
 800317e:	684a      	ldr	r2, [r1, #4]
 8003180:	6923      	ldr	r3, [r4, #16]
 8003182:	021b      	lsls	r3, r3, #8
 8003184:	483b      	ldr	r0, [pc, #236]	; (8003274 <HAL_RCC_OscConfig+0x328>)
 8003186:	4002      	ands	r2, r0
 8003188:	4313      	orrs	r3, r2
 800318a:	604b      	str	r3, [r1, #4]
 800318c:	e7a8      	b.n	80030e0 <HAL_RCC_OscConfig+0x194>
        __HAL_RCC_HSI_DISABLE();
 800318e:	4a36      	ldr	r2, [pc, #216]	; (8003268 <HAL_RCC_OscConfig+0x31c>)
 8003190:	6813      	ldr	r3, [r2, #0]
 8003192:	2101      	movs	r1, #1
 8003194:	438b      	bics	r3, r1
 8003196:	6013      	str	r3, [r2, #0]
        tickstart = HAL_GetTick();
 8003198:	f7ff f9ba 	bl	8002510 <HAL_GetTick>
 800319c:	0006      	movs	r6, r0
        while(__HAL_RCC_GET_FLAG(RCC_FLAG_HSIRDY) != 0U)
 800319e:	4b32      	ldr	r3, [pc, #200]	; (8003268 <HAL_RCC_OscConfig+0x31c>)
 80031a0:	4698      	mov	r8, r3
 80031a2:	2704      	movs	r7, #4
 80031a4:	4643      	mov	r3, r8
 80031a6:	681b      	ldr	r3, [r3, #0]
 80031a8:	421f      	tst	r7, r3
 80031aa:	d099      	beq.n	80030e0 <HAL_RCC_OscConfig+0x194>
          if((HAL_GetTick() - tickstart ) > HSI_TIMEOUT_VALUE)
 80031ac:	f7ff f9b0 	bl	8002510 <HAL_GetTick>
 80031b0:	1b80      	subs	r0, r0, r6
 80031b2:	2802      	cmp	r0, #2
 80031b4:	d9f6      	bls.n	80031a4 <HAL_RCC_OscConfig+0x258>
            return HAL_TIMEOUT;
 80031b6:	2003      	movs	r0, #3
 80031b8:	e1ac      	b.n	8003514 <HAL_RCC_OscConfig+0x5c8>
      if(RCC_OscInitStruct->MSIState != RCC_MSI_OFF)
 80031ba:	69e3      	ldr	r3, [r4, #28]
 80031bc:	2b00      	cmp	r3, #0
 80031be:	d026      	beq.n	800320e <HAL_RCC_OscConfig+0x2c2>
        __HAL_RCC_MSI_ENABLE();
 80031c0:	4a29      	ldr	r2, [pc, #164]	; (8003268 <HAL_RCC_OscConfig+0x31c>)
 80031c2:	6811      	ldr	r1, [r2, #0]
 80031c4:	2380      	movs	r3, #128	; 0x80
 80031c6:	005b      	lsls	r3, r3, #1
 80031c8:	430b      	orrs	r3, r1
 80031ca:	6013      	str	r3, [r2, #0]
        tickstart = HAL_GetTick();
 80031cc:	f7ff f9a0 	bl	8002510 <HAL_GetTick>
 80031d0:	0006      	movs	r6, r0
        while(__HAL_RCC_GET_FLAG(RCC_FLAG_MSIRDY) == 0U)
 80031d2:	4b25      	ldr	r3, [pc, #148]	; (8003268 <HAL_RCC_OscConfig+0x31c>)
 80031d4:	4698      	mov	r8, r3
 80031d6:	2780      	movs	r7, #128	; 0x80
 80031d8:	00bf      	lsls	r7, r7, #2
 80031da:	4643      	mov	r3, r8
 80031dc:	681b      	ldr	r3, [r3, #0]
 80031de:	423b      	tst	r3, r7
 80031e0:	d106      	bne.n	80031f0 <HAL_RCC_OscConfig+0x2a4>
          if((HAL_GetTick() - tickstart) > MSI_TIMEOUT_VALUE)
 80031e2:	f7ff f995 	bl	8002510 <HAL_GetTick>
 80031e6:	1b80      	subs	r0, r0, r6
 80031e8:	2802      	cmp	r0, #2
 80031ea:	d9f6      	bls.n	80031da <HAL_RCC_OscConfig+0x28e>
            return HAL_TIMEOUT;
 80031ec:	2003      	movs	r0, #3
 80031ee:	e191      	b.n	8003514 <HAL_RCC_OscConfig+0x5c8>
        __HAL_RCC_MSI_RANGE_CONFIG(RCC_OscInitStruct->MSIClockRange);
 80031f0:	491d      	ldr	r1, [pc, #116]	; (8003268 <HAL_RCC_OscConfig+0x31c>)
 80031f2:	684b      	ldr	r3, [r1, #4]
 80031f4:	4a23      	ldr	r2, [pc, #140]	; (8003284 <HAL_RCC_OscConfig+0x338>)
 80031f6:	4013      	ands	r3, r2
 80031f8:	6a62      	ldr	r2, [r4, #36]	; 0x24
 80031fa:	4313      	orrs	r3, r2
 80031fc:	604b      	str	r3, [r1, #4]
        __HAL_RCC_MSI_CALIBRATIONVALUE_ADJUST(RCC_OscInitStruct->MSICalibrationValue);
 80031fe:	684a      	ldr	r2, [r1, #4]
 8003200:	6a23      	ldr	r3, [r4, #32]
 8003202:	061b      	lsls	r3, r3, #24
 8003204:	0212      	lsls	r2, r2, #8
 8003206:	0a12      	lsrs	r2, r2, #8
 8003208:	4313      	orrs	r3, r2
 800320a:	604b      	str	r3, [r1, #4]
 800320c:	e798      	b.n	8003140 <HAL_RCC_OscConfig+0x1f4>
        __HAL_RCC_MSI_DISABLE();
 800320e:	4a16      	ldr	r2, [pc, #88]	; (8003268 <HAL_RCC_OscConfig+0x31c>)
 8003210:	6813      	ldr	r3, [r2, #0]
 8003212:	491d      	ldr	r1, [pc, #116]	; (8003288 <HAL_RCC_OscConfig+0x33c>)
 8003214:	400b      	ands	r3, r1
 8003216:	6013      	str	r3, [r2, #0]
        tickstart = HAL_GetTick();
 8003218:	f7ff f97a 	bl	8002510 <HAL_GetTick>
 800321c:	0006      	movs	r6, r0
        while(__HAL_RCC_GET_FLAG(RCC_FLAG_MSIRDY) != 0U)
 800321e:	4b12      	ldr	r3, [pc, #72]	; (8003268 <HAL_RCC_OscConfig+0x31c>)
 8003220:	4698      	mov	r8, r3
 8003222:	2780      	movs	r7, #128	; 0x80
 8003224:	00bf      	lsls	r7, r7, #2
 8003226:	4643      	mov	r3, r8
 8003228:	681b      	ldr	r3, [r3, #0]
 800322a:	423b      	tst	r3, r7
 800322c:	d088      	beq.n	8003140 <HAL_RCC_OscConfig+0x1f4>
          if((HAL_GetTick() - tickstart) > MSI_TIMEOUT_VALUE)
 800322e:	f7ff f96f 	bl	8002510 <HAL_GetTick>
 8003232:	1b80      	subs	r0, r0, r6
 8003234:	2802      	cmp	r0, #2
 8003236:	d9f6      	bls.n	8003226 <HAL_RCC_OscConfig+0x2da>
            return HAL_TIMEOUT;
 8003238:	2003      	movs	r0, #3
 800323a:	e16b      	b.n	8003514 <HAL_RCC_OscConfig+0x5c8>
      __HAL_RCC_LSI_DISABLE();
 800323c:	4a0a      	ldr	r2, [pc, #40]	; (8003268 <HAL_RCC_OscConfig+0x31c>)
 800323e:	6d13      	ldr	r3, [r2, #80]	; 0x50
 8003240:	2101      	movs	r1, #1
 8003242:	438b      	bics	r3, r1
 8003244:	6513      	str	r3, [r2, #80]	; 0x50
      tickstart = HAL_GetTick();
 8003246:	f7ff f963 	bl	8002510 <HAL_GetTick>
 800324a:	0006      	movs	r6, r0
      while(__HAL_RCC_GET_FLAG(RCC_FLAG_LSIRDY) != 0U)
 800324c:	4b06      	ldr	r3, [pc, #24]	; (8003268 <HAL_RCC_OscConfig+0x31c>)
 800324e:	4698      	mov	r8, r3
 8003250:	2702      	movs	r7, #2
 8003252:	4643      	mov	r3, r8
 8003254:	6d1b      	ldr	r3, [r3, #80]	; 0x50
 8003256:	421f      	tst	r7, r3
 8003258:	d018      	beq.n	800328c <HAL_RCC_OscConfig+0x340>
        if((HAL_GetTick() - tickstart ) > LSI_TIMEOUT_VALUE)
 800325a:	f7ff f959 	bl	8002510 <HAL_GetTick>
 800325e:	1b80      	subs	r0, r0, r6
 8003260:	2802      	cmp	r0, #2
 8003262:	d9f6      	bls.n	8003252 <HAL_RCC_OscConfig+0x306>
          return HAL_TIMEOUT;
 8003264:	2003      	movs	r0, #3
 8003266:	e155      	b.n	8003514 <HAL_RCC_OscConfig+0x5c8>
 8003268:	40021000 	.word	0x40021000
 800326c:	fffeffff 	.word	0xfffeffff
 8003270:	fffbffff 	.word	0xfffbffff
 8003274:	ffffe0ff 	.word	0xffffe0ff
 8003278:	08007e38 	.word	0x08007e38
 800327c:	20000014 	.word	0x20000014
 8003280:	2000001c 	.word	0x2000001c
 8003284:	ffff1fff 	.word	0xffff1fff
 8003288:	fffffeff 	.word	0xfffffeff
  if(((RCC_OscInitStruct->OscillatorType) & RCC_OSCILLATORTYPE_LSE) == RCC_OSCILLATORTYPE_LSE)
 800328c:	6823      	ldr	r3, [r4, #0]
 800328e:	075b      	lsls	r3, r3, #29
 8003290:	d400      	bmi.n	8003294 <HAL_RCC_OscConfig+0x348>
 8003292:	e088      	b.n	80033a6 <HAL_RCC_OscConfig+0x45a>
    if(__HAL_RCC_PWR_IS_CLK_DISABLED())
 8003294:	4ba6      	ldr	r3, [pc, #664]	; (8003530 <HAL_RCC_OscConfig+0x5e4>)
 8003296:	6b9b      	ldr	r3, [r3, #56]	; 0x38
    FlagStatus       pwrclkchanged = RESET;
 8003298:	2200      	movs	r2, #0
 800329a:	4692      	mov	sl, r2
    if(__HAL_RCC_PWR_IS_CLK_DISABLED())
 800329c:	00db      	lsls	r3, r3, #3
 800329e:	d407      	bmi.n	80032b0 <HAL_RCC_OscConfig+0x364>
      __HAL_RCC_PWR_CLK_ENABLE();
 80032a0:	4aa3      	ldr	r2, [pc, #652]	; (8003530 <HAL_RCC_OscConfig+0x5e4>)
 80032a2:	6b91      	ldr	r1, [r2, #56]	; 0x38
 80032a4:	2380      	movs	r3, #128	; 0x80
 80032a6:	055b      	lsls	r3, r3, #21
 80032a8:	430b      	orrs	r3, r1
 80032aa:	6393      	str	r3, [r2, #56]	; 0x38
      pwrclkchanged = SET;
 80032ac:	2301      	movs	r3, #1
 80032ae:	469a      	mov	sl, r3
    if(HAL_IS_BIT_CLR(PWR->CR, PWR_CR_DBP))
 80032b0:	4ba0      	ldr	r3, [pc, #640]	; (8003534 <HAL_RCC_OscConfig+0x5e8>)
 80032b2:	681b      	ldr	r3, [r3, #0]
 80032b4:	05db      	lsls	r3, r3, #23
 80032b6:	d510      	bpl.n	80032da <HAL_RCC_OscConfig+0x38e>
    __HAL_RCC_LSE_CONFIG(RCC_OscInitStruct->LSEState);
 80032b8:	68a3      	ldr	r3, [r4, #8]
 80032ba:	2280      	movs	r2, #128	; 0x80
 80032bc:	0052      	lsls	r2, r2, #1
 80032be:	4293      	cmp	r3, r2
 80032c0:	d023      	beq.n	800330a <HAL_RCC_OscConfig+0x3be>
 80032c2:	2b00      	cmp	r3, #0
 80032c4:	d13e      	bne.n	8003344 <HAL_RCC_OscConfig+0x3f8>
 80032c6:	4b9a      	ldr	r3, [pc, #616]	; (8003530 <HAL_RCC_OscConfig+0x5e4>)
 80032c8:	6d1a      	ldr	r2, [r3, #80]	; 0x50
 80032ca:	499b      	ldr	r1, [pc, #620]	; (8003538 <HAL_RCC_OscConfig+0x5ec>)
 80032cc:	400a      	ands	r2, r1
 80032ce:	651a      	str	r2, [r3, #80]	; 0x50
 80032d0:	6d1a      	ldr	r2, [r3, #80]	; 0x50
 80032d2:	499a      	ldr	r1, [pc, #616]	; (800353c <HAL_RCC_OscConfig+0x5f0>)
 80032d4:	400a      	ands	r2, r1
 80032d6:	651a      	str	r2, [r3, #80]	; 0x50
 80032d8:	e01d      	b.n	8003316 <HAL_RCC_OscConfig+0x3ca>
      SET_BIT(PWR->CR, PWR_CR_DBP);
 80032da:	4a96      	ldr	r2, [pc, #600]	; (8003534 <HAL_RCC_OscConfig+0x5e8>)
 80032dc:	6811      	ldr	r1, [r2, #0]
 80032de:	2380      	movs	r3, #128	; 0x80
 80032e0:	005b      	lsls	r3, r3, #1
 80032e2:	430b      	orrs	r3, r1
 80032e4:	6013      	str	r3, [r2, #0]
      tickstart = HAL_GetTick();
 80032e6:	f7ff f913 	bl	8002510 <HAL_GetTick>
 80032ea:	0006      	movs	r6, r0
      while(HAL_IS_BIT_CLR(PWR->CR, PWR_CR_DBP))
 80032ec:	4b91      	ldr	r3, [pc, #580]	; (8003534 <HAL_RCC_OscConfig+0x5e8>)
 80032ee:	4698      	mov	r8, r3
 80032f0:	2780      	movs	r7, #128	; 0x80
 80032f2:	007f      	lsls	r7, r7, #1
 80032f4:	4643      	mov	r3, r8
 80032f6:	681b      	ldr	r3, [r3, #0]
 80032f8:	423b      	tst	r3, r7
 80032fa:	d1dd      	bne.n	80032b8 <HAL_RCC_OscConfig+0x36c>
        if((HAL_GetTick() - tickstart) > RCC_DBP_TIMEOUT_VALUE)
 80032fc:	f7ff f908 	bl	8002510 <HAL_GetTick>
 8003300:	1b80      	subs	r0, r0, r6
 8003302:	2864      	cmp	r0, #100	; 0x64
 8003304:	d9f6      	bls.n	80032f4 <HAL_RCC_OscConfig+0x3a8>
          return HAL_TIMEOUT;
 8003306:	2003      	movs	r0, #3
 8003308:	e104      	b.n	8003514 <HAL_RCC_OscConfig+0x5c8>
    __HAL_RCC_LSE_CONFIG(RCC_OscInitStruct->LSEState);
 800330a:	4a89      	ldr	r2, [pc, #548]	; (8003530 <HAL_RCC_OscConfig+0x5e4>)
 800330c:	6d11      	ldr	r1, [r2, #80]	; 0x50
 800330e:	2380      	movs	r3, #128	; 0x80
 8003310:	005b      	lsls	r3, r3, #1
 8003312:	430b      	orrs	r3, r1
 8003314:	6513      	str	r3, [r2, #80]	; 0x50
    if(RCC_OscInitStruct->LSEState != RCC_LSE_OFF)
 8003316:	68a3      	ldr	r3, [r4, #8]
 8003318:	2b00      	cmp	r3, #0
 800331a:	d02d      	beq.n	8003378 <HAL_RCC_OscConfig+0x42c>
      tickstart = HAL_GetTick();
 800331c:	f7ff f8f8 	bl	8002510 <HAL_GetTick>
 8003320:	0006      	movs	r6, r0
      while(__HAL_RCC_GET_FLAG(RCC_FLAG_LSERDY) == 0U)
 8003322:	4b83      	ldr	r3, [pc, #524]	; (8003530 <HAL_RCC_OscConfig+0x5e4>)
 8003324:	4698      	mov	r8, r3
 8003326:	2780      	movs	r7, #128	; 0x80
 8003328:	00bf      	lsls	r7, r7, #2
        if((HAL_GetTick() - tickstart ) > RCC_LSE_TIMEOUT_VALUE)
 800332a:	4b85      	ldr	r3, [pc, #532]	; (8003540 <HAL_RCC_OscConfig+0x5f4>)
 800332c:	4699      	mov	r9, r3
      while(__HAL_RCC_GET_FLAG(RCC_FLAG_LSERDY) == 0U)
 800332e:	4643      	mov	r3, r8
 8003330:	6d1b      	ldr	r3, [r3, #80]	; 0x50
 8003332:	423b      	tst	r3, r7
 8003334:	d134      	bne.n	80033a0 <HAL_RCC_OscConfig+0x454>
        if((HAL_GetTick() - tickstart ) > RCC_LSE_TIMEOUT_VALUE)
 8003336:	f7ff f8eb 	bl	8002510 <HAL_GetTick>
 800333a:	1b80      	subs	r0, r0, r6
 800333c:	4548      	cmp	r0, r9
 800333e:	d9f6      	bls.n	800332e <HAL_RCC_OscConfig+0x3e2>
          return HAL_TIMEOUT;
 8003340:	2003      	movs	r0, #3
 8003342:	e0e7      	b.n	8003514 <HAL_RCC_OscConfig+0x5c8>
    __HAL_RCC_LSE_CONFIG(RCC_OscInitStruct->LSEState);
 8003344:	22a0      	movs	r2, #160	; 0xa0
 8003346:	00d2      	lsls	r2, r2, #3
 8003348:	4293      	cmp	r3, r2
 800334a:	d009      	beq.n	8003360 <HAL_RCC_OscConfig+0x414>
 800334c:	4b78      	ldr	r3, [pc, #480]	; (8003530 <HAL_RCC_OscConfig+0x5e4>)
 800334e:	6d1a      	ldr	r2, [r3, #80]	; 0x50
 8003350:	4979      	ldr	r1, [pc, #484]	; (8003538 <HAL_RCC_OscConfig+0x5ec>)
 8003352:	400a      	ands	r2, r1
 8003354:	651a      	str	r2, [r3, #80]	; 0x50
 8003356:	6d1a      	ldr	r2, [r3, #80]	; 0x50
 8003358:	4978      	ldr	r1, [pc, #480]	; (800353c <HAL_RCC_OscConfig+0x5f0>)
 800335a:	400a      	ands	r2, r1
 800335c:	651a      	str	r2, [r3, #80]	; 0x50
 800335e:	e7da      	b.n	8003316 <HAL_RCC_OscConfig+0x3ca>
 8003360:	4b73      	ldr	r3, [pc, #460]	; (8003530 <HAL_RCC_OscConfig+0x5e4>)
 8003362:	6d19      	ldr	r1, [r3, #80]	; 0x50
 8003364:	3a01      	subs	r2, #1
 8003366:	3aff      	subs	r2, #255	; 0xff
 8003368:	430a      	orrs	r2, r1
 800336a:	651a      	str	r2, [r3, #80]	; 0x50
 800336c:	6d19      	ldr	r1, [r3, #80]	; 0x50
 800336e:	2280      	movs	r2, #128	; 0x80
 8003370:	0052      	lsls	r2, r2, #1
 8003372:	430a      	orrs	r2, r1
 8003374:	651a      	str	r2, [r3, #80]	; 0x50
 8003376:	e7ce      	b.n	8003316 <HAL_RCC_OscConfig+0x3ca>
      tickstart = HAL_GetTick();
 8003378:	f7ff f8ca 	bl	8002510 <HAL_GetTick>
 800337c:	0006      	movs	r6, r0
      while(__HAL_RCC_GET_FLAG(RCC_FLAG_LSERDY) != 0U)
 800337e:	4b6c      	ldr	r3, [pc, #432]	; (8003530 <HAL_RCC_OscConfig+0x5e4>)
 8003380:	4698      	mov	r8, r3
 8003382:	2780      	movs	r7, #128	; 0x80
 8003384:	00bf      	lsls	r7, r7, #2
        if((HAL_GetTick() - tickstart ) > RCC_LSE_TIMEOUT_VALUE)
 8003386:	4b6e      	ldr	r3, [pc, #440]	; (8003540 <HAL_RCC_OscConfig+0x5f4>)
 8003388:	4699      	mov	r9, r3
      while(__HAL_RCC_GET_FLAG(RCC_FLAG_LSERDY) != 0U)
 800338a:	4643      	mov	r3, r8
 800338c:	6d1b      	ldr	r3, [r3, #80]	; 0x50
 800338e:	423b      	tst	r3, r7
 8003390:	d006      	beq.n	80033a0 <HAL_RCC_OscConfig+0x454>
        if((HAL_GetTick() - tickstart ) > RCC_LSE_TIMEOUT_VALUE)
 8003392:	f7ff f8bd 	bl	8002510 <HAL_GetTick>
 8003396:	1b80      	subs	r0, r0, r6
 8003398:	4548      	cmp	r0, r9
 800339a:	d9f6      	bls.n	800338a <HAL_RCC_OscConfig+0x43e>
          return HAL_TIMEOUT;
 800339c:	2003      	movs	r0, #3
 800339e:	e0b9      	b.n	8003514 <HAL_RCC_OscConfig+0x5c8>
    if(pwrclkchanged == SET)
 80033a0:	4653      	mov	r3, sl
 80033a2:	2b01      	cmp	r3, #1
 80033a4:	d024      	beq.n	80033f0 <HAL_RCC_OscConfig+0x4a4>
  if(((RCC_OscInitStruct->OscillatorType) & RCC_OSCILLATORTYPE_HSI48) == RCC_OSCILLATORTYPE_HSI48)
 80033a6:	6823      	ldr	r3, [r4, #0]
 80033a8:	069b      	lsls	r3, r3, #26
 80033aa:	d542      	bpl.n	8003432 <HAL_RCC_OscConfig+0x4e6>
      if(RCC_OscInitStruct->HSI48State != RCC_HSI48_OFF)
 80033ac:	69a3      	ldr	r3, [r4, #24]
 80033ae:	2b00      	cmp	r3, #0
 80033b0:	d024      	beq.n	80033fc <HAL_RCC_OscConfig+0x4b0>
        __HAL_RCC_HSI48_ENABLE();
 80033b2:	4b5f      	ldr	r3, [pc, #380]	; (8003530 <HAL_RCC_OscConfig+0x5e4>)
 80033b4:	6899      	ldr	r1, [r3, #8]
 80033b6:	2001      	movs	r0, #1
 80033b8:	4301      	orrs	r1, r0
 80033ba:	6099      	str	r1, [r3, #8]
 80033bc:	6b5a      	ldr	r2, [r3, #52]	; 0x34
 80033be:	4302      	orrs	r2, r0
 80033c0:	635a      	str	r2, [r3, #52]	; 0x34
 80033c2:	4a60      	ldr	r2, [pc, #384]	; (8003544 <HAL_RCC_OscConfig+0x5f8>)
 80033c4:	6a11      	ldr	r1, [r2, #32]
 80033c6:	2380      	movs	r3, #128	; 0x80
 80033c8:	019b      	lsls	r3, r3, #6
 80033ca:	430b      	orrs	r3, r1
 80033cc:	6213      	str	r3, [r2, #32]
        tickstart = HAL_GetTick();
 80033ce:	f7ff f89f 	bl	8002510 <HAL_GetTick>
 80033d2:	0006      	movs	r6, r0
        while(__HAL_RCC_GET_FLAG(RCC_FLAG_HSI48RDY) == 0U)
 80033d4:	4b56      	ldr	r3, [pc, #344]	; (8003530 <HAL_RCC_OscConfig+0x5e4>)
 80033d6:	4698      	mov	r8, r3
 80033d8:	2702      	movs	r7, #2
 80033da:	4643      	mov	r3, r8
 80033dc:	689b      	ldr	r3, [r3, #8]
 80033de:	421f      	tst	r7, r3
 80033e0:	d127      	bne.n	8003432 <HAL_RCC_OscConfig+0x4e6>
          if((HAL_GetTick() - tickstart) > HSI48_TIMEOUT_VALUE)
 80033e2:	f7ff f895 	bl	8002510 <HAL_GetTick>
 80033e6:	1b80      	subs	r0, r0, r6
 80033e8:	2802      	cmp	r0, #2
 80033ea:	d9f6      	bls.n	80033da <HAL_RCC_OscConfig+0x48e>
            return HAL_TIMEOUT;
 80033ec:	2003      	movs	r0, #3
 80033ee:	e091      	b.n	8003514 <HAL_RCC_OscConfig+0x5c8>
      __HAL_RCC_PWR_CLK_DISABLE();
 80033f0:	4a4f      	ldr	r2, [pc, #316]	; (8003530 <HAL_RCC_OscConfig+0x5e4>)
 80033f2:	6b93      	ldr	r3, [r2, #56]	; 0x38
 80033f4:	4954      	ldr	r1, [pc, #336]	; (8003548 <HAL_RCC_OscConfig+0x5fc>)
 80033f6:	400b      	ands	r3, r1
 80033f8:	6393      	str	r3, [r2, #56]	; 0x38
 80033fa:	e7d4      	b.n	80033a6 <HAL_RCC_OscConfig+0x45a>
        __HAL_RCC_HSI48_DISABLE();
 80033fc:	4a4c      	ldr	r2, [pc, #304]	; (8003530 <HAL_RCC_OscConfig+0x5e4>)
 80033fe:	6893      	ldr	r3, [r2, #8]
 8003400:	2101      	movs	r1, #1
 8003402:	438b      	bics	r3, r1
 8003404:	6093      	str	r3, [r2, #8]
 8003406:	4a4f      	ldr	r2, [pc, #316]	; (8003544 <HAL_RCC_OscConfig+0x5f8>)
 8003408:	6a13      	ldr	r3, [r2, #32]
 800340a:	4950      	ldr	r1, [pc, #320]	; (800354c <HAL_RCC_OscConfig+0x600>)
 800340c:	400b      	ands	r3, r1
 800340e:	6213      	str	r3, [r2, #32]
        tickstart = HAL_GetTick();
 8003410:	f7ff f87e 	bl	8002510 <HAL_GetTick>
 8003414:	0006      	movs	r6, r0
        while(__HAL_RCC_GET_FLAG(RCC_FLAG_HSI48RDY) != 0U)
 8003416:	4b46      	ldr	r3, [pc, #280]	; (8003530 <HAL_RCC_OscConfig+0x5e4>)
 8003418:	4698      	mov	r8, r3
 800341a:	2702      	movs	r7, #2
 800341c:	4643      	mov	r3, r8
 800341e:	689b      	ldr	r3, [r3, #8]
 8003420:	421f      	tst	r7, r3
 8003422:	d006      	beq.n	8003432 <HAL_RCC_OscConfig+0x4e6>
          if((HAL_GetTick() - tickstart) > HSI48_TIMEOUT_VALUE)
 8003424:	f7ff f874 	bl	8002510 <HAL_GetTick>
 8003428:	1b80      	subs	r0, r0, r6
 800342a:	2802      	cmp	r0, #2
 800342c:	d9f6      	bls.n	800341c <HAL_RCC_OscConfig+0x4d0>
            return HAL_TIMEOUT;
 800342e:	2003      	movs	r0, #3
 8003430:	e070      	b.n	8003514 <HAL_RCC_OscConfig+0x5c8>
  if ((RCC_OscInitStruct->PLL.PLLState) != RCC_PLL_NONE)
 8003432:	6aa3      	ldr	r3, [r4, #40]	; 0x28
  return HAL_OK;
 8003434:	2000      	movs	r0, #0
  if ((RCC_OscInitStruct->PLL.PLLState) != RCC_PLL_NONE)
 8003436:	2b00      	cmp	r3, #0
 8003438:	d06c      	beq.n	8003514 <HAL_RCC_OscConfig+0x5c8>
    if(sysclk_source != RCC_SYSCLKSOURCE_STATUS_PLLCLK)
 800343a:	2d0c      	cmp	r5, #12
 800343c:	d04f      	beq.n	80034de <HAL_RCC_OscConfig+0x592>
      if((RCC_OscInitStruct->PLL.PLLState) == RCC_PLL_ON)
 800343e:	2b02      	cmp	r3, #2
 8003440:	d014      	beq.n	800346c <HAL_RCC_OscConfig+0x520>
        __HAL_RCC_PLL_DISABLE();
 8003442:	4a3b      	ldr	r2, [pc, #236]	; (8003530 <HAL_RCC_OscConfig+0x5e4>)
 8003444:	6813      	ldr	r3, [r2, #0]
 8003446:	4942      	ldr	r1, [pc, #264]	; (8003550 <HAL_RCC_OscConfig+0x604>)
 8003448:	400b      	ands	r3, r1
 800344a:	6013      	str	r3, [r2, #0]
        tickstart = HAL_GetTick();
 800344c:	f7ff f860 	bl	8002510 <HAL_GetTick>
 8003450:	0004      	movs	r4, r0
        while(__HAL_RCC_GET_FLAG(RCC_FLAG_PLLRDY)  != 0U)
 8003452:	4e37      	ldr	r6, [pc, #220]	; (8003530 <HAL_RCC_OscConfig+0x5e4>)
 8003454:	2580      	movs	r5, #128	; 0x80
 8003456:	04ad      	lsls	r5, r5, #18
 8003458:	6833      	ldr	r3, [r6, #0]
 800345a:	422b      	tst	r3, r5
 800345c:	d03d      	beq.n	80034da <HAL_RCC_OscConfig+0x58e>
          if((HAL_GetTick() - tickstart ) > PLL_TIMEOUT_VALUE)
 800345e:	f7ff f857 	bl	8002510 <HAL_GetTick>
 8003462:	1b00      	subs	r0, r0, r4
 8003464:	2802      	cmp	r0, #2
 8003466:	d9f7      	bls.n	8003458 <HAL_RCC_OscConfig+0x50c>
            return HAL_TIMEOUT;
 8003468:	2003      	movs	r0, #3
 800346a:	e053      	b.n	8003514 <HAL_RCC_OscConfig+0x5c8>
        __HAL_RCC_PLL_DISABLE();
 800346c:	4a30      	ldr	r2, [pc, #192]	; (8003530 <HAL_RCC_OscConfig+0x5e4>)
 800346e:	6813      	ldr	r3, [r2, #0]
 8003470:	4937      	ldr	r1, [pc, #220]	; (8003550 <HAL_RCC_OscConfig+0x604>)
 8003472:	400b      	ands	r3, r1
 8003474:	6013      	str	r3, [r2, #0]
        tickstart = HAL_GetTick();
 8003476:	f7ff f84b 	bl	8002510 <HAL_GetTick>
 800347a:	0005      	movs	r5, r0
        while(__HAL_RCC_GET_FLAG(RCC_FLAG_PLLRDY)  != 0U)
 800347c:	4f2c      	ldr	r7, [pc, #176]	; (8003530 <HAL_RCC_OscConfig+0x5e4>)
 800347e:	2680      	movs	r6, #128	; 0x80
 8003480:	04b6      	lsls	r6, r6, #18
 8003482:	683b      	ldr	r3, [r7, #0]
 8003484:	4233      	tst	r3, r6
 8003486:	d006      	beq.n	8003496 <HAL_RCC_OscConfig+0x54a>
          if((HAL_GetTick() - tickstart ) > PLL_TIMEOUT_VALUE)
 8003488:	f7ff f842 	bl	8002510 <HAL_GetTick>
 800348c:	1b40      	subs	r0, r0, r5
 800348e:	2802      	cmp	r0, #2
 8003490:	d9f7      	bls.n	8003482 <HAL_RCC_OscConfig+0x536>
            return HAL_TIMEOUT;
 8003492:	2003      	movs	r0, #3
 8003494:	e03e      	b.n	8003514 <HAL_RCC_OscConfig+0x5c8>
        __HAL_RCC_PLL_CONFIG(RCC_OscInitStruct->PLL.PLLSource,
 8003496:	4a26      	ldr	r2, [pc, #152]	; (8003530 <HAL_RCC_OscConfig+0x5e4>)
 8003498:	68d1      	ldr	r1, [r2, #12]
 800349a:	6ae3      	ldr	r3, [r4, #44]	; 0x2c
 800349c:	6b20      	ldr	r0, [r4, #48]	; 0x30
 800349e:	4303      	orrs	r3, r0
 80034a0:	482c      	ldr	r0, [pc, #176]	; (8003554 <HAL_RCC_OscConfig+0x608>)
 80034a2:	4001      	ands	r1, r0
 80034a4:	430b      	orrs	r3, r1
 80034a6:	6b61      	ldr	r1, [r4, #52]	; 0x34
 80034a8:	430b      	orrs	r3, r1
 80034aa:	60d3      	str	r3, [r2, #12]
        __HAL_RCC_PLL_ENABLE();
 80034ac:	6811      	ldr	r1, [r2, #0]
 80034ae:	2380      	movs	r3, #128	; 0x80
 80034b0:	045b      	lsls	r3, r3, #17
 80034b2:	430b      	orrs	r3, r1
 80034b4:	6013      	str	r3, [r2, #0]
        tickstart = HAL_GetTick();
 80034b6:	f7ff f82b 	bl	8002510 <HAL_GetTick>
 80034ba:	0004      	movs	r4, r0
        while(__HAL_RCC_GET_FLAG(RCC_FLAG_PLLRDY)  == 0U)
 80034bc:	4e1c      	ldr	r6, [pc, #112]	; (8003530 <HAL_RCC_OscConfig+0x5e4>)
 80034be:	2580      	movs	r5, #128	; 0x80
 80034c0:	04ad      	lsls	r5, r5, #18
 80034c2:	6833      	ldr	r3, [r6, #0]
 80034c4:	422b      	tst	r3, r5
 80034c6:	d106      	bne.n	80034d6 <HAL_RCC_OscConfig+0x58a>
          if((HAL_GetTick() - tickstart ) > PLL_TIMEOUT_VALUE)
 80034c8:	f7ff f822 	bl	8002510 <HAL_GetTick>
 80034cc:	1b00      	subs	r0, r0, r4
 80034ce:	2802      	cmp	r0, #2
 80034d0:	d9f7      	bls.n	80034c2 <HAL_RCC_OscConfig+0x576>
            return HAL_TIMEOUT;
 80034d2:	2003      	movs	r0, #3
 80034d4:	e01e      	b.n	8003514 <HAL_RCC_OscConfig+0x5c8>
  return HAL_OK;
 80034d6:	2000      	movs	r0, #0
 80034d8:	e01c      	b.n	8003514 <HAL_RCC_OscConfig+0x5c8>
 80034da:	2000      	movs	r0, #0
 80034dc:	e01a      	b.n	8003514 <HAL_RCC_OscConfig+0x5c8>
      if((RCC_OscInitStruct->PLL.PLLState) == RCC_PLL_OFF)
 80034de:	2b01      	cmp	r3, #1
 80034e0:	d024      	beq.n	800352c <HAL_RCC_OscConfig+0x5e0>
        pll_config = RCC->CFGR;
 80034e2:	4b13      	ldr	r3, [pc, #76]	; (8003530 <HAL_RCC_OscConfig+0x5e4>)
 80034e4:	68db      	ldr	r3, [r3, #12]
        if((READ_BIT(pll_config, RCC_CFGR_PLLSRC) != RCC_OscInitStruct->PLL.PLLSource) ||
 80034e6:	2280      	movs	r2, #128	; 0x80
 80034e8:	0252      	lsls	r2, r2, #9
 80034ea:	401a      	ands	r2, r3
          return HAL_ERROR;
 80034ec:	2001      	movs	r0, #1
        if((READ_BIT(pll_config, RCC_CFGR_PLLSRC) != RCC_OscInitStruct->PLL.PLLSource) ||
 80034ee:	6ae1      	ldr	r1, [r4, #44]	; 0x2c
 80034f0:	428a      	cmp	r2, r1
 80034f2:	d10f      	bne.n	8003514 <HAL_RCC_OscConfig+0x5c8>
           (READ_BIT(pll_config, RCC_CFGR_PLLMUL) != RCC_OscInitStruct->PLL.PLLMUL) ||
 80034f4:	22f0      	movs	r2, #240	; 0xf0
 80034f6:	0392      	lsls	r2, r2, #14
 80034f8:	401a      	ands	r2, r3
        if((READ_BIT(pll_config, RCC_CFGR_PLLSRC) != RCC_OscInitStruct->PLL.PLLSource) ||
 80034fa:	6b21      	ldr	r1, [r4, #48]	; 0x30
 80034fc:	428a      	cmp	r2, r1
 80034fe:	d109      	bne.n	8003514 <HAL_RCC_OscConfig+0x5c8>
           (READ_BIT(pll_config, RCC_CFGR_PLLDIV) != RCC_OscInitStruct->PLL.PLLDIV))
 8003500:	20c0      	movs	r0, #192	; 0xc0
 8003502:	0400      	lsls	r0, r0, #16
 8003504:	4003      	ands	r3, r0
           (READ_BIT(pll_config, RCC_CFGR_PLLMUL) != RCC_OscInitStruct->PLL.PLLMUL) ||
 8003506:	6b60      	ldr	r0, [r4, #52]	; 0x34
 8003508:	1a18      	subs	r0, r3, r0
 800350a:	1e43      	subs	r3, r0, #1
 800350c:	4198      	sbcs	r0, r3
        return HAL_ERROR;
 800350e:	b2c0      	uxtb	r0, r0
 8003510:	e000      	b.n	8003514 <HAL_RCC_OscConfig+0x5c8>
    return HAL_ERROR;
 8003512:	2001      	movs	r0, #1
}
 8003514:	b002      	add	sp, #8
 8003516:	bce0      	pop	{r5, r6, r7}
 8003518:	46ba      	mov	sl, r7
 800351a:	46b1      	mov	r9, r6
 800351c:	46a8      	mov	r8, r5
 800351e:	bdf0      	pop	{r4, r5, r6, r7, pc}
        return HAL_ERROR;
 8003520:	2001      	movs	r0, #1
 8003522:	e7f7      	b.n	8003514 <HAL_RCC_OscConfig+0x5c8>
        return HAL_ERROR;
 8003524:	2001      	movs	r0, #1
 8003526:	e7f5      	b.n	8003514 <HAL_RCC_OscConfig+0x5c8>
        return HAL_ERROR;
 8003528:	2001      	movs	r0, #1
 800352a:	e7f3      	b.n	8003514 <HAL_RCC_OscConfig+0x5c8>
        return HAL_ERROR;
 800352c:	2001      	movs	r0, #1
 800352e:	e7f1      	b.n	8003514 <HAL_RCC_OscConfig+0x5c8>
 8003530:	40021000 	.word	0x40021000
 8003534:	40007000 	.word	0x40007000
 8003538:	fffffeff 	.word	0xfffffeff
 800353c:	fffffbff 	.word	0xfffffbff
 8003540:	00001388 	.word	0x00001388
 8003544:	40010000 	.word	0x40010000
 8003548:	efffffff 	.word	0xefffffff
 800354c:	ffffdfff 	.word	0xffffdfff
 8003550:	feffffff 	.word	0xfeffffff
 8003554:	ff02ffff 	.word	0xff02ffff

08003558 <HAL_RCC_ClockConfig>:
{
 8003558:	b5f8      	push	{r3, r4, r5, r6, r7, lr}
 800355a:	46ce      	mov	lr, r9
 800355c:	4647      	mov	r7, r8
 800355e:	b580      	push	{r7, lr}
 8003560:	0004      	movs	r4, r0
 8003562:	000d      	movs	r5, r1
  if(RCC_ClkInitStruct == NULL)
 8003564:	2800      	cmp	r0, #0
 8003566:	d100      	bne.n	800356a <HAL_RCC_ClockConfig+0x12>
 8003568:	e0e2      	b.n	8003730 <HAL_RCC_ClockConfig+0x1d8>
  if(FLatency > __HAL_FLASH_GET_LATENCY())
 800356a:	4b73      	ldr	r3, [pc, #460]	; (8003738 <HAL_RCC_ClockConfig+0x1e0>)
 800356c:	681a      	ldr	r2, [r3, #0]
 800356e:	2301      	movs	r3, #1
 8003570:	4013      	ands	r3, r2
 8003572:	428b      	cmp	r3, r1
 8003574:	d31a      	bcc.n	80035ac <HAL_RCC_ClockConfig+0x54>
  if(((RCC_ClkInitStruct->ClockType) & RCC_CLOCKTYPE_HCLK) == RCC_CLOCKTYPE_HCLK)
 8003576:	6823      	ldr	r3, [r4, #0]
 8003578:	079b      	lsls	r3, r3, #30
 800357a:	d506      	bpl.n	800358a <HAL_RCC_ClockConfig+0x32>
    MODIFY_REG(RCC->CFGR, RCC_CFGR_HPRE, RCC_ClkInitStruct->AHBCLKDivider);
 800357c:	4a6f      	ldr	r2, [pc, #444]	; (800373c <HAL_RCC_ClockConfig+0x1e4>)
 800357e:	68d3      	ldr	r3, [r2, #12]
 8003580:	21f0      	movs	r1, #240	; 0xf0
 8003582:	438b      	bics	r3, r1
 8003584:	68a1      	ldr	r1, [r4, #8]
 8003586:	430b      	orrs	r3, r1
 8003588:	60d3      	str	r3, [r2, #12]
  if(((RCC_ClkInitStruct->ClockType) & RCC_CLOCKTYPE_SYSCLK) == RCC_CLOCKTYPE_SYSCLK)
 800358a:	6823      	ldr	r3, [r4, #0]
 800358c:	07db      	lsls	r3, r3, #31
 800358e:	d400      	bmi.n	8003592 <HAL_RCC_ClockConfig+0x3a>
 8003590:	e08a      	b.n	80036a8 <HAL_RCC_ClockConfig+0x150>
    if(RCC_ClkInitStruct->SYSCLKSource == RCC_SYSCLKSOURCE_HSE)
 8003592:	6862      	ldr	r2, [r4, #4]
 8003594:	2a02      	cmp	r2, #2
 8003596:	d023      	beq.n	80035e0 <HAL_RCC_ClockConfig+0x88>
    else if(RCC_ClkInitStruct->SYSCLKSource == RCC_SYSCLKSOURCE_PLLCLK)
 8003598:	2a03      	cmp	r2, #3
 800359a:	d046      	beq.n	800362a <HAL_RCC_ClockConfig+0xd2>
    else if(RCC_ClkInitStruct->SYSCLKSource == RCC_SYSCLKSOURCE_HSI)
 800359c:	2a01      	cmp	r2, #1
 800359e:	d04a      	beq.n	8003636 <HAL_RCC_ClockConfig+0xde>
      if(__HAL_RCC_GET_FLAG(RCC_FLAG_MSIRDY) == 0U)
 80035a0:	4b66      	ldr	r3, [pc, #408]	; (800373c <HAL_RCC_ClockConfig+0x1e4>)
 80035a2:	681b      	ldr	r3, [r3, #0]
 80035a4:	059b      	lsls	r3, r3, #22
 80035a6:	d420      	bmi.n	80035ea <HAL_RCC_ClockConfig+0x92>
        return HAL_ERROR;
 80035a8:	2001      	movs	r0, #1
 80035aa:	e0a7      	b.n	80036fc <HAL_RCC_ClockConfig+0x1a4>
    __HAL_FLASH_SET_LATENCY(FLatency);
 80035ac:	4a62      	ldr	r2, [pc, #392]	; (8003738 <HAL_RCC_ClockConfig+0x1e0>)
 80035ae:	6813      	ldr	r3, [r2, #0]
 80035b0:	2101      	movs	r1, #1
 80035b2:	438b      	bics	r3, r1
 80035b4:	432b      	orrs	r3, r5
 80035b6:	6013      	str	r3, [r2, #0]
    tickstart = HAL_GetTick();
 80035b8:	f7fe ffaa 	bl	8002510 <HAL_GetTick>
 80035bc:	0006      	movs	r6, r0
    while (__HAL_FLASH_GET_LATENCY() != FLatency)
 80035be:	4b5e      	ldr	r3, [pc, #376]	; (8003738 <HAL_RCC_ClockConfig+0x1e0>)
 80035c0:	4698      	mov	r8, r3
 80035c2:	2701      	movs	r7, #1
      if ((HAL_GetTick() - tickstart) > CLOCKSWITCH_TIMEOUT_VALUE)
 80035c4:	4b5e      	ldr	r3, [pc, #376]	; (8003740 <HAL_RCC_ClockConfig+0x1e8>)
 80035c6:	4699      	mov	r9, r3
    while (__HAL_FLASH_GET_LATENCY() != FLatency)
 80035c8:	4643      	mov	r3, r8
 80035ca:	681b      	ldr	r3, [r3, #0]
 80035cc:	403b      	ands	r3, r7
 80035ce:	42ab      	cmp	r3, r5
 80035d0:	d0d1      	beq.n	8003576 <HAL_RCC_ClockConfig+0x1e>
      if ((HAL_GetTick() - tickstart) > CLOCKSWITCH_TIMEOUT_VALUE)
 80035d2:	f7fe ff9d 	bl	8002510 <HAL_GetTick>
 80035d6:	1b80      	subs	r0, r0, r6
 80035d8:	4548      	cmp	r0, r9
 80035da:	d9f5      	bls.n	80035c8 <HAL_RCC_ClockConfig+0x70>
        return HAL_TIMEOUT;
 80035dc:	2003      	movs	r0, #3
 80035de:	e08d      	b.n	80036fc <HAL_RCC_ClockConfig+0x1a4>
      if(__HAL_RCC_GET_FLAG(RCC_FLAG_HSERDY) == 0U)
 80035e0:	4b56      	ldr	r3, [pc, #344]	; (800373c <HAL_RCC_ClockConfig+0x1e4>)
 80035e2:	681b      	ldr	r3, [r3, #0]
 80035e4:	039b      	lsls	r3, r3, #14
 80035e6:	d400      	bmi.n	80035ea <HAL_RCC_ClockConfig+0x92>
 80035e8:	e0a4      	b.n	8003734 <HAL_RCC_ClockConfig+0x1dc>
    __HAL_RCC_SYSCLK_CONFIG(RCC_ClkInitStruct->SYSCLKSource);
 80035ea:	4954      	ldr	r1, [pc, #336]	; (800373c <HAL_RCC_ClockConfig+0x1e4>)
 80035ec:	68cb      	ldr	r3, [r1, #12]
 80035ee:	2003      	movs	r0, #3
 80035f0:	4383      	bics	r3, r0
 80035f2:	4313      	orrs	r3, r2
 80035f4:	60cb      	str	r3, [r1, #12]
    tickstart = HAL_GetTick();
 80035f6:	f7fe ff8b 	bl	8002510 <HAL_GetTick>
 80035fa:	0006      	movs	r6, r0
    if(RCC_ClkInitStruct->SYSCLKSource == RCC_SYSCLKSOURCE_HSE)
 80035fc:	6863      	ldr	r3, [r4, #4]
 80035fe:	2b02      	cmp	r3, #2
 8003600:	d01f      	beq.n	8003642 <HAL_RCC_ClockConfig+0xea>
    else if(RCC_ClkInitStruct->SYSCLKSource == RCC_SYSCLKSOURCE_PLLCLK)
 8003602:	2b03      	cmp	r3, #3
 8003604:	d02e      	beq.n	8003664 <HAL_RCC_ClockConfig+0x10c>
    else if(RCC_ClkInitStruct->SYSCLKSource == RCC_SYSCLKSOURCE_HSI)
 8003606:	2b01      	cmp	r3, #1
 8003608:	d03d      	beq.n	8003686 <HAL_RCC_ClockConfig+0x12e>
      while(__HAL_RCC_GET_SYSCLK_SOURCE() != RCC_SYSCLKSOURCE_STATUS_MSI)
 800360a:	4b4c      	ldr	r3, [pc, #304]	; (800373c <HAL_RCC_ClockConfig+0x1e4>)
 800360c:	4698      	mov	r8, r3
 800360e:	270c      	movs	r7, #12
        if((HAL_GetTick() - tickstart ) > CLOCKSWITCH_TIMEOUT_VALUE)
 8003610:	4b4b      	ldr	r3, [pc, #300]	; (8003740 <HAL_RCC_ClockConfig+0x1e8>)
 8003612:	4699      	mov	r9, r3
      while(__HAL_RCC_GET_SYSCLK_SOURCE() != RCC_SYSCLKSOURCE_STATUS_MSI)
 8003614:	4643      	mov	r3, r8
 8003616:	68db      	ldr	r3, [r3, #12]
 8003618:	421f      	tst	r7, r3
 800361a:	d045      	beq.n	80036a8 <HAL_RCC_ClockConfig+0x150>
        if((HAL_GetTick() - tickstart ) > CLOCKSWITCH_TIMEOUT_VALUE)
 800361c:	f7fe ff78 	bl	8002510 <HAL_GetTick>
 8003620:	1b80      	subs	r0, r0, r6
 8003622:	4548      	cmp	r0, r9
 8003624:	d9f6      	bls.n	8003614 <HAL_RCC_ClockConfig+0xbc>
          return HAL_TIMEOUT;
 8003626:	2003      	movs	r0, #3
 8003628:	e068      	b.n	80036fc <HAL_RCC_ClockConfig+0x1a4>
      if(__HAL_RCC_GET_FLAG(RCC_FLAG_PLLRDY) == 0U)
 800362a:	4b44      	ldr	r3, [pc, #272]	; (800373c <HAL_RCC_ClockConfig+0x1e4>)
 800362c:	681b      	ldr	r3, [r3, #0]
 800362e:	019b      	lsls	r3, r3, #6
 8003630:	d4db      	bmi.n	80035ea <HAL_RCC_ClockConfig+0x92>
        return HAL_ERROR;
 8003632:	2001      	movs	r0, #1
 8003634:	e062      	b.n	80036fc <HAL_RCC_ClockConfig+0x1a4>
      if(__HAL_RCC_GET_FLAG(RCC_FLAG_HSIRDY) == 0U)
 8003636:	4b41      	ldr	r3, [pc, #260]	; (800373c <HAL_RCC_ClockConfig+0x1e4>)
 8003638:	681b      	ldr	r3, [r3, #0]
 800363a:	075b      	lsls	r3, r3, #29
 800363c:	d4d5      	bmi.n	80035ea <HAL_RCC_ClockConfig+0x92>
        return HAL_ERROR;
 800363e:	2001      	movs	r0, #1
 8003640:	e05c      	b.n	80036fc <HAL_RCC_ClockConfig+0x1a4>
      while (__HAL_RCC_GET_SYSCLK_SOURCE() != RCC_SYSCLKSOURCE_STATUS_HSE)
 8003642:	4b3e      	ldr	r3, [pc, #248]	; (800373c <HAL_RCC_ClockConfig+0x1e4>)
 8003644:	4698      	mov	r8, r3
 8003646:	270c      	movs	r7, #12
        if((HAL_GetTick() - tickstart ) > CLOCKSWITCH_TIMEOUT_VALUE)
 8003648:	4b3d      	ldr	r3, [pc, #244]	; (8003740 <HAL_RCC_ClockConfig+0x1e8>)
 800364a:	4699      	mov	r9, r3
      while (__HAL_RCC_GET_SYSCLK_SOURCE() != RCC_SYSCLKSOURCE_STATUS_HSE)
 800364c:	4643      	mov	r3, r8
 800364e:	68db      	ldr	r3, [r3, #12]
 8003650:	403b      	ands	r3, r7
 8003652:	2b08      	cmp	r3, #8
 8003654:	d028      	beq.n	80036a8 <HAL_RCC_ClockConfig+0x150>
        if((HAL_GetTick() - tickstart ) > CLOCKSWITCH_TIMEOUT_VALUE)
 8003656:	f7fe ff5b 	bl	8002510 <HAL_GetTick>
 800365a:	1b80      	subs	r0, r0, r6
 800365c:	4548      	cmp	r0, r9
 800365e:	d9f5      	bls.n	800364c <HAL_RCC_ClockConfig+0xf4>
          return HAL_TIMEOUT;
 8003660:	2003      	movs	r0, #3
 8003662:	e04b      	b.n	80036fc <HAL_RCC_ClockConfig+0x1a4>
      while (__HAL_RCC_GET_SYSCLK_SOURCE() != RCC_SYSCLKSOURCE_STATUS_PLLCLK)
 8003664:	4b35      	ldr	r3, [pc, #212]	; (800373c <HAL_RCC_ClockConfig+0x1e4>)
 8003666:	4698      	mov	r8, r3
 8003668:	270c      	movs	r7, #12
        if((HAL_GetTick() - tickstart ) > CLOCKSWITCH_TIMEOUT_VALUE)
 800366a:	4b35      	ldr	r3, [pc, #212]	; (8003740 <HAL_RCC_ClockConfig+0x1e8>)
 800366c:	4699      	mov	r9, r3
      while (__HAL_RCC_GET_SYSCLK_SOURCE() != RCC_SYSCLKSOURCE_STATUS_PLLCLK)
 800366e:	4643      	mov	r3, r8
 8003670:	68db      	ldr	r3, [r3, #12]
 8003672:	403b      	ands	r3, r7
 8003674:	2b0c      	cmp	r3, #12
 8003676:	d017      	beq.n	80036a8 <HAL_RCC_ClockConfig+0x150>
        if((HAL_GetTick() - tickstart ) > CLOCKSWITCH_TIMEOUT_VALUE)
 8003678:	f7fe ff4a 	bl	8002510 <HAL_GetTick>
 800367c:	1b80      	subs	r0, r0, r6
 800367e:	4548      	cmp	r0, r9
 8003680:	d9f5      	bls.n	800366e <HAL_RCC_ClockConfig+0x116>
          return HAL_TIMEOUT;
 8003682:	2003      	movs	r0, #3
 8003684:	e03a      	b.n	80036fc <HAL_RCC_ClockConfig+0x1a4>
      while (__HAL_RCC_GET_SYSCLK_SOURCE() != RCC_SYSCLKSOURCE_STATUS_HSI)
 8003686:	4b2d      	ldr	r3, [pc, #180]	; (800373c <HAL_RCC_ClockConfig+0x1e4>)
 8003688:	4698      	mov	r8, r3
 800368a:	270c      	movs	r7, #12
        if((HAL_GetTick() - tickstart ) > CLOCKSWITCH_TIMEOUT_VALUE)
 800368c:	4b2c      	ldr	r3, [pc, #176]	; (8003740 <HAL_RCC_ClockConfig+0x1e8>)
 800368e:	4699      	mov	r9, r3
      while (__HAL_RCC_GET_SYSCLK_SOURCE() != RCC_SYSCLKSOURCE_STATUS_HSI)
 8003690:	4643      	mov	r3, r8
 8003692:	68db      	ldr	r3, [r3, #12]
 8003694:	403b      	ands	r3, r7
 8003696:	2b04      	cmp	r3, #4
 8003698:	d006      	beq.n	80036a8 <HAL_RCC_ClockConfig+0x150>
        if((HAL_GetTick() - tickstart ) > CLOCKSWITCH_TIMEOUT_VALUE)
 800369a:	f7fe ff39 	bl	8002510 <HAL_GetTick>
 800369e:	1b80      	subs	r0, r0, r6
 80036a0:	4548      	cmp	r0, r9
 80036a2:	d9f5      	bls.n	8003690 <HAL_RCC_ClockConfig+0x138>
          return HAL_TIMEOUT;
 80036a4:	2003      	movs	r0, #3
 80036a6:	e029      	b.n	80036fc <HAL_RCC_ClockConfig+0x1a4>
  if(FLatency < __HAL_FLASH_GET_LATENCY())
 80036a8:	4b23      	ldr	r3, [pc, #140]	; (8003738 <HAL_RCC_ClockConfig+0x1e0>)
 80036aa:	681a      	ldr	r2, [r3, #0]
 80036ac:	2301      	movs	r3, #1
 80036ae:	4013      	ands	r3, r2
 80036b0:	42ab      	cmp	r3, r5
 80036b2:	d827      	bhi.n	8003704 <HAL_RCC_ClockConfig+0x1ac>
  if(((RCC_ClkInitStruct->ClockType) & RCC_CLOCKTYPE_PCLK1) == RCC_CLOCKTYPE_PCLK1)
 80036b4:	6823      	ldr	r3, [r4, #0]
 80036b6:	075b      	lsls	r3, r3, #29
 80036b8:	d506      	bpl.n	80036c8 <HAL_RCC_ClockConfig+0x170>
    MODIFY_REG(RCC->CFGR, RCC_CFGR_PPRE1, RCC_ClkInitStruct->APB1CLKDivider);
 80036ba:	4a20      	ldr	r2, [pc, #128]	; (800373c <HAL_RCC_ClockConfig+0x1e4>)
 80036bc:	68d3      	ldr	r3, [r2, #12]
 80036be:	4921      	ldr	r1, [pc, #132]	; (8003744 <HAL_RCC_ClockConfig+0x1ec>)
 80036c0:	400b      	ands	r3, r1
 80036c2:	68e1      	ldr	r1, [r4, #12]
 80036c4:	430b      	orrs	r3, r1
 80036c6:	60d3      	str	r3, [r2, #12]
  if(((RCC_ClkInitStruct->ClockType) & RCC_CLOCKTYPE_PCLK2) == RCC_CLOCKTYPE_PCLK2)
 80036c8:	6823      	ldr	r3, [r4, #0]
 80036ca:	071b      	lsls	r3, r3, #28
 80036cc:	d507      	bpl.n	80036de <HAL_RCC_ClockConfig+0x186>
    MODIFY_REG(RCC->CFGR, RCC_CFGR_PPRE2, ((RCC_ClkInitStruct->APB2CLKDivider) << 3));
 80036ce:	481b      	ldr	r0, [pc, #108]	; (800373c <HAL_RCC_ClockConfig+0x1e4>)
 80036d0:	68c1      	ldr	r1, [r0, #12]
 80036d2:	6923      	ldr	r3, [r4, #16]
 80036d4:	00db      	lsls	r3, r3, #3
 80036d6:	4a1c      	ldr	r2, [pc, #112]	; (8003748 <HAL_RCC_ClockConfig+0x1f0>)
 80036d8:	400a      	ands	r2, r1
 80036da:	4313      	orrs	r3, r2
 80036dc:	60c3      	str	r3, [r0, #12]
  SystemCoreClock = HAL_RCC_GetSysClockFreq() >> AHBPrescTable[(RCC->CFGR & RCC_CFGR_HPRE)>> RCC_CFGR_HPRE_Pos];
 80036de:	f7ff fbdb 	bl	8002e98 <HAL_RCC_GetSysClockFreq>
 80036e2:	4b16      	ldr	r3, [pc, #88]	; (800373c <HAL_RCC_ClockConfig+0x1e4>)
 80036e4:	68db      	ldr	r3, [r3, #12]
 80036e6:	061b      	lsls	r3, r3, #24
 80036e8:	0f1b      	lsrs	r3, r3, #28
 80036ea:	4a18      	ldr	r2, [pc, #96]	; (800374c <HAL_RCC_ClockConfig+0x1f4>)
 80036ec:	5cd3      	ldrb	r3, [r2, r3]
 80036ee:	40d8      	lsrs	r0, r3
 80036f0:	4b17      	ldr	r3, [pc, #92]	; (8003750 <HAL_RCC_ClockConfig+0x1f8>)
 80036f2:	6018      	str	r0, [r3, #0]
  status = HAL_InitTick(uwTickPrio);
 80036f4:	4b17      	ldr	r3, [pc, #92]	; (8003754 <HAL_RCC_ClockConfig+0x1fc>)
 80036f6:	6818      	ldr	r0, [r3, #0]
 80036f8:	f7fe fec4 	bl	8002484 <HAL_InitTick>
}
 80036fc:	bcc0      	pop	{r6, r7}
 80036fe:	46b9      	mov	r9, r7
 8003700:	46b0      	mov	r8, r6
 8003702:	bdf8      	pop	{r3, r4, r5, r6, r7, pc}
    __HAL_FLASH_SET_LATENCY(FLatency);
 8003704:	4a0c      	ldr	r2, [pc, #48]	; (8003738 <HAL_RCC_ClockConfig+0x1e0>)
 8003706:	6813      	ldr	r3, [r2, #0]
 8003708:	2101      	movs	r1, #1
 800370a:	438b      	bics	r3, r1
 800370c:	6013      	str	r3, [r2, #0]
    tickstart = HAL_GetTick();
 800370e:	f7fe feff 	bl	8002510 <HAL_GetTick>
 8003712:	0005      	movs	r5, r0
    while (__HAL_FLASH_GET_LATENCY() != FLatency)
 8003714:	4f08      	ldr	r7, [pc, #32]	; (8003738 <HAL_RCC_ClockConfig+0x1e0>)
 8003716:	2601      	movs	r6, #1
      if ((HAL_GetTick() - tickstart) > CLOCKSWITCH_TIMEOUT_VALUE)
 8003718:	4b09      	ldr	r3, [pc, #36]	; (8003740 <HAL_RCC_ClockConfig+0x1e8>)
 800371a:	4698      	mov	r8, r3
    while (__HAL_FLASH_GET_LATENCY() != FLatency)
 800371c:	683b      	ldr	r3, [r7, #0]
 800371e:	421e      	tst	r6, r3
 8003720:	d0c8      	beq.n	80036b4 <HAL_RCC_ClockConfig+0x15c>
      if ((HAL_GetTick() - tickstart) > CLOCKSWITCH_TIMEOUT_VALUE)
 8003722:	f7fe fef5 	bl	8002510 <HAL_GetTick>
 8003726:	1b40      	subs	r0, r0, r5
 8003728:	4540      	cmp	r0, r8
 800372a:	d9f7      	bls.n	800371c <HAL_RCC_ClockConfig+0x1c4>
        return HAL_TIMEOUT;
 800372c:	2003      	movs	r0, #3
 800372e:	e7e5      	b.n	80036fc <HAL_RCC_ClockConfig+0x1a4>
    return HAL_ERROR;
 8003730:	2001      	movs	r0, #1
 8003732:	e7e3      	b.n	80036fc <HAL_RCC_ClockConfig+0x1a4>
        return HAL_ERROR;
 8003734:	2001      	movs	r0, #1
 8003736:	e7e1      	b.n	80036fc <HAL_RCC_ClockConfig+0x1a4>
 8003738:	40022000 	.word	0x40022000
 800373c:	40021000 	.word	0x40021000
 8003740:	00001388 	.word	0x00001388
 8003744:	fffff8ff 	.word	0xfffff8ff
 8003748:	ffffc7ff 	.word	0xffffc7ff
 800374c:	08007e38 	.word	0x08007e38
 8003750:	20000014 	.word	0x20000014
 8003754:	2000001c 	.word	0x2000001c

08003758 <HAL_RCC_GetPCLK1Freq>:
  * @retval PCLK1 frequency
  */
uint32_t HAL_RCC_GetPCLK1Freq(void)
{
  /* Get HCLK source and Compute PCLK1 frequency ---------------------------*/
  return (HAL_RCC_GetHCLKFreq() >> APBPrescTable[(RCC->CFGR & RCC_CFGR_PPRE1) >> RCC_CFGR_PPRE1_Pos]);
 8003758:	4b04      	ldr	r3, [pc, #16]	; (800376c <HAL_RCC_GetPCLK1Freq+0x14>)
 800375a:	68db      	ldr	r3, [r3, #12]
 800375c:	055b      	lsls	r3, r3, #21
 800375e:	0f5b      	lsrs	r3, r3, #29
 8003760:	4a03      	ldr	r2, [pc, #12]	; (8003770 <HAL_RCC_GetPCLK1Freq+0x18>)
 8003762:	5cd3      	ldrb	r3, [r2, r3]
 8003764:	4a03      	ldr	r2, [pc, #12]	; (8003774 <HAL_RCC_GetPCLK1Freq+0x1c>)
 8003766:	6810      	ldr	r0, [r2, #0]
 8003768:	40d8      	lsrs	r0, r3
}
 800376a:	4770      	bx	lr
 800376c:	40021000 	.word	0x40021000
 8003770:	08007e48 	.word	0x08007e48
 8003774:	20000014 	.word	0x20000014

08003778 <HAL_RCC_GetPCLK2Freq>:
  * @retval PCLK2 frequency
  */
uint32_t HAL_RCC_GetPCLK2Freq(void)
{
  /* Get HCLK source and Compute PCLK2 frequency ---------------------------*/
  return (HAL_RCC_GetHCLKFreq()>> APBPrescTable[(RCC->CFGR & RCC_CFGR_PPRE2) >> RCC_CFGR_PPRE2_Pos]);
 8003778:	4b04      	ldr	r3, [pc, #16]	; (800378c <HAL_RCC_GetPCLK2Freq+0x14>)
 800377a:	68db      	ldr	r3, [r3, #12]
 800377c:	049b      	lsls	r3, r3, #18
 800377e:	0f5b      	lsrs	r3, r3, #29
 8003780:	4a03      	ldr	r2, [pc, #12]	; (8003790 <HAL_RCC_GetPCLK2Freq+0x18>)
 8003782:	5cd3      	ldrb	r3, [r2, r3]
 8003784:	4a03      	ldr	r2, [pc, #12]	; (8003794 <HAL_RCC_GetPCLK2Freq+0x1c>)
 8003786:	6810      	ldr	r0, [r2, #0]
 8003788:	40d8      	lsrs	r0, r3
}
 800378a:	4770      	bx	lr
 800378c:	40021000 	.word	0x40021000
 8003790:	08007e48 	.word	0x08007e48
 8003794:	20000014 	.word	0x20000014

08003798 <HAL_RCCEx_PeriphCLKConfig>:
  * @retval HAL status
  * @note   If HAL_ERROR returned, first switch-OFF HSE clock oscillator with @ref HAL_RCC_OscConfig()
  *         to possibly update HSE divider.
  */
HAL_StatusTypeDef HAL_RCCEx_PeriphCLKConfig(RCC_PeriphCLKInitTypeDef  *PeriphClkInit)
{
 8003798:	b5f0      	push	{r4, r5, r6, r7, lr}
 800379a:	46d6      	mov	lr, sl
 800379c:	464f      	mov	r7, r9
 800379e:	4646      	mov	r6, r8
 80037a0:	b5c0      	push	{r6, r7, lr}
 80037a2:	0004      	movs	r4, r0
  assert_param(IS_RCC_PERIPHCLOCK(PeriphClkInit->PeriphClockSelection));

  /*------------------------------- RTC/LCD Configuration ------------------------*/
  if ((((PeriphClkInit->PeriphClockSelection) & RCC_PERIPHCLK_RTC) == RCC_PERIPHCLK_RTC)
#if defined(LCD)
   || (((PeriphClkInit->PeriphClockSelection) & RCC_PERIPHCLK_LCD) == RCC_PERIPHCLK_LCD)
 80037a4:	2382      	movs	r3, #130	; 0x82
 80037a6:	011b      	lsls	r3, r3, #4
  if ((((PeriphClkInit->PeriphClockSelection) & RCC_PERIPHCLK_RTC) == RCC_PERIPHCLK_RTC)
 80037a8:	6802      	ldr	r2, [r0, #0]
 80037aa:	421a      	tst	r2, r3
 80037ac:	d038      	beq.n	8003820 <HAL_RCCEx_PeriphCLKConfig+0x88>
#endif /* LCD */

    /* As soon as function is called to change RTC clock source, activation of the
       power domain is done. */
    /* Requires to enable write access to Backup Domain of necessary */
    if(__HAL_RCC_PWR_IS_CLK_DISABLED())
 80037ae:	4b83      	ldr	r3, [pc, #524]	; (80039bc <HAL_RCCEx_PeriphCLKConfig+0x224>)
 80037b0:	6b9b      	ldr	r3, [r3, #56]	; 0x38
  FlagStatus       pwrclkchanged = RESET;
 80037b2:	2200      	movs	r2, #0
 80037b4:	4692      	mov	sl, r2
    if(__HAL_RCC_PWR_IS_CLK_DISABLED())
 80037b6:	00db      	lsls	r3, r3, #3
 80037b8:	d407      	bmi.n	80037ca <HAL_RCCEx_PeriphCLKConfig+0x32>
    {
      __HAL_RCC_PWR_CLK_ENABLE();
 80037ba:	4a80      	ldr	r2, [pc, #512]	; (80039bc <HAL_RCCEx_PeriphCLKConfig+0x224>)
 80037bc:	6b91      	ldr	r1, [r2, #56]	; 0x38
 80037be:	2380      	movs	r3, #128	; 0x80
 80037c0:	055b      	lsls	r3, r3, #21
 80037c2:	430b      	orrs	r3, r1
 80037c4:	6393      	str	r3, [r2, #56]	; 0x38
      pwrclkchanged = SET;
 80037c6:	2301      	movs	r3, #1
 80037c8:	469a      	mov	sl, r3
    }

    if(HAL_IS_BIT_CLR(PWR->CR, PWR_CR_DBP))
 80037ca:	4b7d      	ldr	r3, [pc, #500]	; (80039c0 <HAL_RCCEx_PeriphCLKConfig+0x228>)
 80037cc:	681b      	ldr	r3, [r3, #0]
 80037ce:	05db      	lsls	r3, r3, #23
 80037d0:	d400      	bmi.n	80037d4 <HAL_RCCEx_PeriphCLKConfig+0x3c>
 80037d2:	e071      	b.n	80038b8 <HAL_RCCEx_PeriphCLKConfig+0x120>
        }
      }
    }

    /* Check if user wants to change HSE RTC prescaler whereas HSE is enabled */
    temp_reg = (RCC->CR & RCC_CR_RTCPRE);
 80037d4:	4b79      	ldr	r3, [pc, #484]	; (80039bc <HAL_RCCEx_PeriphCLKConfig+0x224>)
 80037d6:	6819      	ldr	r1, [r3, #0]
 80037d8:	23c0      	movs	r3, #192	; 0xc0
 80037da:	039b      	lsls	r3, r3, #14
 80037dc:	4019      	ands	r1, r3
    if ((temp_reg != (PeriphClkInit->RTCClockSelection & RCC_CR_RTCPRE))
 80037de:	6862      	ldr	r2, [r4, #4]
 80037e0:	4013      	ands	r3, r2
 80037e2:	428b      	cmp	r3, r1
 80037e4:	d100      	bne.n	80037e8 <HAL_RCCEx_PeriphCLKConfig+0x50>
 80037e6:	e07e      	b.n	80038e6 <HAL_RCCEx_PeriphCLKConfig+0x14e>
#if defined (LCD)
     || (temp_reg != (PeriphClkInit->LCDClockSelection & RCC_CR_RTCPRE))
#endif /* LCD */
       )
    { /* Check HSE State */
      if ((PeriphClkInit->RTCClockSelection & RCC_CSR_RTCSEL) == RCC_CSR_RTCSEL_HSE)
 80037e8:	23c0      	movs	r3, #192	; 0xc0
 80037ea:	029b      	lsls	r3, r3, #10
 80037ec:	0011      	movs	r1, r2
 80037ee:	4019      	ands	r1, r3
 80037f0:	4299      	cmp	r1, r3
 80037f2:	d100      	bne.n	80037f6 <HAL_RCCEx_PeriphCLKConfig+0x5e>
 80037f4:	e087      	b.n	8003906 <HAL_RCCEx_PeriphCLKConfig+0x16e>
        }
      }
    }

    /* Reset the Backup domain only if the RTC Clock source selection is modified from reset value */
    temp_reg = (RCC->CSR & RCC_CSR_RTCSEL);
 80037f6:	4b71      	ldr	r3, [pc, #452]	; (80039bc <HAL_RCCEx_PeriphCLKConfig+0x224>)
 80037f8:	6d19      	ldr	r1, [r3, #80]	; 0x50
 80037fa:	23c0      	movs	r3, #192	; 0xc0
 80037fc:	029b      	lsls	r3, r3, #10
 80037fe:	0008      	movs	r0, r1
 8003800:	4018      	ands	r0, r3

    if((temp_reg != 0x00000000U) && (((temp_reg != (PeriphClkInit->RTCClockSelection & RCC_CSR_RTCSEL)) \
 8003802:	4219      	tst	r1, r3
 8003804:	d000      	beq.n	8003808 <HAL_RCCEx_PeriphCLKConfig+0x70>
 8003806:	e08a      	b.n	800391e <HAL_RCCEx_PeriphCLKConfig+0x186>
            return HAL_TIMEOUT;
          }
        }
      }
    }
    __HAL_RCC_RTC_CONFIG(PeriphClkInit->RTCClockSelection);
 8003808:	4a6c      	ldr	r2, [pc, #432]	; (80039bc <HAL_RCCEx_PeriphCLKConfig+0x224>)
 800380a:	6d11      	ldr	r1, [r2, #80]	; 0x50
 800380c:	23c0      	movs	r3, #192	; 0xc0
 800380e:	029b      	lsls	r3, r3, #10
 8003810:	6860      	ldr	r0, [r4, #4]
 8003812:	4003      	ands	r3, r0
 8003814:	430b      	orrs	r3, r1
 8003816:	6513      	str	r3, [r2, #80]	; 0x50

    /* Require to disable power clock if necessary */
    if(pwrclkchanged == SET)
 8003818:	4653      	mov	r3, sl
 800381a:	2b01      	cmp	r3, #1
 800381c:	d100      	bne.n	8003820 <HAL_RCCEx_PeriphCLKConfig+0x88>
 800381e:	e0c5      	b.n	80039ac <HAL_RCCEx_PeriphCLKConfig+0x214>
    }
  }

#if defined (RCC_CCIPR_USART1SEL)
  /*------------------------------- USART1 Configuration ------------------------*/
  if(((PeriphClkInit->PeriphClockSelection) & RCC_PERIPHCLK_USART1) == RCC_PERIPHCLK_USART1)
 8003820:	6823      	ldr	r3, [r4, #0]
 8003822:	07db      	lsls	r3, r3, #31
 8003824:	d506      	bpl.n	8003834 <HAL_RCCEx_PeriphCLKConfig+0x9c>
  {
    /* Check the parameters */
    assert_param(IS_RCC_USART1CLKSOURCE(PeriphClkInit->Usart1ClockSelection));

    /* Configure the USART1 clock source */
    __HAL_RCC_USART1_CONFIG(PeriphClkInit->Usart1ClockSelection);
 8003826:	4a65      	ldr	r2, [pc, #404]	; (80039bc <HAL_RCCEx_PeriphCLKConfig+0x224>)
 8003828:	6cd3      	ldr	r3, [r2, #76]	; 0x4c
 800382a:	2103      	movs	r1, #3
 800382c:	438b      	bics	r3, r1
 800382e:	68e1      	ldr	r1, [r4, #12]
 8003830:	430b      	orrs	r3, r1
 8003832:	64d3      	str	r3, [r2, #76]	; 0x4c
  }
#endif /* RCC_CCIPR_USART1SEL */

  /*----------------------------- USART2 Configuration --------------------------*/
  if(((PeriphClkInit->PeriphClockSelection) & RCC_PERIPHCLK_USART2) == RCC_PERIPHCLK_USART2)
 8003834:	6823      	ldr	r3, [r4, #0]
 8003836:	079b      	lsls	r3, r3, #30
 8003838:	d506      	bpl.n	8003848 <HAL_RCCEx_PeriphCLKConfig+0xb0>
  {
    /* Check the parameters */
    assert_param(IS_RCC_USART2CLKSOURCE(PeriphClkInit->Usart2ClockSelection));

    /* Configure the USART2 clock source */
    __HAL_RCC_USART2_CONFIG(PeriphClkInit->Usart2ClockSelection);
 800383a:	4a60      	ldr	r2, [pc, #384]	; (80039bc <HAL_RCCEx_PeriphCLKConfig+0x224>)
 800383c:	6cd3      	ldr	r3, [r2, #76]	; 0x4c
 800383e:	210c      	movs	r1, #12
 8003840:	438b      	bics	r3, r1
 8003842:	6921      	ldr	r1, [r4, #16]
 8003844:	430b      	orrs	r3, r1
 8003846:	64d3      	str	r3, [r2, #76]	; 0x4c
  }

  /*------------------------------ LPUART1 Configuration ------------------------*/
  if(((PeriphClkInit->PeriphClockSelection) & RCC_PERIPHCLK_LPUART1) == RCC_PERIPHCLK_LPUART1)
 8003848:	6823      	ldr	r3, [r4, #0]
 800384a:	075b      	lsls	r3, r3, #29
 800384c:	d506      	bpl.n	800385c <HAL_RCCEx_PeriphCLKConfig+0xc4>
  {
    /* Check the parameters */
    assert_param(IS_RCC_LPUART1CLKSOURCE(PeriphClkInit->Lpuart1ClockSelection));

    /* Configure the LPUAR1 clock source */
    __HAL_RCC_LPUART1_CONFIG(PeriphClkInit->Lpuart1ClockSelection);
 800384e:	4a5b      	ldr	r2, [pc, #364]	; (80039bc <HAL_RCCEx_PeriphCLKConfig+0x224>)
 8003850:	6cd3      	ldr	r3, [r2, #76]	; 0x4c
 8003852:	495c      	ldr	r1, [pc, #368]	; (80039c4 <HAL_RCCEx_PeriphCLKConfig+0x22c>)
 8003854:	400b      	ands	r3, r1
 8003856:	6961      	ldr	r1, [r4, #20]
 8003858:	430b      	orrs	r3, r1
 800385a:	64d3      	str	r3, [r2, #76]	; 0x4c
  }

  /*------------------------------ I2C1 Configuration ------------------------*/
  if(((PeriphClkInit->PeriphClockSelection) & RCC_PERIPHCLK_I2C1) == RCC_PERIPHCLK_I2C1)
 800385c:	6823      	ldr	r3, [r4, #0]
 800385e:	071b      	lsls	r3, r3, #28
 8003860:	d506      	bpl.n	8003870 <HAL_RCCEx_PeriphCLKConfig+0xd8>
  {
    /* Check the parameters */
    assert_param(IS_RCC_I2C1CLKSOURCE(PeriphClkInit->I2c1ClockSelection));

    /* Configure the I2C1 clock source */
    __HAL_RCC_I2C1_CONFIG(PeriphClkInit->I2c1ClockSelection);
 8003862:	4a56      	ldr	r2, [pc, #344]	; (80039bc <HAL_RCCEx_PeriphCLKConfig+0x224>)
 8003864:	6cd3      	ldr	r3, [r2, #76]	; 0x4c
 8003866:	4958      	ldr	r1, [pc, #352]	; (80039c8 <HAL_RCCEx_PeriphCLKConfig+0x230>)
 8003868:	400b      	ands	r3, r1
 800386a:	69a1      	ldr	r1, [r4, #24]
 800386c:	430b      	orrs	r3, r1
 800386e:	64d3      	str	r3, [r2, #76]	; 0x4c
  }

#if defined (RCC_CCIPR_I2C3SEL)
    /*------------------------------ I2C3 Configuration ------------------------*/
  if(((PeriphClkInit->PeriphClockSelection) & RCC_PERIPHCLK_I2C3) == RCC_PERIPHCLK_I2C3)
 8003870:	6823      	ldr	r3, [r4, #0]
 8003872:	05db      	lsls	r3, r3, #23
 8003874:	d506      	bpl.n	8003884 <HAL_RCCEx_PeriphCLKConfig+0xec>
  {
    /* Check the parameters */
    assert_param(IS_RCC_I2C3CLKSOURCE(PeriphClkInit->I2c3ClockSelection));

    /* Configure the I2C3 clock source */
    __HAL_RCC_I2C3_CONFIG(PeriphClkInit->I2c3ClockSelection);
 8003876:	4a51      	ldr	r2, [pc, #324]	; (80039bc <HAL_RCCEx_PeriphCLKConfig+0x224>)
 8003878:	6cd3      	ldr	r3, [r2, #76]	; 0x4c
 800387a:	4954      	ldr	r1, [pc, #336]	; (80039cc <HAL_RCCEx_PeriphCLKConfig+0x234>)
 800387c:	400b      	ands	r3, r1
 800387e:	69e1      	ldr	r1, [r4, #28]
 8003880:	430b      	orrs	r3, r1
 8003882:	64d3      	str	r3, [r2, #76]	; 0x4c
  }
#endif /* RCC_CCIPR_I2C3SEL */

#if defined(USB)
 /*---------------------------- USB and RNG configuration --------------------*/
  if(((PeriphClkInit->PeriphClockSelection) & RCC_PERIPHCLK_USB) == (RCC_PERIPHCLK_USB))
 8003884:	6823      	ldr	r3, [r4, #0]
 8003886:	065b      	lsls	r3, r3, #25
 8003888:	d506      	bpl.n	8003898 <HAL_RCCEx_PeriphCLKConfig+0x100>
  {
    assert_param(IS_RCC_USBCLKSOURCE(PeriphClkInit->UsbClockSelection));
    __HAL_RCC_USB_CONFIG(PeriphClkInit->UsbClockSelection);
 800388a:	4a4c      	ldr	r2, [pc, #304]	; (80039bc <HAL_RCCEx_PeriphCLKConfig+0x224>)
 800388c:	6cd3      	ldr	r3, [r2, #76]	; 0x4c
 800388e:	4950      	ldr	r1, [pc, #320]	; (80039d0 <HAL_RCCEx_PeriphCLKConfig+0x238>)
 8003890:	400b      	ands	r3, r1
 8003892:	6a61      	ldr	r1, [r4, #36]	; 0x24
 8003894:	430b      	orrs	r3, r1
 8003896:	64d3      	str	r3, [r2, #76]	; 0x4c
  {
    assert_param(IS_RCC_LPTIMCLK(PeriphClkInit->LptimClockSelection));
    __HAL_RCC_LPTIM1_CONFIG(PeriphClkInit->LptimClockSelection);
  }

  return HAL_OK;
 8003898:	2000      	movs	r0, #0
  if(((PeriphClkInit->PeriphClockSelection) & RCC_PERIPHCLK_LPTIM1) == (RCC_PERIPHCLK_LPTIM1))
 800389a:	6823      	ldr	r3, [r4, #0]
 800389c:	061b      	lsls	r3, r3, #24
 800389e:	d506      	bpl.n	80038ae <HAL_RCCEx_PeriphCLKConfig+0x116>
    __HAL_RCC_LPTIM1_CONFIG(PeriphClkInit->LptimClockSelection);
 80038a0:	4a46      	ldr	r2, [pc, #280]	; (80039bc <HAL_RCCEx_PeriphCLKConfig+0x224>)
 80038a2:	6cd3      	ldr	r3, [r2, #76]	; 0x4c
 80038a4:	494b      	ldr	r1, [pc, #300]	; (80039d4 <HAL_RCCEx_PeriphCLKConfig+0x23c>)
 80038a6:	400b      	ands	r3, r1
 80038a8:	6a21      	ldr	r1, [r4, #32]
 80038aa:	430b      	orrs	r3, r1
 80038ac:	64d3      	str	r3, [r2, #76]	; 0x4c
}
 80038ae:	bce0      	pop	{r5, r6, r7}
 80038b0:	46ba      	mov	sl, r7
 80038b2:	46b1      	mov	r9, r6
 80038b4:	46a8      	mov	r8, r5
 80038b6:	bdf0      	pop	{r4, r5, r6, r7, pc}
      SET_BIT(PWR->CR, PWR_CR_DBP);
 80038b8:	4a41      	ldr	r2, [pc, #260]	; (80039c0 <HAL_RCCEx_PeriphCLKConfig+0x228>)
 80038ba:	6811      	ldr	r1, [r2, #0]
 80038bc:	2380      	movs	r3, #128	; 0x80
 80038be:	005b      	lsls	r3, r3, #1
 80038c0:	430b      	orrs	r3, r1
 80038c2:	6013      	str	r3, [r2, #0]
      tickstart = HAL_GetTick();
 80038c4:	f7fe fe24 	bl	8002510 <HAL_GetTick>
 80038c8:	0006      	movs	r6, r0
      while(HAL_IS_BIT_CLR(PWR->CR, PWR_CR_DBP))
 80038ca:	4d3d      	ldr	r5, [pc, #244]	; (80039c0 <HAL_RCCEx_PeriphCLKConfig+0x228>)
 80038cc:	2780      	movs	r7, #128	; 0x80
 80038ce:	007f      	lsls	r7, r7, #1
 80038d0:	682b      	ldr	r3, [r5, #0]
 80038d2:	423b      	tst	r3, r7
 80038d4:	d000      	beq.n	80038d8 <HAL_RCCEx_PeriphCLKConfig+0x140>
 80038d6:	e77d      	b.n	80037d4 <HAL_RCCEx_PeriphCLKConfig+0x3c>
        if((HAL_GetTick() - tickstart) > RCC_DBP_TIMEOUT_VALUE)
 80038d8:	f7fe fe1a 	bl	8002510 <HAL_GetTick>
 80038dc:	1b80      	subs	r0, r0, r6
 80038de:	2864      	cmp	r0, #100	; 0x64
 80038e0:	d9f6      	bls.n	80038d0 <HAL_RCCEx_PeriphCLKConfig+0x138>
          return HAL_TIMEOUT;
 80038e2:	2003      	movs	r0, #3
 80038e4:	e7e3      	b.n	80038ae <HAL_RCCEx_PeriphCLKConfig+0x116>
     || (temp_reg != (PeriphClkInit->LCDClockSelection & RCC_CR_RTCPRE))
 80038e6:	23c0      	movs	r3, #192	; 0xc0
 80038e8:	039b      	lsls	r3, r3, #14
 80038ea:	68a0      	ldr	r0, [r4, #8]
 80038ec:	4003      	ands	r3, r0
 80038ee:	428b      	cmp	r3, r1
 80038f0:	d000      	beq.n	80038f4 <HAL_RCCEx_PeriphCLKConfig+0x15c>
 80038f2:	e779      	b.n	80037e8 <HAL_RCCEx_PeriphCLKConfig+0x50>
    temp_reg = (RCC->CSR & RCC_CSR_RTCSEL);
 80038f4:	4b31      	ldr	r3, [pc, #196]	; (80039bc <HAL_RCCEx_PeriphCLKConfig+0x224>)
 80038f6:	6d19      	ldr	r1, [r3, #80]	; 0x50
 80038f8:	23c0      	movs	r3, #192	; 0xc0
 80038fa:	029b      	lsls	r3, r3, #10
 80038fc:	0008      	movs	r0, r1
 80038fe:	4018      	ands	r0, r3
    if((temp_reg != 0x00000000U) && (((temp_reg != (PeriphClkInit->RTCClockSelection & RCC_CSR_RTCSEL)) \
 8003900:	4219      	tst	r1, r3
 8003902:	d02d      	beq.n	8003960 <HAL_RCCEx_PeriphCLKConfig+0x1c8>
 8003904:	e00b      	b.n	800391e <HAL_RCCEx_PeriphCLKConfig+0x186>
        if (HAL_IS_BIT_SET(RCC->CR, RCC_CR_HSERDY))
 8003906:	4b2d      	ldr	r3, [pc, #180]	; (80039bc <HAL_RCCEx_PeriphCLKConfig+0x224>)
 8003908:	681b      	ldr	r3, [r3, #0]
 800390a:	039b      	lsls	r3, r3, #14
 800390c:	d453      	bmi.n	80039b6 <HAL_RCCEx_PeriphCLKConfig+0x21e>
    temp_reg = (RCC->CSR & RCC_CSR_RTCSEL);
 800390e:	4b2b      	ldr	r3, [pc, #172]	; (80039bc <HAL_RCCEx_PeriphCLKConfig+0x224>)
 8003910:	6d19      	ldr	r1, [r3, #80]	; 0x50
 8003912:	23c0      	movs	r3, #192	; 0xc0
 8003914:	029b      	lsls	r3, r3, #10
 8003916:	0008      	movs	r0, r1
 8003918:	4018      	ands	r0, r3
    if((temp_reg != 0x00000000U) && (((temp_reg != (PeriphClkInit->RTCClockSelection & RCC_CSR_RTCSEL)) \
 800391a:	4219      	tst	r1, r3
 800391c:	d028      	beq.n	8003970 <HAL_RCCEx_PeriphCLKConfig+0x1d8>
 800391e:	23c0      	movs	r3, #192	; 0xc0
 8003920:	029b      	lsls	r3, r3, #10
 8003922:	401a      	ands	r2, r3
 8003924:	4282      	cmp	r2, r0
 8003926:	d002      	beq.n	800392e <HAL_RCCEx_PeriphCLKConfig+0x196>
      && (((PeriphClkInit->PeriphClockSelection) & RCC_PERIPHCLK_RTC) == RCC_PERIPHCLK_RTC))
 8003928:	6823      	ldr	r3, [r4, #0]
 800392a:	069b      	lsls	r3, r3, #26
 800392c:	d408      	bmi.n	8003940 <HAL_RCCEx_PeriphCLKConfig+0x1a8>
      || ((temp_reg != (PeriphClkInit->LCDClockSelection & RCC_CSR_RTCSEL)) \
 800392e:	23c0      	movs	r3, #192	; 0xc0
 8003930:	029b      	lsls	r3, r3, #10
 8003932:	68a2      	ldr	r2, [r4, #8]
 8003934:	4013      	ands	r3, r2
 8003936:	4283      	cmp	r3, r0
 8003938:	d012      	beq.n	8003960 <HAL_RCCEx_PeriphCLKConfig+0x1c8>
       && (((PeriphClkInit->PeriphClockSelection) & RCC_PERIPHCLK_LCD) == RCC_PERIPHCLK_LCD))
 800393a:	6823      	ldr	r3, [r4, #0]
 800393c:	051b      	lsls	r3, r3, #20
 800393e:	d50f      	bpl.n	8003960 <HAL_RCCEx_PeriphCLKConfig+0x1c8>
      temp_reg = (RCC->CSR & ~(RCC_CSR_RTCSEL));
 8003940:	4b1e      	ldr	r3, [pc, #120]	; (80039bc <HAL_RCCEx_PeriphCLKConfig+0x224>)
 8003942:	6d18      	ldr	r0, [r3, #80]	; 0x50
 8003944:	4a21      	ldr	r2, [pc, #132]	; (80039cc <HAL_RCCEx_PeriphCLKConfig+0x234>)
 8003946:	4002      	ands	r2, r0
      __HAL_RCC_BACKUPRESET_FORCE();
 8003948:	6d1e      	ldr	r6, [r3, #80]	; 0x50
 800394a:	2180      	movs	r1, #128	; 0x80
 800394c:	0309      	lsls	r1, r1, #12
 800394e:	4331      	orrs	r1, r6
 8003950:	6519      	str	r1, [r3, #80]	; 0x50
      __HAL_RCC_BACKUPRESET_RELEASE();
 8003952:	6d19      	ldr	r1, [r3, #80]	; 0x50
 8003954:	4e20      	ldr	r6, [pc, #128]	; (80039d8 <HAL_RCCEx_PeriphCLKConfig+0x240>)
 8003956:	4031      	ands	r1, r6
 8003958:	6519      	str	r1, [r3, #80]	; 0x50
      RCC->CSR = temp_reg;
 800395a:	651a      	str	r2, [r3, #80]	; 0x50
      if (HAL_IS_BIT_SET(temp_reg, RCC_CSR_LSEON))
 800395c:	05c3      	lsls	r3, r0, #23
 800395e:	d411      	bmi.n	8003984 <HAL_RCCEx_PeriphCLKConfig+0x1ec>
    __HAL_RCC_RTC_CONFIG(PeriphClkInit->RTCClockSelection);
 8003960:	6862      	ldr	r2, [r4, #4]
 8003962:	23c0      	movs	r3, #192	; 0xc0
 8003964:	029b      	lsls	r3, r3, #10
 8003966:	0011      	movs	r1, r2
 8003968:	4019      	ands	r1, r3
 800396a:	4299      	cmp	r1, r3
 800396c:	d000      	beq.n	8003970 <HAL_RCCEx_PeriphCLKConfig+0x1d8>
 800396e:	e74b      	b.n	8003808 <HAL_RCCEx_PeriphCLKConfig+0x70>
 8003970:	4812      	ldr	r0, [pc, #72]	; (80039bc <HAL_RCCEx_PeriphCLKConfig+0x224>)
 8003972:	6803      	ldr	r3, [r0, #0]
 8003974:	4919      	ldr	r1, [pc, #100]	; (80039dc <HAL_RCCEx_PeriphCLKConfig+0x244>)
 8003976:	400b      	ands	r3, r1
 8003978:	21c0      	movs	r1, #192	; 0xc0
 800397a:	0389      	lsls	r1, r1, #14
 800397c:	400a      	ands	r2, r1
 800397e:	431a      	orrs	r2, r3
 8003980:	6002      	str	r2, [r0, #0]
 8003982:	e741      	b.n	8003808 <HAL_RCCEx_PeriphCLKConfig+0x70>
        tickstart = HAL_GetTick();
 8003984:	f7fe fdc4 	bl	8002510 <HAL_GetTick>
 8003988:	0006      	movs	r6, r0
        while(__HAL_RCC_GET_FLAG(RCC_FLAG_LSERDY) == 0U)
 800398a:	4b0c      	ldr	r3, [pc, #48]	; (80039bc <HAL_RCCEx_PeriphCLKConfig+0x224>)
 800398c:	4698      	mov	r8, r3
 800398e:	2780      	movs	r7, #128	; 0x80
 8003990:	00bf      	lsls	r7, r7, #2
          if((HAL_GetTick() - tickstart ) > RCC_LSE_TIMEOUT_VALUE)
 8003992:	4b13      	ldr	r3, [pc, #76]	; (80039e0 <HAL_RCCEx_PeriphCLKConfig+0x248>)
 8003994:	4699      	mov	r9, r3
        while(__HAL_RCC_GET_FLAG(RCC_FLAG_LSERDY) == 0U)
 8003996:	4643      	mov	r3, r8
 8003998:	6d1b      	ldr	r3, [r3, #80]	; 0x50
 800399a:	423b      	tst	r3, r7
 800399c:	d1e0      	bne.n	8003960 <HAL_RCCEx_PeriphCLKConfig+0x1c8>
          if((HAL_GetTick() - tickstart ) > RCC_LSE_TIMEOUT_VALUE)
 800399e:	f7fe fdb7 	bl	8002510 <HAL_GetTick>
 80039a2:	1b80      	subs	r0, r0, r6
 80039a4:	4548      	cmp	r0, r9
 80039a6:	d9f6      	bls.n	8003996 <HAL_RCCEx_PeriphCLKConfig+0x1fe>
            return HAL_TIMEOUT;
 80039a8:	2003      	movs	r0, #3
 80039aa:	e780      	b.n	80038ae <HAL_RCCEx_PeriphCLKConfig+0x116>
      __HAL_RCC_PWR_CLK_DISABLE();
 80039ac:	6b93      	ldr	r3, [r2, #56]	; 0x38
 80039ae:	490d      	ldr	r1, [pc, #52]	; (80039e4 <HAL_RCCEx_PeriphCLKConfig+0x24c>)
 80039b0:	400b      	ands	r3, r1
 80039b2:	6393      	str	r3, [r2, #56]	; 0x38
 80039b4:	e734      	b.n	8003820 <HAL_RCCEx_PeriphCLKConfig+0x88>
          return HAL_ERROR;
 80039b6:	2001      	movs	r0, #1
 80039b8:	e779      	b.n	80038ae <HAL_RCCEx_PeriphCLKConfig+0x116>
 80039ba:	46c0      	nop			; (mov r8, r8)
 80039bc:	40021000 	.word	0x40021000
 80039c0:	40007000 	.word	0x40007000
 80039c4:	fffff3ff 	.word	0xfffff3ff
 80039c8:	ffffcfff 	.word	0xffffcfff
 80039cc:	fffcffff 	.word	0xfffcffff
 80039d0:	fbffffff 	.word	0xfbffffff
 80039d4:	fff3ffff 	.word	0xfff3ffff
 80039d8:	fff7ffff 	.word	0xfff7ffff
 80039dc:	ffcfffff 	.word	0xffcfffff
 80039e0:	00001388 	.word	0x00001388
 80039e4:	efffffff 	.word	0xefffffff

080039e8 <TIM_Base_SetConfig>:
  * @retval None
  */
static void TIM_Base_SetConfig(TIM_TypeDef *TIMx, TIM_Base_InitTypeDef *Structure)
{
  uint32_t tmpcr1;
  tmpcr1 = TIMx->CR1;
 80039e8:	6803      	ldr	r3, [r0, #0]

  /* Set TIM Time Base Unit parameters ---------------------------------------*/
  if (IS_TIM_COUNTER_MODE_SELECT_INSTANCE(TIMx))
 80039ea:	2280      	movs	r2, #128	; 0x80
 80039ec:	05d2      	lsls	r2, r2, #23
 80039ee:	4290      	cmp	r0, r2
 80039f0:	d012      	beq.n	8003a18 <TIM_Base_SetConfig+0x30>
 80039f2:	4a16      	ldr	r2, [pc, #88]	; (8003a4c <TIM_Base_SetConfig+0x64>)
 80039f4:	4290      	cmp	r0, r2
 80039f6:	d023      	beq.n	8003a40 <TIM_Base_SetConfig+0x58>
 80039f8:	4a15      	ldr	r2, [pc, #84]	; (8003a50 <TIM_Base_SetConfig+0x68>)
 80039fa:	4290      	cmp	r0, r2
 80039fc:	d007      	beq.n	8003a0e <TIM_Base_SetConfig+0x26>
 80039fe:	4a15      	ldr	r2, [pc, #84]	; (8003a54 <TIM_Base_SetConfig+0x6c>)
 8003a00:	4290      	cmp	r0, r2
 8003a02:	d111      	bne.n	8003a28 <TIM_Base_SetConfig+0x40>
  {
    /* Select the Counter Mode */
    tmpcr1 &= ~(TIM_CR1_DIR | TIM_CR1_CMS);
 8003a04:	2270      	movs	r2, #112	; 0x70
 8003a06:	4393      	bics	r3, r2
    tmpcr1 |= Structure->CounterMode;
 8003a08:	684a      	ldr	r2, [r1, #4]
 8003a0a:	4313      	orrs	r3, r2
  }

  if (IS_TIM_CLOCK_DIVISION_INSTANCE(TIMx))
 8003a0c:	e008      	b.n	8003a20 <TIM_Base_SetConfig+0x38>
    tmpcr1 &= ~(TIM_CR1_DIR | TIM_CR1_CMS);
 8003a0e:	2270      	movs	r2, #112	; 0x70
 8003a10:	4393      	bics	r3, r2
    tmpcr1 |= Structure->CounterMode;
 8003a12:	684a      	ldr	r2, [r1, #4]
 8003a14:	4313      	orrs	r3, r2
  if (IS_TIM_CLOCK_DIVISION_INSTANCE(TIMx))
 8003a16:	e003      	b.n	8003a20 <TIM_Base_SetConfig+0x38>
    tmpcr1 &= ~(TIM_CR1_DIR | TIM_CR1_CMS);
 8003a18:	2270      	movs	r2, #112	; 0x70
 8003a1a:	4393      	bics	r3, r2
    tmpcr1 |= Structure->CounterMode;
 8003a1c:	684a      	ldr	r2, [r1, #4]
 8003a1e:	4313      	orrs	r3, r2
  {
    /* Set the clock division */
    tmpcr1 &= ~TIM_CR1_CKD;
 8003a20:	4a0d      	ldr	r2, [pc, #52]	; (8003a58 <TIM_Base_SetConfig+0x70>)
 8003a22:	4013      	ands	r3, r2
    tmpcr1 |= (uint32_t)Structure->ClockDivision;
 8003a24:	68ca      	ldr	r2, [r1, #12]
 8003a26:	4313      	orrs	r3, r2
  }

  /* Set the auto-reload preload */
  MODIFY_REG(tmpcr1, TIM_CR1_ARPE, Structure->AutoReloadPreload);
 8003a28:	2280      	movs	r2, #128	; 0x80
 8003a2a:	4393      	bics	r3, r2
 8003a2c:	690a      	ldr	r2, [r1, #16]
 8003a2e:	4313      	orrs	r3, r2

  TIMx->CR1 = tmpcr1;
 8003a30:	6003      	str	r3, [r0, #0]

  /* Set the Autoreload value */
  TIMx->ARR = (uint32_t)Structure->Period ;
 8003a32:	688b      	ldr	r3, [r1, #8]
 8003a34:	62c3      	str	r3, [r0, #44]	; 0x2c

  /* Set the Prescaler value */
  TIMx->PSC = Structure->Prescaler;
 8003a36:	680b      	ldr	r3, [r1, #0]
 8003a38:	6283      	str	r3, [r0, #40]	; 0x28

  /* Generate an update event to reload the Prescaler
     and the repetition counter (only for advanced timer) value immediately */
  TIMx->EGR = TIM_EGR_UG;
 8003a3a:	2301      	movs	r3, #1
 8003a3c:	6143      	str	r3, [r0, #20]
}
 8003a3e:	4770      	bx	lr
    tmpcr1 &= ~(TIM_CR1_DIR | TIM_CR1_CMS);
 8003a40:	2270      	movs	r2, #112	; 0x70
 8003a42:	4393      	bics	r3, r2
    tmpcr1 |= Structure->CounterMode;
 8003a44:	684a      	ldr	r2, [r1, #4]
 8003a46:	4313      	orrs	r3, r2
  if (IS_TIM_CLOCK_DIVISION_INSTANCE(TIMx))
 8003a48:	e7ea      	b.n	8003a20 <TIM_Base_SetConfig+0x38>
 8003a4a:	46c0      	nop			; (mov r8, r8)
 8003a4c:	40000400 	.word	0x40000400
 8003a50:	40010800 	.word	0x40010800
 8003a54:	40011400 	.word	0x40011400
 8003a58:	fffffcff 	.word	0xfffffcff

08003a5c <TIM_OC1_SetConfig>:
  * @param  TIMx to select the TIM peripheral
  * @param  OC_Config The output configuration structure
  * @retval None
  */
static void TIM_OC1_SetConfig(TIM_TypeDef *TIMx, TIM_OC_InitTypeDef *OC_Config)
{
 8003a5c:	b530      	push	{r4, r5, lr}
  uint32_t tmpccmrx;
  uint32_t tmpccer;
  uint32_t tmpcr2;

  /* Disable the Channel 1: Reset the CC1E Bit */
  TIMx->CCER &= ~TIM_CCER_CC1E;
 8003a5e:	6a03      	ldr	r3, [r0, #32]
 8003a60:	2201      	movs	r2, #1
 8003a62:	4393      	bics	r3, r2
 8003a64:	6203      	str	r3, [r0, #32]

  /* Get the TIMx CCER register value */
  tmpccer = TIMx->CCER;
 8003a66:	6a03      	ldr	r3, [r0, #32]
  /* Get the TIMx CR2 register value */
  tmpcr2 =  TIMx->CR2;
 8003a68:	6844      	ldr	r4, [r0, #4]

  /* Get the TIMx CCMR1 register value */
  tmpccmrx = TIMx->CCMR1;
 8003a6a:	6982      	ldr	r2, [r0, #24]

  /* Reset the Output Compare Mode Bits */
  tmpccmrx &= ~TIM_CCMR1_OC1M;
  tmpccmrx &= ~TIM_CCMR1_CC1S;
 8003a6c:	2573      	movs	r5, #115	; 0x73
 8003a6e:	43aa      	bics	r2, r5
  /* Select the Output Compare Mode */
  tmpccmrx |= OC_Config->OCMode;
 8003a70:	680d      	ldr	r5, [r1, #0]
 8003a72:	432a      	orrs	r2, r5

  /* Reset the Output Polarity level */
  tmpccer &= ~TIM_CCER_CC1P;
 8003a74:	2502      	movs	r5, #2
 8003a76:	43ab      	bics	r3, r5
  /* Set the Output Compare Polarity */
  tmpccer |= OC_Config->OCPolarity;
 8003a78:	688d      	ldr	r5, [r1, #8]
 8003a7a:	432b      	orrs	r3, r5

  /* Write to TIMx CR2 */
  TIMx->CR2 = tmpcr2;
 8003a7c:	6044      	str	r4, [r0, #4]

  /* Write to TIMx CCMR1 */
  TIMx->CCMR1 = tmpccmrx;
 8003a7e:	6182      	str	r2, [r0, #24]

  /* Set the Capture Compare Register value */
  TIMx->CCR1 = OC_Config->Pulse;
 8003a80:	684a      	ldr	r2, [r1, #4]
 8003a82:	6342      	str	r2, [r0, #52]	; 0x34

  /* Write to TIMx CCER */
  TIMx->CCER = tmpccer;
 8003a84:	6203      	str	r3, [r0, #32]
}
 8003a86:	bd30      	pop	{r4, r5, pc}

08003a88 <TIM_OC2_SetConfig>:
  * @param  TIMx to select the TIM peripheral
  * @param  OC_Config The output configuration structure
  * @retval None
  */
static void TIM_OC2_SetConfig(TIM_TypeDef *TIMx, TIM_OC_InitTypeDef *OC_Config)
{
 8003a88:	b530      	push	{r4, r5, lr}
  uint32_t tmpccmrx;
  uint32_t tmpccer;
  uint32_t tmpcr2;

  /* Disable the Channel 2: Reset the CC2E Bit */
  TIMx->CCER &= ~TIM_CCER_CC2E;
 8003a8a:	6a03      	ldr	r3, [r0, #32]
 8003a8c:	2210      	movs	r2, #16
 8003a8e:	4393      	bics	r3, r2
 8003a90:	6203      	str	r3, [r0, #32]

  /* Get the TIMx CCER register value */
  tmpccer = TIMx->CCER;
 8003a92:	6a03      	ldr	r3, [r0, #32]
  /* Get the TIMx CR2 register value */
  tmpcr2 =  TIMx->CR2;
 8003a94:	6845      	ldr	r5, [r0, #4]

  /* Get the TIMx CCMR1 register value */
  tmpccmrx = TIMx->CCMR1;
 8003a96:	6982      	ldr	r2, [r0, #24]

  /* Reset the Output Compare mode and Capture/Compare selection Bits */
  tmpccmrx &= ~TIM_CCMR1_OC2M;
  tmpccmrx &= ~TIM_CCMR1_CC2S;
 8003a98:	4c08      	ldr	r4, [pc, #32]	; (8003abc <TIM_OC2_SetConfig+0x34>)
 8003a9a:	4014      	ands	r4, r2

  /* Select the Output Compare Mode */
  tmpccmrx |= (OC_Config->OCMode << 8U);
 8003a9c:	680a      	ldr	r2, [r1, #0]
 8003a9e:	0212      	lsls	r2, r2, #8
 8003aa0:	4322      	orrs	r2, r4

  /* Reset the Output Polarity level */
  tmpccer &= ~TIM_CCER_CC2P;
 8003aa2:	2420      	movs	r4, #32
 8003aa4:	43a3      	bics	r3, r4
 8003aa6:	001c      	movs	r4, r3
  /* Set the Output Compare Polarity */
  tmpccer |= (OC_Config->OCPolarity << 4U);
 8003aa8:	688b      	ldr	r3, [r1, #8]
 8003aaa:	011b      	lsls	r3, r3, #4
 8003aac:	4323      	orrs	r3, r4

  /* Write to TIMx CR2 */
  TIMx->CR2 = tmpcr2;
 8003aae:	6045      	str	r5, [r0, #4]

  /* Write to TIMx CCMR1 */
  TIMx->CCMR1 = tmpccmrx;
 8003ab0:	6182      	str	r2, [r0, #24]

  /* Set the Capture Compare Register value */
  TIMx->CCR2 = OC_Config->Pulse;
 8003ab2:	684a      	ldr	r2, [r1, #4]
 8003ab4:	6382      	str	r2, [r0, #56]	; 0x38

  /* Write to TIMx CCER */
  TIMx->CCER = tmpccer;
 8003ab6:	6203      	str	r3, [r0, #32]
}
 8003ab8:	bd30      	pop	{r4, r5, pc}
 8003aba:	46c0      	nop			; (mov r8, r8)
 8003abc:	ffff8cff 	.word	0xffff8cff

08003ac0 <TIM_SlaveTimer_SetConfig>:
  * @param  sSlaveConfig Slave timer configuration
  * @retval None
  */
static HAL_StatusTypeDef TIM_SlaveTimer_SetConfig(TIM_HandleTypeDef *htim,
                                                  TIM_SlaveConfigTypeDef *sSlaveConfig)
{
 8003ac0:	b570      	push	{r4, r5, r6, lr}
  uint32_t tmpsmcr;
  uint32_t tmpccmr1;
  uint32_t tmpccer;

  /* Get the TIMx SMCR register value */
  tmpsmcr = htim->Instance->SMCR;
 8003ac2:	6802      	ldr	r2, [r0, #0]
 8003ac4:	6893      	ldr	r3, [r2, #8]

  /* Reset the Trigger Selection Bits */
  tmpsmcr &= ~TIM_SMCR_TS;
 8003ac6:	2470      	movs	r4, #112	; 0x70
 8003ac8:	43a3      	bics	r3, r4
  /* Set the Input Trigger source */
  tmpsmcr |= sSlaveConfig->InputTrigger;
 8003aca:	684c      	ldr	r4, [r1, #4]
 8003acc:	4323      	orrs	r3, r4

  /* Reset the slave mode Bits */
  tmpsmcr &= ~TIM_SMCR_SMS;
 8003ace:	2407      	movs	r4, #7
 8003ad0:	43a3      	bics	r3, r4
  /* Set the slave mode */
  tmpsmcr |= sSlaveConfig->SlaveMode;
 8003ad2:	680c      	ldr	r4, [r1, #0]
 8003ad4:	4323      	orrs	r3, r4

  /* Write to TIMx SMCR */
  htim->Instance->SMCR = tmpsmcr;
 8003ad6:	6093      	str	r3, [r2, #8]

  /* Configure the trigger prescaler, filter, and polarity */
  switch (sSlaveConfig->InputTrigger)
 8003ad8:	684b      	ldr	r3, [r1, #4]
 8003ada:	2b50      	cmp	r3, #80	; 0x50
 8003adc:	d03a      	beq.n	8003b54 <TIM_SlaveTimer_SetConfig+0x94>
 8003ade:	d911      	bls.n	8003b04 <TIM_SlaveTimer_SetConfig+0x44>
 8003ae0:	2b60      	cmp	r3, #96	; 0x60
 8003ae2:	d04d      	beq.n	8003b80 <TIM_SlaveTimer_SetConfig+0xc0>
 8003ae4:	2b70      	cmp	r3, #112	; 0x70
 8003ae6:	d163      	bne.n	8003bb0 <TIM_SlaveTimer_SetConfig+0xf0>
      assert_param(IS_TIM_CLOCKSOURCE_ETRMODE1_INSTANCE(htim->Instance));
      assert_param(IS_TIM_TRIGGERPRESCALER(sSlaveConfig->TriggerPrescaler));
      assert_param(IS_TIM_TRIGGERPOLARITY(sSlaveConfig->TriggerPolarity));
      assert_param(IS_TIM_TRIGGERFILTER(sSlaveConfig->TriggerFilter));
      /* Configure the ETR Trigger source */
      TIM_ETR_SetConfig(htim->Instance,
 8003ae8:	6800      	ldr	r0, [r0, #0]
static void TIM_ETR_SetConfig(TIM_TypeDef *TIMx, uint32_t TIM_ExtTRGPrescaler,
                              uint32_t TIM_ExtTRGPolarity, uint32_t ExtTRGFilter)
{
  uint32_t tmpsmcr;

  tmpsmcr = TIMx->SMCR;
 8003aea:	6883      	ldr	r3, [r0, #8]

  /* Reset the ETR Bits */
  tmpsmcr &= ~(TIM_SMCR_ETF | TIM_SMCR_ETPS | TIM_SMCR_ECE | TIM_SMCR_ETP);
 8003aec:	4a32      	ldr	r2, [pc, #200]	; (8003bb8 <TIM_SlaveTimer_SetConfig+0xf8>)
 8003aee:	401a      	ands	r2, r3

  /* Set the Prescaler, the Filter value and the Polarity */
  tmpsmcr |= (uint32_t)(TIM_ExtTRGPrescaler | (TIM_ExtTRGPolarity | (ExtTRGFilter << 8U)));
 8003af0:	68cb      	ldr	r3, [r1, #12]
 8003af2:	688c      	ldr	r4, [r1, #8]
 8003af4:	4323      	orrs	r3, r4
 8003af6:	6909      	ldr	r1, [r1, #16]
 8003af8:	0209      	lsls	r1, r1, #8
 8003afa:	430b      	orrs	r3, r1
 8003afc:	4313      	orrs	r3, r2

  /* Write to TIMx SMCR */
  TIMx->SMCR = tmpsmcr;
 8003afe:	6083      	str	r3, [r0, #8]
  HAL_StatusTypeDef status = HAL_OK;
 8003b00:	2000      	movs	r0, #0
}
 8003b02:	e011      	b.n	8003b28 <TIM_SlaveTimer_SetConfig+0x68>
  switch (sSlaveConfig->InputTrigger)
 8003b04:	2b40      	cmp	r3, #64	; 0x40
 8003b06:	d010      	beq.n	8003b2a <TIM_SlaveTimer_SetConfig+0x6a>
 8003b08:	2001      	movs	r0, #1
 8003b0a:	2b40      	cmp	r3, #64	; 0x40
 8003b0c:	d80c      	bhi.n	8003b28 <TIM_SlaveTimer_SetConfig+0x68>
 8003b0e:	2b20      	cmp	r3, #32
 8003b10:	d04c      	beq.n	8003bac <TIM_SlaveTimer_SetConfig+0xec>
 8003b12:	d904      	bls.n	8003b1e <TIM_SlaveTimer_SetConfig+0x5e>
 8003b14:	3b30      	subs	r3, #48	; 0x30
 8003b16:	1e5a      	subs	r2, r3, #1
 8003b18:	4193      	sbcs	r3, r2
  HAL_StatusTypeDef status = HAL_OK;
 8003b1a:	b2d8      	uxtb	r0, r3
 8003b1c:	e004      	b.n	8003b28 <TIM_SlaveTimer_SetConfig+0x68>
  switch (sSlaveConfig->InputTrigger)
 8003b1e:	2210      	movs	r2, #16
 8003b20:	4393      	bics	r3, r2
 8003b22:	1e5a      	subs	r2, r3, #1
 8003b24:	4193      	sbcs	r3, r2
  HAL_StatusTypeDef status = HAL_OK;
 8003b26:	b2d8      	uxtb	r0, r3
}
 8003b28:	bd70      	pop	{r4, r5, r6, pc}
      if (sSlaveConfig->SlaveMode == TIM_SLAVEMODE_GATED)
 8003b2a:	680b      	ldr	r3, [r1, #0]
 8003b2c:	2b05      	cmp	r3, #5
 8003b2e:	d041      	beq.n	8003bb4 <TIM_SlaveTimer_SetConfig+0xf4>
      tmpccer = htim->Instance->CCER;
 8003b30:	6803      	ldr	r3, [r0, #0]
 8003b32:	6a1e      	ldr	r6, [r3, #32]
      htim->Instance->CCER &= ~TIM_CCER_CC1E;
 8003b34:	6a1a      	ldr	r2, [r3, #32]
 8003b36:	2401      	movs	r4, #1
 8003b38:	43a2      	bics	r2, r4
 8003b3a:	621a      	str	r2, [r3, #32]
      tmpccmr1 = htim->Instance->CCMR1;
 8003b3c:	6805      	ldr	r5, [r0, #0]
 8003b3e:	69ac      	ldr	r4, [r5, #24]
      tmpccmr1 &= ~TIM_CCMR1_IC1F;
 8003b40:	22f0      	movs	r2, #240	; 0xf0
 8003b42:	4394      	bics	r4, r2
      tmpccmr1 |= ((sSlaveConfig->TriggerFilter) << 4U);
 8003b44:	690b      	ldr	r3, [r1, #16]
 8003b46:	011b      	lsls	r3, r3, #4
 8003b48:	4323      	orrs	r3, r4
      htim->Instance->CCMR1 = tmpccmr1;
 8003b4a:	61ab      	str	r3, [r5, #24]
      htim->Instance->CCER = tmpccer;
 8003b4c:	6803      	ldr	r3, [r0, #0]
 8003b4e:	621e      	str	r6, [r3, #32]
  HAL_StatusTypeDef status = HAL_OK;
 8003b50:	2000      	movs	r0, #0
      break;
 8003b52:	e7e9      	b.n	8003b28 <TIM_SlaveTimer_SetConfig+0x68>
      TIM_TI1_ConfigInputStage(htim->Instance,
 8003b54:	6803      	ldr	r3, [r0, #0]
 8003b56:	6888      	ldr	r0, [r1, #8]
 8003b58:	6909      	ldr	r1, [r1, #16]
  tmpccer = TIMx->CCER;
 8003b5a:	6a1c      	ldr	r4, [r3, #32]
  TIMx->CCER &= ~TIM_CCER_CC1E;
 8003b5c:	6a1a      	ldr	r2, [r3, #32]
 8003b5e:	2501      	movs	r5, #1
 8003b60:	43aa      	bics	r2, r5
 8003b62:	621a      	str	r2, [r3, #32]
  tmpccmr1 = TIMx->CCMR1;
 8003b64:	699a      	ldr	r2, [r3, #24]
  tmpccmr1 &= ~TIM_CCMR1_IC1F;
 8003b66:	35ef      	adds	r5, #239	; 0xef
 8003b68:	43aa      	bics	r2, r5
 8003b6a:	0015      	movs	r5, r2
  tmpccmr1 |= (TIM_ICFilter << 4U);
 8003b6c:	010a      	lsls	r2, r1, #4
 8003b6e:	432a      	orrs	r2, r5
  tmpccer &= ~(TIM_CCER_CC1P | TIM_CCER_CC1NP);
 8003b70:	210a      	movs	r1, #10
 8003b72:	438c      	bics	r4, r1
 8003b74:	0021      	movs	r1, r4
  tmpccer |= TIM_ICPolarity;
 8003b76:	4301      	orrs	r1, r0
  TIMx->CCMR1 = tmpccmr1;
 8003b78:	619a      	str	r2, [r3, #24]
  TIMx->CCER = tmpccer;
 8003b7a:	6219      	str	r1, [r3, #32]
  HAL_StatusTypeDef status = HAL_OK;
 8003b7c:	2000      	movs	r0, #0
}
 8003b7e:	e7d3      	b.n	8003b28 <TIM_SlaveTimer_SetConfig+0x68>
      TIM_TI2_ConfigInputStage(htim->Instance,
 8003b80:	6803      	ldr	r3, [r0, #0]
 8003b82:	6888      	ldr	r0, [r1, #8]
 8003b84:	690c      	ldr	r4, [r1, #16]
  TIMx->CCER &= ~TIM_CCER_CC2E;
 8003b86:	6a1a      	ldr	r2, [r3, #32]
 8003b88:	2110      	movs	r1, #16
 8003b8a:	438a      	bics	r2, r1
 8003b8c:	621a      	str	r2, [r3, #32]
  tmpccmr1 = TIMx->CCMR1;
 8003b8e:	6999      	ldr	r1, [r3, #24]
  tmpccer = TIMx->CCER;
 8003b90:	6a1a      	ldr	r2, [r3, #32]
  tmpccmr1 &= ~TIM_CCMR1_IC2F;
 8003b92:	4d0a      	ldr	r5, [pc, #40]	; (8003bbc <TIM_SlaveTimer_SetConfig+0xfc>)
 8003b94:	400d      	ands	r5, r1
  tmpccmr1 |= (TIM_ICFilter << 12U);
 8003b96:	0321      	lsls	r1, r4, #12
 8003b98:	4329      	orrs	r1, r5
  tmpccer &= ~(TIM_CCER_CC2P | TIM_CCER_CC2NP);
 8003b9a:	24a0      	movs	r4, #160	; 0xa0
 8003b9c:	43a2      	bics	r2, r4
 8003b9e:	0014      	movs	r4, r2
  tmpccer |= (TIM_ICPolarity << 4U);
 8003ba0:	0102      	lsls	r2, r0, #4
 8003ba2:	4322      	orrs	r2, r4
  TIMx->CCMR1 = tmpccmr1 ;
 8003ba4:	6199      	str	r1, [r3, #24]
  TIMx->CCER = tmpccer;
 8003ba6:	621a      	str	r2, [r3, #32]
  HAL_StatusTypeDef status = HAL_OK;
 8003ba8:	2000      	movs	r0, #0
}
 8003baa:	e7bd      	b.n	8003b28 <TIM_SlaveTimer_SetConfig+0x68>
  HAL_StatusTypeDef status = HAL_OK;
 8003bac:	2000      	movs	r0, #0
 8003bae:	e7bb      	b.n	8003b28 <TIM_SlaveTimer_SetConfig+0x68>
  switch (sSlaveConfig->InputTrigger)
 8003bb0:	2001      	movs	r0, #1
 8003bb2:	e7b9      	b.n	8003b28 <TIM_SlaveTimer_SetConfig+0x68>
        return HAL_ERROR;
 8003bb4:	2001      	movs	r0, #1
 8003bb6:	e7b7      	b.n	8003b28 <TIM_SlaveTimer_SetConfig+0x68>
 8003bb8:	ffff00ff 	.word	0xffff00ff
 8003bbc:	ffff0fff 	.word	0xffff0fff

08003bc0 <TIM_CCxChannelCmd>:
  * @param  ChannelState specifies the TIM Channel CCxE bit new state.
  *          This parameter can be: TIM_CCx_ENABLE or TIM_CCx_DISABLE.
  * @retval None
  */
static void TIM_CCxChannelCmd(TIM_TypeDef *TIMx, uint32_t Channel, uint32_t ChannelState)
{
 8003bc0:	b510      	push	{r4, lr}

  /* Check the parameters */
  assert_param(IS_TIM_CC1_INSTANCE(TIMx));
  assert_param(IS_TIM_CHANNELS(Channel));

  tmp = TIM_CCER_CC1E << (Channel & 0x1FU); /* 0x1FU = 31 bits max shift */
 8003bc2:	231f      	movs	r3, #31
 8003bc4:	4019      	ands	r1, r3

  /* Reset the CCxE Bit */
  TIMx->CCER &= ~tmp;
 8003bc6:	6a03      	ldr	r3, [r0, #32]
  tmp = TIM_CCER_CC1E << (Channel & 0x1FU); /* 0x1FU = 31 bits max shift */
 8003bc8:	2401      	movs	r4, #1
 8003bca:	408c      	lsls	r4, r1
  TIMx->CCER &= ~tmp;
 8003bcc:	43a3      	bics	r3, r4
 8003bce:	6203      	str	r3, [r0, #32]

  /* Set or reset the CCxE Bit */
  TIMx->CCER |= (uint32_t)(ChannelState << (Channel & 0x1FU)); /* 0x1FU = 31 bits max shift */
 8003bd0:	6a03      	ldr	r3, [r0, #32]
 8003bd2:	408a      	lsls	r2, r1
 8003bd4:	431a      	orrs	r2, r3
 8003bd6:	6202      	str	r2, [r0, #32]
}
 8003bd8:	bd10      	pop	{r4, pc}

08003bda <HAL_TIM_Base_Init>:
{
 8003bda:	b570      	push	{r4, r5, r6, lr}
 8003bdc:	1e04      	subs	r4, r0, #0
  if (htim == NULL)
 8003bde:	d01e      	beq.n	8003c1e <HAL_TIM_Base_Init+0x44>
  if (htim->State == HAL_TIM_STATE_RESET)
 8003be0:	2339      	movs	r3, #57	; 0x39
 8003be2:	5cc3      	ldrb	r3, [r0, r3]
 8003be4:	2b00      	cmp	r3, #0
 8003be6:	d014      	beq.n	8003c12 <HAL_TIM_Base_Init+0x38>
  htim->State = HAL_TIM_STATE_BUSY;
 8003be8:	2539      	movs	r5, #57	; 0x39
 8003bea:	2302      	movs	r3, #2
 8003bec:	5563      	strb	r3, [r4, r5]
  TIM_Base_SetConfig(htim->Instance, &htim->Init);
 8003bee:	0021      	movs	r1, r4
 8003bf0:	c901      	ldmia	r1!, {r0}
 8003bf2:	f7ff fef9 	bl	80039e8 <TIM_Base_SetConfig>
  htim->DMABurstState = HAL_DMA_BURST_STATE_READY;
 8003bf6:	2301      	movs	r3, #1
 8003bf8:	223e      	movs	r2, #62	; 0x3e
 8003bfa:	54a3      	strb	r3, [r4, r2]
  TIM_CHANNEL_STATE_SET_ALL(htim, HAL_TIM_CHANNEL_STATE_READY);
 8003bfc:	3a04      	subs	r2, #4
 8003bfe:	54a3      	strb	r3, [r4, r2]
 8003c00:	3201      	adds	r2, #1
 8003c02:	54a3      	strb	r3, [r4, r2]
 8003c04:	3201      	adds	r2, #1
 8003c06:	54a3      	strb	r3, [r4, r2]
 8003c08:	3201      	adds	r2, #1
 8003c0a:	54a3      	strb	r3, [r4, r2]
  htim->State = HAL_TIM_STATE_READY;
 8003c0c:	5563      	strb	r3, [r4, r5]
  return HAL_OK;
 8003c0e:	2000      	movs	r0, #0
}
 8003c10:	bd70      	pop	{r4, r5, r6, pc}
    htim->Lock = HAL_UNLOCKED;
 8003c12:	3338      	adds	r3, #56	; 0x38
 8003c14:	2200      	movs	r2, #0
 8003c16:	54c2      	strb	r2, [r0, r3]
    HAL_TIM_Base_MspInit(htim);
 8003c18:	f7fe fae2 	bl	80021e0 <HAL_TIM_Base_MspInit>
 8003c1c:	e7e4      	b.n	8003be8 <HAL_TIM_Base_Init+0xe>
    return HAL_ERROR;
 8003c1e:	2001      	movs	r0, #1
 8003c20:	e7f6      	b.n	8003c10 <HAL_TIM_Base_Init+0x36>
	...

08003c24 <HAL_TIM_Base_Start_IT>:
{
 8003c24:	0003      	movs	r3, r0
  if (htim->State != HAL_TIM_STATE_READY)
 8003c26:	2239      	movs	r2, #57	; 0x39
 8003c28:	5c82      	ldrb	r2, [r0, r2]
    return HAL_ERROR;
 8003c2a:	2001      	movs	r0, #1
  if (htim->State != HAL_TIM_STATE_READY)
 8003c2c:	2a01      	cmp	r2, #1
 8003c2e:	d124      	bne.n	8003c7a <HAL_TIM_Base_Start_IT+0x56>
  htim->State = HAL_TIM_STATE_BUSY;
 8003c30:	3238      	adds	r2, #56	; 0x38
 8003c32:	2102      	movs	r1, #2
 8003c34:	5499      	strb	r1, [r3, r2]
  __HAL_TIM_ENABLE_IT(htim, TIM_IT_UPDATE);
 8003c36:	6819      	ldr	r1, [r3, #0]
 8003c38:	68ca      	ldr	r2, [r1, #12]
 8003c3a:	4302      	orrs	r2, r0
 8003c3c:	60ca      	str	r2, [r1, #12]
  if (IS_TIM_SLAVE_INSTANCE(htim->Instance))
 8003c3e:	681b      	ldr	r3, [r3, #0]
 8003c40:	2280      	movs	r2, #128	; 0x80
 8003c42:	05d2      	lsls	r2, r2, #23
 8003c44:	4293      	cmp	r3, r2
 8003c46:	d00e      	beq.n	8003c66 <HAL_TIM_Base_Start_IT+0x42>
 8003c48:	4a0d      	ldr	r2, [pc, #52]	; (8003c80 <HAL_TIM_Base_Start_IT+0x5c>)
 8003c4a:	4293      	cmp	r3, r2
 8003c4c:	d00b      	beq.n	8003c66 <HAL_TIM_Base_Start_IT+0x42>
 8003c4e:	4a0d      	ldr	r2, [pc, #52]	; (8003c84 <HAL_TIM_Base_Start_IT+0x60>)
 8003c50:	4293      	cmp	r3, r2
 8003c52:	d008      	beq.n	8003c66 <HAL_TIM_Base_Start_IT+0x42>
 8003c54:	4a0c      	ldr	r2, [pc, #48]	; (8003c88 <HAL_TIM_Base_Start_IT+0x64>)
 8003c56:	4293      	cmp	r3, r2
 8003c58:	d005      	beq.n	8003c66 <HAL_TIM_Base_Start_IT+0x42>
    __HAL_TIM_ENABLE(htim);
 8003c5a:	681a      	ldr	r2, [r3, #0]
 8003c5c:	2101      	movs	r1, #1
 8003c5e:	430a      	orrs	r2, r1
 8003c60:	601a      	str	r2, [r3, #0]
  return HAL_OK;
 8003c62:	2000      	movs	r0, #0
 8003c64:	e009      	b.n	8003c7a <HAL_TIM_Base_Start_IT+0x56>
    tmpsmcr = htim->Instance->SMCR & TIM_SMCR_SMS;
 8003c66:	6899      	ldr	r1, [r3, #8]
 8003c68:	2207      	movs	r2, #7
 8003c6a:	400a      	ands	r2, r1
    if (!IS_TIM_SLAVEMODE_TRIGGER_ENABLED(tmpsmcr))
 8003c6c:	2a06      	cmp	r2, #6
 8003c6e:	d005      	beq.n	8003c7c <HAL_TIM_Base_Start_IT+0x58>
      __HAL_TIM_ENABLE(htim);
 8003c70:	681a      	ldr	r2, [r3, #0]
 8003c72:	2101      	movs	r1, #1
 8003c74:	430a      	orrs	r2, r1
 8003c76:	601a      	str	r2, [r3, #0]
  return HAL_OK;
 8003c78:	2000      	movs	r0, #0
}
 8003c7a:	4770      	bx	lr
  return HAL_OK;
 8003c7c:	2000      	movs	r0, #0
 8003c7e:	e7fc      	b.n	8003c7a <HAL_TIM_Base_Start_IT+0x56>
 8003c80:	40000400 	.word	0x40000400
 8003c84:	40010800 	.word	0x40010800
 8003c88:	40011400 	.word	0x40011400

08003c8c <HAL_TIM_Base_Stop_IT>:
  __HAL_TIM_DISABLE_IT(htim, TIM_IT_UPDATE);
 8003c8c:	6802      	ldr	r2, [r0, #0]
 8003c8e:	68d3      	ldr	r3, [r2, #12]
 8003c90:	2101      	movs	r1, #1
 8003c92:	438b      	bics	r3, r1
 8003c94:	60d3      	str	r3, [r2, #12]
  __HAL_TIM_DISABLE(htim);
 8003c96:	6803      	ldr	r3, [r0, #0]
 8003c98:	6a19      	ldr	r1, [r3, #32]
 8003c9a:	4a06      	ldr	r2, [pc, #24]	; (8003cb4 <HAL_TIM_Base_Stop_IT+0x28>)
 8003c9c:	4211      	tst	r1, r2
 8003c9e:	d103      	bne.n	8003ca8 <HAL_TIM_Base_Stop_IT+0x1c>
 8003ca0:	681a      	ldr	r2, [r3, #0]
 8003ca2:	2101      	movs	r1, #1
 8003ca4:	438a      	bics	r2, r1
 8003ca6:	601a      	str	r2, [r3, #0]
  htim->State = HAL_TIM_STATE_READY;
 8003ca8:	2339      	movs	r3, #57	; 0x39
 8003caa:	2201      	movs	r2, #1
 8003cac:	54c2      	strb	r2, [r0, r3]
}
 8003cae:	2000      	movs	r0, #0
 8003cb0:	4770      	bx	lr
 8003cb2:	46c0      	nop			; (mov r8, r8)
 8003cb4:	00001111 	.word	0x00001111

08003cb8 <HAL_TIM_PWM_MspInit>:
}
 8003cb8:	4770      	bx	lr

08003cba <HAL_TIM_PWM_Init>:
{
 8003cba:	b570      	push	{r4, r5, r6, lr}
 8003cbc:	1e04      	subs	r4, r0, #0
  if (htim == NULL)
 8003cbe:	d01e      	beq.n	8003cfe <HAL_TIM_PWM_Init+0x44>
  if (htim->State == HAL_TIM_STATE_RESET)
 8003cc0:	2339      	movs	r3, #57	; 0x39
 8003cc2:	5cc3      	ldrb	r3, [r0, r3]
 8003cc4:	2b00      	cmp	r3, #0
 8003cc6:	d014      	beq.n	8003cf2 <HAL_TIM_PWM_Init+0x38>
  htim->State = HAL_TIM_STATE_BUSY;
 8003cc8:	2539      	movs	r5, #57	; 0x39
 8003cca:	2302      	movs	r3, #2
 8003ccc:	5563      	strb	r3, [r4, r5]
  TIM_Base_SetConfig(htim->Instance, &htim->Init);
 8003cce:	0021      	movs	r1, r4
 8003cd0:	c901      	ldmia	r1!, {r0}
 8003cd2:	f7ff fe89 	bl	80039e8 <TIM_Base_SetConfig>
  htim->DMABurstState = HAL_DMA_BURST_STATE_READY;
 8003cd6:	2301      	movs	r3, #1
 8003cd8:	223e      	movs	r2, #62	; 0x3e
 8003cda:	54a3      	strb	r3, [r4, r2]
  TIM_CHANNEL_STATE_SET_ALL(htim, HAL_TIM_CHANNEL_STATE_READY);
 8003cdc:	3a04      	subs	r2, #4
 8003cde:	54a3      	strb	r3, [r4, r2]
 8003ce0:	3201      	adds	r2, #1
 8003ce2:	54a3      	strb	r3, [r4, r2]
 8003ce4:	3201      	adds	r2, #1
 8003ce6:	54a3      	strb	r3, [r4, r2]
 8003ce8:	3201      	adds	r2, #1
 8003cea:	54a3      	strb	r3, [r4, r2]
  htim->State = HAL_TIM_STATE_READY;
 8003cec:	5563      	strb	r3, [r4, r5]
  return HAL_OK;
 8003cee:	2000      	movs	r0, #0
}
 8003cf0:	bd70      	pop	{r4, r5, r6, pc}
    htim->Lock = HAL_UNLOCKED;
 8003cf2:	3338      	adds	r3, #56	; 0x38
 8003cf4:	2200      	movs	r2, #0
 8003cf6:	54c2      	strb	r2, [r0, r3]
    HAL_TIM_PWM_MspInit(htim);
 8003cf8:	f7ff ffde 	bl	8003cb8 <HAL_TIM_PWM_MspInit>
 8003cfc:	e7e4      	b.n	8003cc8 <HAL_TIM_PWM_Init+0xe>
    return HAL_ERROR;
 8003cfe:	2001      	movs	r0, #1
 8003d00:	e7f6      	b.n	8003cf0 <HAL_TIM_PWM_Init+0x36>
	...

08003d04 <HAL_TIM_Encoder_Init>:
{
 8003d04:	b5f0      	push	{r4, r5, r6, r7, lr}
 8003d06:	46c6      	mov	lr, r8
 8003d08:	b500      	push	{lr}
 8003d0a:	0004      	movs	r4, r0
 8003d0c:	000d      	movs	r5, r1
  if (htim == NULL)
 8003d0e:	2800      	cmp	r0, #0
 8003d10:	d04a      	beq.n	8003da8 <HAL_TIM_Encoder_Init+0xa4>
  if (htim->State == HAL_TIM_STATE_RESET)
 8003d12:	2339      	movs	r3, #57	; 0x39
 8003d14:	5cc3      	ldrb	r3, [r0, r3]
 8003d16:	2b00      	cmp	r3, #0
 8003d18:	d040      	beq.n	8003d9c <HAL_TIM_Encoder_Init+0x98>
  htim->State = HAL_TIM_STATE_BUSY;
 8003d1a:	2639      	movs	r6, #57	; 0x39
 8003d1c:	2302      	movs	r3, #2
 8003d1e:	55a3      	strb	r3, [r4, r6]
  htim->Instance->SMCR &= ~(TIM_SMCR_SMS | TIM_SMCR_ECE);
 8003d20:	6822      	ldr	r2, [r4, #0]
 8003d22:	6893      	ldr	r3, [r2, #8]
 8003d24:	4921      	ldr	r1, [pc, #132]	; (8003dac <HAL_TIM_Encoder_Init+0xa8>)
 8003d26:	400b      	ands	r3, r1
 8003d28:	6093      	str	r3, [r2, #8]
  TIM_Base_SetConfig(htim->Instance, &htim->Init);
 8003d2a:	0021      	movs	r1, r4
 8003d2c:	c901      	ldmia	r1!, {r0}
 8003d2e:	f7ff fe5b 	bl	80039e8 <TIM_Base_SetConfig>
  tmpsmcr = htim->Instance->SMCR;
 8003d32:	6821      	ldr	r1, [r4, #0]
 8003d34:	6888      	ldr	r0, [r1, #8]
  tmpccmr1 = htim->Instance->CCMR1;
 8003d36:	698a      	ldr	r2, [r1, #24]
  tmpccer = htim->Instance->CCER;
 8003d38:	6a0f      	ldr	r7, [r1, #32]
  tmpsmcr |= sConfig->EncoderMode;
 8003d3a:	682b      	ldr	r3, [r5, #0]
 8003d3c:	4318      	orrs	r0, r3
 8003d3e:	4680      	mov	r8, r0
  tmpccmr1 &= ~(TIM_CCMR1_CC1S | TIM_CCMR1_CC2S);
 8003d40:	4b1b      	ldr	r3, [pc, #108]	; (8003db0 <HAL_TIM_Encoder_Init+0xac>)
 8003d42:	401a      	ands	r2, r3
  tmpccmr1 |= (sConfig->IC1Selection | (sConfig->IC2Selection << 8U));
 8003d44:	69ab      	ldr	r3, [r5, #24]
 8003d46:	021b      	lsls	r3, r3, #8
 8003d48:	68a8      	ldr	r0, [r5, #8]
 8003d4a:	4303      	orrs	r3, r0
 8003d4c:	4313      	orrs	r3, r2
  tmpccmr1 &= ~(TIM_CCMR1_IC1F | TIM_CCMR1_IC2F);
 8003d4e:	4a19      	ldr	r2, [pc, #100]	; (8003db4 <HAL_TIM_Encoder_Init+0xb0>)
 8003d50:	401a      	ands	r2, r3
  tmpccmr1 |= sConfig->IC1Prescaler | (sConfig->IC2Prescaler << 8U);
 8003d52:	69eb      	ldr	r3, [r5, #28]
 8003d54:	021b      	lsls	r3, r3, #8
  tmpccmr1 |= (sConfig->IC1Filter << 4U) | (sConfig->IC2Filter << 12U);
 8003d56:	6928      	ldr	r0, [r5, #16]
 8003d58:	0100      	lsls	r0, r0, #4
 8003d5a:	4303      	orrs	r3, r0
 8003d5c:	68e8      	ldr	r0, [r5, #12]
 8003d5e:	4303      	orrs	r3, r0
 8003d60:	6a28      	ldr	r0, [r5, #32]
 8003d62:	0300      	lsls	r0, r0, #12
 8003d64:	4303      	orrs	r3, r0
 8003d66:	4313      	orrs	r3, r2
  tmpccer &= ~(TIM_CCER_CC1NP | TIM_CCER_CC2NP);
 8003d68:	22aa      	movs	r2, #170	; 0xaa
 8003d6a:	4397      	bics	r7, r2
 8003d6c:	003a      	movs	r2, r7
  tmpccer |= sConfig->IC1Polarity | (sConfig->IC2Polarity << 4U);
 8003d6e:	6968      	ldr	r0, [r5, #20]
 8003d70:	0107      	lsls	r7, r0, #4
 8003d72:	686d      	ldr	r5, [r5, #4]
 8003d74:	432f      	orrs	r7, r5
 8003d76:	4317      	orrs	r7, r2
  htim->Instance->SMCR = tmpsmcr;
 8003d78:	4642      	mov	r2, r8
 8003d7a:	608a      	str	r2, [r1, #8]
  htim->Instance->CCMR1 = tmpccmr1;
 8003d7c:	6822      	ldr	r2, [r4, #0]
 8003d7e:	6193      	str	r3, [r2, #24]
  htim->Instance->CCER = tmpccer;
 8003d80:	6823      	ldr	r3, [r4, #0]
 8003d82:	621f      	str	r7, [r3, #32]
  htim->DMABurstState = HAL_DMA_BURST_STATE_READY;
 8003d84:	2301      	movs	r3, #1
 8003d86:	223e      	movs	r2, #62	; 0x3e
 8003d88:	54a3      	strb	r3, [r4, r2]
  TIM_CHANNEL_STATE_SET(htim, TIM_CHANNEL_1, HAL_TIM_CHANNEL_STATE_READY);
 8003d8a:	3a04      	subs	r2, #4
 8003d8c:	54a3      	strb	r3, [r4, r2]
  TIM_CHANNEL_STATE_SET(htim, TIM_CHANNEL_2, HAL_TIM_CHANNEL_STATE_READY);
 8003d8e:	3201      	adds	r2, #1
 8003d90:	54a3      	strb	r3, [r4, r2]
  htim->State = HAL_TIM_STATE_READY;
 8003d92:	55a3      	strb	r3, [r4, r6]
  return HAL_OK;
 8003d94:	2000      	movs	r0, #0
}
 8003d96:	bc80      	pop	{r7}
 8003d98:	46b8      	mov	r8, r7
 8003d9a:	bdf0      	pop	{r4, r5, r6, r7, pc}
    htim->Lock = HAL_UNLOCKED;
 8003d9c:	3338      	adds	r3, #56	; 0x38
 8003d9e:	2200      	movs	r2, #0
 8003da0:	54c2      	strb	r2, [r0, r3]
    HAL_TIM_Encoder_MspInit(htim);
 8003da2:	f7fe f9ed 	bl	8002180 <HAL_TIM_Encoder_MspInit>
 8003da6:	e7b8      	b.n	8003d1a <HAL_TIM_Encoder_Init+0x16>
    return HAL_ERROR;
 8003da8:	2001      	movs	r0, #1
 8003daa:	e7f4      	b.n	8003d96 <HAL_TIM_Encoder_Init+0x92>
 8003dac:	ffffbff8 	.word	0xffffbff8
 8003db0:	fffffcfc 	.word	0xfffffcfc
 8003db4:	ffff0303 	.word	0xffff0303

08003db8 <HAL_TIM_Encoder_Start_IT>:
{
 8003db8:	b570      	push	{r4, r5, r6, lr}
 8003dba:	0004      	movs	r4, r0
  HAL_TIM_ChannelStateTypeDef channel_1_state = TIM_CHANNEL_STATE_GET(htim, TIM_CHANNEL_1);
 8003dbc:	233a      	movs	r3, #58	; 0x3a
 8003dbe:	5cc0      	ldrb	r0, [r0, r3]
 8003dc0:	b2c0      	uxtb	r0, r0
  HAL_TIM_ChannelStateTypeDef channel_2_state = TIM_CHANNEL_STATE_GET(htim, TIM_CHANNEL_2);
 8003dc2:	3301      	adds	r3, #1
 8003dc4:	5ce3      	ldrb	r3, [r4, r3]
 8003dc6:	b2db      	uxtb	r3, r3
  if (Channel == TIM_CHANNEL_1)
 8003dc8:	2900      	cmp	r1, #0
 8003dca:	d113      	bne.n	8003df4 <HAL_TIM_Encoder_Start_IT+0x3c>
    if (channel_1_state != HAL_TIM_CHANNEL_STATE_READY)
 8003dcc:	2801      	cmp	r0, #1
 8003dce:	d140      	bne.n	8003e52 <HAL_TIM_Encoder_Start_IT+0x9a>
      TIM_CHANNEL_STATE_SET(htim, TIM_CHANNEL_1, HAL_TIM_CHANNEL_STATE_BUSY);
 8003dd0:	2502      	movs	r5, #2
 8003dd2:	233a      	movs	r3, #58	; 0x3a
 8003dd4:	54e5      	strb	r5, [r4, r3]
      TIM_CCxChannelCmd(htim->Instance, TIM_CHANNEL_1, TIM_CCx_ENABLE);
 8003dd6:	2201      	movs	r2, #1
 8003dd8:	6820      	ldr	r0, [r4, #0]
 8003dda:	f7ff fef1 	bl	8003bc0 <TIM_CCxChannelCmd>
      __HAL_TIM_ENABLE_IT(htim, TIM_IT_CC1);
 8003dde:	6822      	ldr	r2, [r4, #0]
 8003de0:	68d3      	ldr	r3, [r2, #12]
 8003de2:	432b      	orrs	r3, r5
 8003de4:	60d3      	str	r3, [r2, #12]
  __HAL_TIM_ENABLE(htim);
 8003de6:	6822      	ldr	r2, [r4, #0]
 8003de8:	6813      	ldr	r3, [r2, #0]
 8003dea:	2101      	movs	r1, #1
 8003dec:	430b      	orrs	r3, r1
 8003dee:	6013      	str	r3, [r2, #0]
  return HAL_OK;
 8003df0:	2000      	movs	r0, #0
}
 8003df2:	bd70      	pop	{r4, r5, r6, pc}
  else if (Channel == TIM_CHANNEL_2)
 8003df4:	2904      	cmp	r1, #4
 8003df6:	d01c      	beq.n	8003e32 <HAL_TIM_Encoder_Start_IT+0x7a>
    if ((channel_1_state != HAL_TIM_CHANNEL_STATE_READY)
 8003df8:	2801      	cmp	r0, #1
 8003dfa:	d12c      	bne.n	8003e56 <HAL_TIM_Encoder_Start_IT+0x9e>
        || (channel_2_state != HAL_TIM_CHANNEL_STATE_READY))
 8003dfc:	2b01      	cmp	r3, #1
 8003dfe:	d1f8      	bne.n	8003df2 <HAL_TIM_Encoder_Start_IT+0x3a>
      TIM_CHANNEL_STATE_SET(htim, TIM_CHANNEL_1, HAL_TIM_CHANNEL_STATE_BUSY);
 8003e00:	2502      	movs	r5, #2
 8003e02:	3339      	adds	r3, #57	; 0x39
 8003e04:	54e5      	strb	r5, [r4, r3]
      TIM_CHANNEL_STATE_SET(htim, TIM_CHANNEL_2, HAL_TIM_CHANNEL_STATE_BUSY);
 8003e06:	3301      	adds	r3, #1
 8003e08:	54e5      	strb	r5, [r4, r3]
      TIM_CCxChannelCmd(htim->Instance, TIM_CHANNEL_1, TIM_CCx_ENABLE);
 8003e0a:	2201      	movs	r2, #1
 8003e0c:	2100      	movs	r1, #0
 8003e0e:	6820      	ldr	r0, [r4, #0]
 8003e10:	f7ff fed6 	bl	8003bc0 <TIM_CCxChannelCmd>
      TIM_CCxChannelCmd(htim->Instance, TIM_CHANNEL_2, TIM_CCx_ENABLE);
 8003e14:	2201      	movs	r2, #1
 8003e16:	2104      	movs	r1, #4
 8003e18:	6820      	ldr	r0, [r4, #0]
 8003e1a:	f7ff fed1 	bl	8003bc0 <TIM_CCxChannelCmd>
      __HAL_TIM_ENABLE_IT(htim, TIM_IT_CC1);
 8003e1e:	6822      	ldr	r2, [r4, #0]
 8003e20:	68d3      	ldr	r3, [r2, #12]
 8003e22:	432b      	orrs	r3, r5
 8003e24:	60d3      	str	r3, [r2, #12]
      __HAL_TIM_ENABLE_IT(htim, TIM_IT_CC2);
 8003e26:	6822      	ldr	r2, [r4, #0]
 8003e28:	68d3      	ldr	r3, [r2, #12]
 8003e2a:	2104      	movs	r1, #4
 8003e2c:	430b      	orrs	r3, r1
 8003e2e:	60d3      	str	r3, [r2, #12]
      break;
 8003e30:	e7d9      	b.n	8003de6 <HAL_TIM_Encoder_Start_IT+0x2e>
      return HAL_ERROR;
 8003e32:	2001      	movs	r0, #1
    if (channel_2_state != HAL_TIM_CHANNEL_STATE_READY)
 8003e34:	2b01      	cmp	r3, #1
 8003e36:	d1dc      	bne.n	8003df2 <HAL_TIM_Encoder_Start_IT+0x3a>
      TIM_CHANNEL_STATE_SET(htim, TIM_CHANNEL_2, HAL_TIM_CHANNEL_STATE_BUSY);
 8003e38:	333a      	adds	r3, #58	; 0x3a
 8003e3a:	2202      	movs	r2, #2
 8003e3c:	54e2      	strb	r2, [r4, r3]
      TIM_CCxChannelCmd(htim->Instance, TIM_CHANNEL_2, TIM_CCx_ENABLE);
 8003e3e:	3a01      	subs	r2, #1
 8003e40:	6820      	ldr	r0, [r4, #0]
 8003e42:	f7ff febd 	bl	8003bc0 <TIM_CCxChannelCmd>
      __HAL_TIM_ENABLE_IT(htim, TIM_IT_CC2);
 8003e46:	6822      	ldr	r2, [r4, #0]
 8003e48:	68d3      	ldr	r3, [r2, #12]
 8003e4a:	2104      	movs	r1, #4
 8003e4c:	430b      	orrs	r3, r1
 8003e4e:	60d3      	str	r3, [r2, #12]
      break;
 8003e50:	e7c9      	b.n	8003de6 <HAL_TIM_Encoder_Start_IT+0x2e>
      return HAL_ERROR;
 8003e52:	2001      	movs	r0, #1
 8003e54:	e7cd      	b.n	8003df2 <HAL_TIM_Encoder_Start_IT+0x3a>
      return HAL_ERROR;
 8003e56:	2001      	movs	r0, #1
 8003e58:	e7cb      	b.n	8003df2 <HAL_TIM_Encoder_Start_IT+0x3a>
	...

08003e5c <HAL_TIM_PWM_ConfigChannel>:
{
 8003e5c:	b570      	push	{r4, r5, r6, lr}
 8003e5e:	0004      	movs	r4, r0
 8003e60:	000d      	movs	r5, r1
  __HAL_LOCK(htim);
 8003e62:	2338      	movs	r3, #56	; 0x38
 8003e64:	5cc3      	ldrb	r3, [r0, r3]
 8003e66:	2b01      	cmp	r3, #1
 8003e68:	d100      	bne.n	8003e6c <HAL_TIM_PWM_ConfigChannel+0x10>
 8003e6a:	e08d      	b.n	8003f88 <HAL_TIM_PWM_ConfigChannel+0x12c>
 8003e6c:	2338      	movs	r3, #56	; 0x38
 8003e6e:	2101      	movs	r1, #1
 8003e70:	54c1      	strb	r1, [r0, r3]
  switch (Channel)
 8003e72:	2a08      	cmp	r2, #8
 8003e74:	d061      	beq.n	8003f3a <HAL_TIM_PWM_ConfigChannel+0xde>
 8003e76:	d81b      	bhi.n	8003eb0 <HAL_TIM_PWM_ConfigChannel+0x54>
 8003e78:	2a00      	cmp	r2, #0
 8003e7a:	d046      	beq.n	8003f0a <HAL_TIM_PWM_ConfigChannel+0xae>
 8003e7c:	0008      	movs	r0, r1
 8003e7e:	2a04      	cmp	r2, #4
 8003e80:	d157      	bne.n	8003f32 <HAL_TIM_PWM_ConfigChannel+0xd6>
      TIM_OC2_SetConfig(htim->Instance, sConfig);
 8003e82:	0029      	movs	r1, r5
 8003e84:	6820      	ldr	r0, [r4, #0]
 8003e86:	f7ff fdff 	bl	8003a88 <TIM_OC2_SetConfig>
      htim->Instance->CCMR1 |= TIM_CCMR1_OC2PE;
 8003e8a:	6822      	ldr	r2, [r4, #0]
 8003e8c:	6991      	ldr	r1, [r2, #24]
 8003e8e:	2380      	movs	r3, #128	; 0x80
 8003e90:	011b      	lsls	r3, r3, #4
 8003e92:	430b      	orrs	r3, r1
 8003e94:	6193      	str	r3, [r2, #24]
      htim->Instance->CCMR1 &= ~TIM_CCMR1_OC2FE;
 8003e96:	6822      	ldr	r2, [r4, #0]
 8003e98:	6993      	ldr	r3, [r2, #24]
 8003e9a:	493c      	ldr	r1, [pc, #240]	; (8003f8c <HAL_TIM_PWM_ConfigChannel+0x130>)
 8003e9c:	400b      	ands	r3, r1
 8003e9e:	6193      	str	r3, [r2, #24]
      htim->Instance->CCMR1 |= sConfig->OCFastMode << 8U;
 8003ea0:	6822      	ldr	r2, [r4, #0]
 8003ea2:	6991      	ldr	r1, [r2, #24]
 8003ea4:	68eb      	ldr	r3, [r5, #12]
 8003ea6:	021b      	lsls	r3, r3, #8
 8003ea8:	430b      	orrs	r3, r1
 8003eaa:	6193      	str	r3, [r2, #24]
  HAL_StatusTypeDef status = HAL_OK;
 8003eac:	2000      	movs	r0, #0
      break;
 8003eae:	e040      	b.n	8003f32 <HAL_TIM_PWM_ConfigChannel+0xd6>
  switch (Channel)
 8003eb0:	2001      	movs	r0, #1
 8003eb2:	2a0c      	cmp	r2, #12
 8003eb4:	d13d      	bne.n	8003f32 <HAL_TIM_PWM_ConfigChannel+0xd6>
      TIM_OC4_SetConfig(htim->Instance, sConfig);
 8003eb6:	6823      	ldr	r3, [r4, #0]
  TIMx->CCER &= ~TIM_CCER_CC4E;
 8003eb8:	6a1a      	ldr	r2, [r3, #32]
 8003eba:	4935      	ldr	r1, [pc, #212]	; (8003f90 <HAL_TIM_PWM_ConfigChannel+0x134>)
 8003ebc:	400a      	ands	r2, r1
 8003ebe:	621a      	str	r2, [r3, #32]
  tmpccer = TIMx->CCER;
 8003ec0:	6a1a      	ldr	r2, [r3, #32]
  tmpcr2 =  TIMx->CR2;
 8003ec2:	685e      	ldr	r6, [r3, #4]
  tmpccmrx = TIMx->CCMR2;
 8003ec4:	69d9      	ldr	r1, [r3, #28]
  tmpccmrx &= ~TIM_CCMR2_CC4S;
 8003ec6:	4833      	ldr	r0, [pc, #204]	; (8003f94 <HAL_TIM_PWM_ConfigChannel+0x138>)
 8003ec8:	4008      	ands	r0, r1
  tmpccmrx |= (OC_Config->OCMode << 8U);
 8003eca:	6829      	ldr	r1, [r5, #0]
 8003ecc:	0209      	lsls	r1, r1, #8
 8003ece:	4301      	orrs	r1, r0
  tmpccer &= ~TIM_CCER_CC4P;
 8003ed0:	4831      	ldr	r0, [pc, #196]	; (8003f98 <HAL_TIM_PWM_ConfigChannel+0x13c>)
 8003ed2:	4010      	ands	r0, r2
  tmpccer |= (OC_Config->OCPolarity << 12U);
 8003ed4:	68aa      	ldr	r2, [r5, #8]
 8003ed6:	0312      	lsls	r2, r2, #12
 8003ed8:	4302      	orrs	r2, r0
  TIMx->CR2 = tmpcr2;
 8003eda:	605e      	str	r6, [r3, #4]
  TIMx->CCMR2 = tmpccmrx;
 8003edc:	61d9      	str	r1, [r3, #28]
  TIMx->CCR4 = OC_Config->Pulse;
 8003ede:	6869      	ldr	r1, [r5, #4]
 8003ee0:	6419      	str	r1, [r3, #64]	; 0x40
  TIMx->CCER = tmpccer;
 8003ee2:	621a      	str	r2, [r3, #32]
      htim->Instance->CCMR2 |= TIM_CCMR2_OC4PE;
 8003ee4:	6822      	ldr	r2, [r4, #0]
 8003ee6:	69d1      	ldr	r1, [r2, #28]
 8003ee8:	2380      	movs	r3, #128	; 0x80
 8003eea:	011b      	lsls	r3, r3, #4
 8003eec:	430b      	orrs	r3, r1
 8003eee:	61d3      	str	r3, [r2, #28]
      htim->Instance->CCMR2 &= ~TIM_CCMR2_OC4FE;
 8003ef0:	6822      	ldr	r2, [r4, #0]
 8003ef2:	69d3      	ldr	r3, [r2, #28]
 8003ef4:	4925      	ldr	r1, [pc, #148]	; (8003f8c <HAL_TIM_PWM_ConfigChannel+0x130>)
 8003ef6:	400b      	ands	r3, r1
 8003ef8:	61d3      	str	r3, [r2, #28]
      htim->Instance->CCMR2 |= sConfig->OCFastMode << 8U;
 8003efa:	6822      	ldr	r2, [r4, #0]
 8003efc:	69d1      	ldr	r1, [r2, #28]
 8003efe:	68eb      	ldr	r3, [r5, #12]
 8003f00:	021b      	lsls	r3, r3, #8
 8003f02:	430b      	orrs	r3, r1
 8003f04:	61d3      	str	r3, [r2, #28]
  HAL_StatusTypeDef status = HAL_OK;
 8003f06:	2000      	movs	r0, #0
      break;
 8003f08:	e013      	b.n	8003f32 <HAL_TIM_PWM_ConfigChannel+0xd6>
      TIM_OC1_SetConfig(htim->Instance, sConfig);
 8003f0a:	0029      	movs	r1, r5
 8003f0c:	6800      	ldr	r0, [r0, #0]
 8003f0e:	f7ff fda5 	bl	8003a5c <TIM_OC1_SetConfig>
      htim->Instance->CCMR1 |= TIM_CCMR1_OC1PE;
 8003f12:	6822      	ldr	r2, [r4, #0]
 8003f14:	6993      	ldr	r3, [r2, #24]
 8003f16:	2108      	movs	r1, #8
 8003f18:	430b      	orrs	r3, r1
 8003f1a:	6193      	str	r3, [r2, #24]
      htim->Instance->CCMR1 &= ~TIM_CCMR1_OC1FE;
 8003f1c:	6822      	ldr	r2, [r4, #0]
 8003f1e:	6993      	ldr	r3, [r2, #24]
 8003f20:	3904      	subs	r1, #4
 8003f22:	438b      	bics	r3, r1
 8003f24:	6193      	str	r3, [r2, #24]
      htim->Instance->CCMR1 |= sConfig->OCFastMode;
 8003f26:	6822      	ldr	r2, [r4, #0]
 8003f28:	6993      	ldr	r3, [r2, #24]
 8003f2a:	68e9      	ldr	r1, [r5, #12]
 8003f2c:	430b      	orrs	r3, r1
 8003f2e:	6193      	str	r3, [r2, #24]
  HAL_StatusTypeDef status = HAL_OK;
 8003f30:	2000      	movs	r0, #0
  __HAL_UNLOCK(htim);
 8003f32:	2338      	movs	r3, #56	; 0x38
 8003f34:	2200      	movs	r2, #0
 8003f36:	54e2      	strb	r2, [r4, r3]
}
 8003f38:	bd70      	pop	{r4, r5, r6, pc}
      TIM_OC3_SetConfig(htim->Instance, sConfig);
 8003f3a:	6803      	ldr	r3, [r0, #0]
  TIMx->CCER &= ~TIM_CCER_CC3E;
 8003f3c:	6a1a      	ldr	r2, [r3, #32]
 8003f3e:	4917      	ldr	r1, [pc, #92]	; (8003f9c <HAL_TIM_PWM_ConfigChannel+0x140>)
 8003f40:	400a      	ands	r2, r1
 8003f42:	621a      	str	r2, [r3, #32]
  tmpccer = TIMx->CCER;
 8003f44:	6a1a      	ldr	r2, [r3, #32]
  tmpcr2 =  TIMx->CR2;
 8003f46:	685e      	ldr	r6, [r3, #4]
  tmpccmrx = TIMx->CCMR2;
 8003f48:	69d9      	ldr	r1, [r3, #28]
  tmpccmrx &= ~TIM_CCMR2_CC3S;
 8003f4a:	2073      	movs	r0, #115	; 0x73
 8003f4c:	4381      	bics	r1, r0
  tmpccmrx |= OC_Config->OCMode;
 8003f4e:	6828      	ldr	r0, [r5, #0]
 8003f50:	4301      	orrs	r1, r0
  tmpccer &= ~TIM_CCER_CC3P;
 8003f52:	4813      	ldr	r0, [pc, #76]	; (8003fa0 <HAL_TIM_PWM_ConfigChannel+0x144>)
 8003f54:	4010      	ands	r0, r2
  tmpccer |= (OC_Config->OCPolarity << 8U);
 8003f56:	68aa      	ldr	r2, [r5, #8]
 8003f58:	0212      	lsls	r2, r2, #8
 8003f5a:	4302      	orrs	r2, r0
  TIMx->CR2 = tmpcr2;
 8003f5c:	605e      	str	r6, [r3, #4]
  TIMx->CCMR2 = tmpccmrx;
 8003f5e:	61d9      	str	r1, [r3, #28]
  TIMx->CCR3 = OC_Config->Pulse;
 8003f60:	6869      	ldr	r1, [r5, #4]
 8003f62:	63d9      	str	r1, [r3, #60]	; 0x3c
  TIMx->CCER = tmpccer;
 8003f64:	621a      	str	r2, [r3, #32]
      htim->Instance->CCMR2 |= TIM_CCMR2_OC3PE;
 8003f66:	6822      	ldr	r2, [r4, #0]
 8003f68:	69d3      	ldr	r3, [r2, #28]
 8003f6a:	2108      	movs	r1, #8
 8003f6c:	430b      	orrs	r3, r1
 8003f6e:	61d3      	str	r3, [r2, #28]
      htim->Instance->CCMR2 &= ~TIM_CCMR2_OC3FE;
 8003f70:	6822      	ldr	r2, [r4, #0]
 8003f72:	69d3      	ldr	r3, [r2, #28]
 8003f74:	3904      	subs	r1, #4
 8003f76:	438b      	bics	r3, r1
 8003f78:	61d3      	str	r3, [r2, #28]
      htim->Instance->CCMR2 |= sConfig->OCFastMode;
 8003f7a:	6822      	ldr	r2, [r4, #0]
 8003f7c:	69d3      	ldr	r3, [r2, #28]
 8003f7e:	68e9      	ldr	r1, [r5, #12]
 8003f80:	430b      	orrs	r3, r1
 8003f82:	61d3      	str	r3, [r2, #28]
  HAL_StatusTypeDef status = HAL_OK;
 8003f84:	2000      	movs	r0, #0
      break;
 8003f86:	e7d4      	b.n	8003f32 <HAL_TIM_PWM_ConfigChannel+0xd6>
  __HAL_LOCK(htim);
 8003f88:	2002      	movs	r0, #2
 8003f8a:	e7d5      	b.n	8003f38 <HAL_TIM_PWM_ConfigChannel+0xdc>
 8003f8c:	fffffbff 	.word	0xfffffbff
 8003f90:	ffffefff 	.word	0xffffefff
 8003f94:	ffff8cff 	.word	0xffff8cff
 8003f98:	ffffdfff 	.word	0xffffdfff
 8003f9c:	fffffeff 	.word	0xfffffeff
 8003fa0:	fffffdff 	.word	0xfffffdff

08003fa4 <HAL_TIM_ConfigClockSource>:
{
 8003fa4:	b570      	push	{r4, r5, r6, lr}
 8003fa6:	0002      	movs	r2, r0
  __HAL_LOCK(htim);
 8003fa8:	2338      	movs	r3, #56	; 0x38
 8003faa:	5cc3      	ldrb	r3, [r0, r3]
 8003fac:	2b01      	cmp	r3, #1
 8003fae:	d100      	bne.n	8003fb2 <HAL_TIM_ConfigClockSource+0xe>
 8003fb0:	e0c0      	b.n	8004134 <HAL_TIM_ConfigClockSource+0x190>
 8003fb2:	2338      	movs	r3, #56	; 0x38
 8003fb4:	2001      	movs	r0, #1
 8003fb6:	54d0      	strb	r0, [r2, r3]
  htim->State = HAL_TIM_STATE_BUSY;
 8003fb8:	3301      	adds	r3, #1
 8003fba:	3001      	adds	r0, #1
 8003fbc:	54d0      	strb	r0, [r2, r3]
  tmpsmcr = htim->Instance->SMCR;
 8003fbe:	6810      	ldr	r0, [r2, #0]
 8003fc0:	6883      	ldr	r3, [r0, #8]
  tmpsmcr &= ~(TIM_SMCR_ETF | TIM_SMCR_ETPS | TIM_SMCR_ECE | TIM_SMCR_ETP);
 8003fc2:	4c5d      	ldr	r4, [pc, #372]	; (8004138 <HAL_TIM_ConfigClockSource+0x194>)
 8003fc4:	4023      	ands	r3, r4
  htim->Instance->SMCR = tmpsmcr;
 8003fc6:	6083      	str	r3, [r0, #8]
  switch (sClockSourceConfig->ClockSource)
 8003fc8:	680b      	ldr	r3, [r1, #0]
 8003fca:	2b60      	cmp	r3, #96	; 0x60
 8003fcc:	d100      	bne.n	8003fd0 <HAL_TIM_ConfigClockSource+0x2c>
 8003fce:	e073      	b.n	80040b8 <HAL_TIM_ConfigClockSource+0x114>
 8003fd0:	d841      	bhi.n	8004056 <HAL_TIM_ConfigClockSource+0xb2>
 8003fd2:	2b40      	cmp	r3, #64	; 0x40
 8003fd4:	d100      	bne.n	8003fd8 <HAL_TIM_ConfigClockSource+0x34>
 8003fd6:	e08c      	b.n	80040f2 <HAL_TIM_ConfigClockSource+0x14e>
 8003fd8:	d91f      	bls.n	800401a <HAL_TIM_ConfigClockSource+0x76>
 8003fda:	2001      	movs	r0, #1
 8003fdc:	2b50      	cmp	r3, #80	; 0x50
 8003fde:	d133      	bne.n	8004048 <HAL_TIM_ConfigClockSource+0xa4>
      TIM_TI1_ConfigInputStage(htim->Instance,
 8003fe0:	6813      	ldr	r3, [r2, #0]
 8003fe2:	684c      	ldr	r4, [r1, #4]
 8003fe4:	68c8      	ldr	r0, [r1, #12]
  tmpccer = TIMx->CCER;
 8003fe6:	6a1d      	ldr	r5, [r3, #32]
  TIMx->CCER &= ~TIM_CCER_CC1E;
 8003fe8:	6a19      	ldr	r1, [r3, #32]
 8003fea:	2601      	movs	r6, #1
 8003fec:	43b1      	bics	r1, r6
 8003fee:	6219      	str	r1, [r3, #32]
  tmpccmr1 = TIMx->CCMR1;
 8003ff0:	6999      	ldr	r1, [r3, #24]
  tmpccmr1 &= ~TIM_CCMR1_IC1F;
 8003ff2:	36ef      	adds	r6, #239	; 0xef
 8003ff4:	43b1      	bics	r1, r6
 8003ff6:	000e      	movs	r6, r1
  tmpccmr1 |= (TIM_ICFilter << 4U);
 8003ff8:	0101      	lsls	r1, r0, #4
 8003ffa:	4331      	orrs	r1, r6
  tmpccer &= ~(TIM_CCER_CC1P | TIM_CCER_CC1NP);
 8003ffc:	200a      	movs	r0, #10
 8003ffe:	4385      	bics	r5, r0
 8004000:	0028      	movs	r0, r5
  tmpccer |= TIM_ICPolarity;
 8004002:	4320      	orrs	r0, r4
  TIMx->CCMR1 = tmpccmr1;
 8004004:	6199      	str	r1, [r3, #24]
  TIMx->CCER = tmpccer;
 8004006:	6218      	str	r0, [r3, #32]
      TIM_ITRx_SetConfig(htim->Instance, TIM_CLOCKSOURCE_TI1);
 8004008:	6811      	ldr	r1, [r2, #0]
  tmpsmcr = TIMx->SMCR;
 800400a:	688b      	ldr	r3, [r1, #8]
  tmpsmcr &= ~TIM_SMCR_TS;
 800400c:	2070      	movs	r0, #112	; 0x70
 800400e:	4383      	bics	r3, r0
  tmpsmcr |= (InputTriggerSource | TIM_SLAVEMODE_EXTERNAL1);
 8004010:	3819      	subs	r0, #25
 8004012:	4303      	orrs	r3, r0
  TIMx->SMCR = tmpsmcr;
 8004014:	608b      	str	r3, [r1, #8]
  HAL_StatusTypeDef status = HAL_OK;
 8004016:	2000      	movs	r0, #0
}
 8004018:	e016      	b.n	8004048 <HAL_TIM_ConfigClockSource+0xa4>
  switch (sClockSourceConfig->ClockSource)
 800401a:	2b20      	cmp	r3, #32
 800401c:	d003      	beq.n	8004026 <HAL_TIM_ConfigClockSource+0x82>
 800401e:	d90c      	bls.n	800403a <HAL_TIM_ConfigClockSource+0x96>
 8004020:	2001      	movs	r0, #1
 8004022:	2b30      	cmp	r3, #48	; 0x30
 8004024:	d110      	bne.n	8004048 <HAL_TIM_ConfigClockSource+0xa4>
      TIM_ITRx_SetConfig(htim->Instance, sClockSourceConfig->ClockSource);
 8004026:	6810      	ldr	r0, [r2, #0]
  tmpsmcr = TIMx->SMCR;
 8004028:	6881      	ldr	r1, [r0, #8]
  tmpsmcr &= ~TIM_SMCR_TS;
 800402a:	2470      	movs	r4, #112	; 0x70
 800402c:	43a1      	bics	r1, r4
  tmpsmcr |= (InputTriggerSource | TIM_SLAVEMODE_EXTERNAL1);
 800402e:	430b      	orrs	r3, r1
 8004030:	2107      	movs	r1, #7
 8004032:	430b      	orrs	r3, r1
  TIMx->SMCR = tmpsmcr;
 8004034:	6083      	str	r3, [r0, #8]
  HAL_StatusTypeDef status = HAL_OK;
 8004036:	2000      	movs	r0, #0
}
 8004038:	e006      	b.n	8004048 <HAL_TIM_ConfigClockSource+0xa4>
  switch (sClockSourceConfig->ClockSource)
 800403a:	2110      	movs	r1, #16
 800403c:	0018      	movs	r0, r3
 800403e:	4388      	bics	r0, r1
 8004040:	0001      	movs	r1, r0
 8004042:	2001      	movs	r0, #1
 8004044:	2900      	cmp	r1, #0
 8004046:	d0ee      	beq.n	8004026 <HAL_TIM_ConfigClockSource+0x82>
  htim->State = HAL_TIM_STATE_READY;
 8004048:	2339      	movs	r3, #57	; 0x39
 800404a:	2101      	movs	r1, #1
 800404c:	54d1      	strb	r1, [r2, r3]
  __HAL_UNLOCK(htim);
 800404e:	3b01      	subs	r3, #1
 8004050:	2100      	movs	r1, #0
 8004052:	54d1      	strb	r1, [r2, r3]
}
 8004054:	bd70      	pop	{r4, r5, r6, pc}
  switch (sClockSourceConfig->ClockSource)
 8004056:	2080      	movs	r0, #128	; 0x80
 8004058:	0140      	lsls	r0, r0, #5
 800405a:	4283      	cmp	r3, r0
 800405c:	d066      	beq.n	800412c <HAL_TIM_ConfigClockSource+0x188>
 800405e:	2080      	movs	r0, #128	; 0x80
 8004060:	0180      	lsls	r0, r0, #6
 8004062:	4283      	cmp	r3, r0
 8004064:	d113      	bne.n	800408e <HAL_TIM_ConfigClockSource+0xea>
      TIM_ETR_SetConfig(htim->Instance,
 8004066:	6814      	ldr	r4, [r2, #0]
  tmpsmcr = TIMx->SMCR;
 8004068:	68a3      	ldr	r3, [r4, #8]
  tmpsmcr &= ~(TIM_SMCR_ETF | TIM_SMCR_ETPS | TIM_SMCR_ECE | TIM_SMCR_ETP);
 800406a:	4834      	ldr	r0, [pc, #208]	; (800413c <HAL_TIM_ConfigClockSource+0x198>)
 800406c:	4018      	ands	r0, r3
  tmpsmcr |= (uint32_t)(TIM_ExtTRGPrescaler | (TIM_ExtTRGPolarity | (ExtTRGFilter << 8U)));
 800406e:	688b      	ldr	r3, [r1, #8]
 8004070:	684d      	ldr	r5, [r1, #4]
 8004072:	432b      	orrs	r3, r5
 8004074:	68c9      	ldr	r1, [r1, #12]
 8004076:	0209      	lsls	r1, r1, #8
 8004078:	430b      	orrs	r3, r1
 800407a:	4303      	orrs	r3, r0
  TIMx->SMCR = tmpsmcr;
 800407c:	60a3      	str	r3, [r4, #8]
      htim->Instance->SMCR |= TIM_SMCR_ECE;
 800407e:	6811      	ldr	r1, [r2, #0]
 8004080:	6888      	ldr	r0, [r1, #8]
 8004082:	2380      	movs	r3, #128	; 0x80
 8004084:	01db      	lsls	r3, r3, #7
 8004086:	4303      	orrs	r3, r0
 8004088:	608b      	str	r3, [r1, #8]
  HAL_StatusTypeDef status = HAL_OK;
 800408a:	2000      	movs	r0, #0
      break;
 800408c:	e7dc      	b.n	8004048 <HAL_TIM_ConfigClockSource+0xa4>
  switch (sClockSourceConfig->ClockSource)
 800408e:	2b70      	cmp	r3, #112	; 0x70
 8004090:	d14e      	bne.n	8004130 <HAL_TIM_ConfigClockSource+0x18c>
      TIM_ETR_SetConfig(htim->Instance,
 8004092:	6814      	ldr	r4, [r2, #0]
  tmpsmcr = TIMx->SMCR;
 8004094:	68a3      	ldr	r3, [r4, #8]
  tmpsmcr &= ~(TIM_SMCR_ETF | TIM_SMCR_ETPS | TIM_SMCR_ECE | TIM_SMCR_ETP);
 8004096:	4829      	ldr	r0, [pc, #164]	; (800413c <HAL_TIM_ConfigClockSource+0x198>)
 8004098:	4018      	ands	r0, r3
  tmpsmcr |= (uint32_t)(TIM_ExtTRGPrescaler | (TIM_ExtTRGPolarity | (ExtTRGFilter << 8U)));
 800409a:	688b      	ldr	r3, [r1, #8]
 800409c:	684d      	ldr	r5, [r1, #4]
 800409e:	432b      	orrs	r3, r5
 80040a0:	68c9      	ldr	r1, [r1, #12]
 80040a2:	0209      	lsls	r1, r1, #8
 80040a4:	430b      	orrs	r3, r1
 80040a6:	4303      	orrs	r3, r0
  TIMx->SMCR = tmpsmcr;
 80040a8:	60a3      	str	r3, [r4, #8]
      tmpsmcr = htim->Instance->SMCR;
 80040aa:	6811      	ldr	r1, [r2, #0]
 80040ac:	688b      	ldr	r3, [r1, #8]
      tmpsmcr |= (TIM_SLAVEMODE_EXTERNAL1 | TIM_CLOCKSOURCE_ETRMODE1);
 80040ae:	2077      	movs	r0, #119	; 0x77
 80040b0:	4303      	orrs	r3, r0
      htim->Instance->SMCR = tmpsmcr;
 80040b2:	608b      	str	r3, [r1, #8]
  HAL_StatusTypeDef status = HAL_OK;
 80040b4:	2000      	movs	r0, #0
      break;
 80040b6:	e7c7      	b.n	8004048 <HAL_TIM_ConfigClockSource+0xa4>
      TIM_TI2_ConfigInputStage(htim->Instance,
 80040b8:	6813      	ldr	r3, [r2, #0]
 80040ba:	6848      	ldr	r0, [r1, #4]
 80040bc:	68cd      	ldr	r5, [r1, #12]
  TIMx->CCER &= ~TIM_CCER_CC2E;
 80040be:	6a19      	ldr	r1, [r3, #32]
 80040c0:	2410      	movs	r4, #16
 80040c2:	43a1      	bics	r1, r4
 80040c4:	6219      	str	r1, [r3, #32]
  tmpccmr1 = TIMx->CCMR1;
 80040c6:	699c      	ldr	r4, [r3, #24]
  tmpccer = TIMx->CCER;
 80040c8:	6a19      	ldr	r1, [r3, #32]
  tmpccmr1 &= ~TIM_CCMR1_IC2F;
 80040ca:	4e1d      	ldr	r6, [pc, #116]	; (8004140 <HAL_TIM_ConfigClockSource+0x19c>)
 80040cc:	4026      	ands	r6, r4
  tmpccmr1 |= (TIM_ICFilter << 12U);
 80040ce:	032c      	lsls	r4, r5, #12
 80040d0:	4334      	orrs	r4, r6
  tmpccer &= ~(TIM_CCER_CC2P | TIM_CCER_CC2NP);
 80040d2:	25a0      	movs	r5, #160	; 0xa0
 80040d4:	43a9      	bics	r1, r5
 80040d6:	000d      	movs	r5, r1
  tmpccer |= (TIM_ICPolarity << 4U);
 80040d8:	0101      	lsls	r1, r0, #4
 80040da:	4329      	orrs	r1, r5
  TIMx->CCMR1 = tmpccmr1 ;
 80040dc:	619c      	str	r4, [r3, #24]
  TIMx->CCER = tmpccer;
 80040de:	6219      	str	r1, [r3, #32]
      TIM_ITRx_SetConfig(htim->Instance, TIM_CLOCKSOURCE_TI2);
 80040e0:	6811      	ldr	r1, [r2, #0]
  tmpsmcr = TIMx->SMCR;
 80040e2:	688b      	ldr	r3, [r1, #8]
  tmpsmcr &= ~TIM_SMCR_TS;
 80040e4:	2070      	movs	r0, #112	; 0x70
 80040e6:	4383      	bics	r3, r0
  tmpsmcr |= (InputTriggerSource | TIM_SLAVEMODE_EXTERNAL1);
 80040e8:	3809      	subs	r0, #9
 80040ea:	4303      	orrs	r3, r0
  TIMx->SMCR = tmpsmcr;
 80040ec:	608b      	str	r3, [r1, #8]
  HAL_StatusTypeDef status = HAL_OK;
 80040ee:	2000      	movs	r0, #0
}
 80040f0:	e7aa      	b.n	8004048 <HAL_TIM_ConfigClockSource+0xa4>
      TIM_TI1_ConfigInputStage(htim->Instance,
 80040f2:	6813      	ldr	r3, [r2, #0]
 80040f4:	684c      	ldr	r4, [r1, #4]
 80040f6:	68c8      	ldr	r0, [r1, #12]
  tmpccer = TIMx->CCER;
 80040f8:	6a1d      	ldr	r5, [r3, #32]
  TIMx->CCER &= ~TIM_CCER_CC1E;
 80040fa:	6a19      	ldr	r1, [r3, #32]
 80040fc:	2601      	movs	r6, #1
 80040fe:	43b1      	bics	r1, r6
 8004100:	6219      	str	r1, [r3, #32]
  tmpccmr1 = TIMx->CCMR1;
 8004102:	6999      	ldr	r1, [r3, #24]
  tmpccmr1 &= ~TIM_CCMR1_IC1F;
 8004104:	36ef      	adds	r6, #239	; 0xef
 8004106:	43b1      	bics	r1, r6
 8004108:	000e      	movs	r6, r1
  tmpccmr1 |= (TIM_ICFilter << 4U);
 800410a:	0101      	lsls	r1, r0, #4
 800410c:	4331      	orrs	r1, r6
  tmpccer &= ~(TIM_CCER_CC1P | TIM_CCER_CC1NP);
 800410e:	200a      	movs	r0, #10
 8004110:	4385      	bics	r5, r0
 8004112:	0028      	movs	r0, r5
  tmpccer |= TIM_ICPolarity;
 8004114:	4320      	orrs	r0, r4
  TIMx->CCMR1 = tmpccmr1;
 8004116:	6199      	str	r1, [r3, #24]
  TIMx->CCER = tmpccer;
 8004118:	6218      	str	r0, [r3, #32]
      TIM_ITRx_SetConfig(htim->Instance, TIM_CLOCKSOURCE_TI1ED);
 800411a:	6811      	ldr	r1, [r2, #0]
  tmpsmcr = TIMx->SMCR;
 800411c:	688b      	ldr	r3, [r1, #8]
  tmpsmcr &= ~TIM_SMCR_TS;
 800411e:	2070      	movs	r0, #112	; 0x70
 8004120:	4383      	bics	r3, r0
  tmpsmcr |= (InputTriggerSource | TIM_SLAVEMODE_EXTERNAL1);
 8004122:	3829      	subs	r0, #41	; 0x29
 8004124:	4303      	orrs	r3, r0
  TIMx->SMCR = tmpsmcr;
 8004126:	608b      	str	r3, [r1, #8]
  HAL_StatusTypeDef status = HAL_OK;
 8004128:	2000      	movs	r0, #0
}
 800412a:	e78d      	b.n	8004048 <HAL_TIM_ConfigClockSource+0xa4>
  HAL_StatusTypeDef status = HAL_OK;
 800412c:	2000      	movs	r0, #0
 800412e:	e78b      	b.n	8004048 <HAL_TIM_ConfigClockSource+0xa4>
  switch (sClockSourceConfig->ClockSource)
 8004130:	2001      	movs	r0, #1
 8004132:	e789      	b.n	8004048 <HAL_TIM_ConfigClockSource+0xa4>
  __HAL_LOCK(htim);
 8004134:	2002      	movs	r0, #2
 8004136:	e78d      	b.n	8004054 <HAL_TIM_ConfigClockSource+0xb0>
 8004138:	ffff0088 	.word	0xffff0088
 800413c:	ffff00ff 	.word	0xffff00ff
 8004140:	ffff0fff 	.word	0xffff0fff

08004144 <HAL_TIM_SlaveConfigSynchro>:
{
 8004144:	b510      	push	{r4, lr}
 8004146:	0004      	movs	r4, r0
  __HAL_LOCK(htim);
 8004148:	2338      	movs	r3, #56	; 0x38
 800414a:	5cc3      	ldrb	r3, [r0, r3]
 800414c:	2b01      	cmp	r3, #1
 800414e:	d022      	beq.n	8004196 <HAL_TIM_SlaveConfigSynchro+0x52>
 8004150:	2338      	movs	r3, #56	; 0x38
 8004152:	2201      	movs	r2, #1
 8004154:	54c2      	strb	r2, [r0, r3]
  htim->State = HAL_TIM_STATE_BUSY;
 8004156:	3301      	adds	r3, #1
 8004158:	3201      	adds	r2, #1
 800415a:	54c2      	strb	r2, [r0, r3]
  if (TIM_SlaveTimer_SetConfig(htim, sSlaveConfig) != HAL_OK)
 800415c:	f7ff fcb0 	bl	8003ac0 <TIM_SlaveTimer_SetConfig>
 8004160:	2800      	cmp	r0, #0
 8004162:	d110      	bne.n	8004186 <HAL_TIM_SlaveConfigSynchro+0x42>
  __HAL_TIM_DISABLE_IT(htim, TIM_IT_TRIGGER);
 8004164:	6822      	ldr	r2, [r4, #0]
 8004166:	68d3      	ldr	r3, [r2, #12]
 8004168:	2140      	movs	r1, #64	; 0x40
 800416a:	438b      	bics	r3, r1
 800416c:	60d3      	str	r3, [r2, #12]
  __HAL_TIM_DISABLE_DMA(htim, TIM_DMA_TRIGGER);
 800416e:	6822      	ldr	r2, [r4, #0]
 8004170:	68d3      	ldr	r3, [r2, #12]
 8004172:	490a      	ldr	r1, [pc, #40]	; (800419c <HAL_TIM_SlaveConfigSynchro+0x58>)
 8004174:	400b      	ands	r3, r1
 8004176:	60d3      	str	r3, [r2, #12]
  htim->State = HAL_TIM_STATE_READY;
 8004178:	2339      	movs	r3, #57	; 0x39
 800417a:	2201      	movs	r2, #1
 800417c:	54e2      	strb	r2, [r4, r3]
  __HAL_UNLOCK(htim);
 800417e:	3b01      	subs	r3, #1
 8004180:	2200      	movs	r2, #0
 8004182:	54e2      	strb	r2, [r4, r3]
}
 8004184:	bd10      	pop	{r4, pc}
    htim->State = HAL_TIM_STATE_READY;
 8004186:	2339      	movs	r3, #57	; 0x39
 8004188:	2201      	movs	r2, #1
 800418a:	54e2      	strb	r2, [r4, r3]
    __HAL_UNLOCK(htim);
 800418c:	3b01      	subs	r3, #1
 800418e:	2200      	movs	r2, #0
 8004190:	54e2      	strb	r2, [r4, r3]
    return HAL_ERROR;
 8004192:	2001      	movs	r0, #1
 8004194:	e7f6      	b.n	8004184 <HAL_TIM_SlaveConfigSynchro+0x40>
  __HAL_LOCK(htim);
 8004196:	2002      	movs	r0, #2
 8004198:	e7f4      	b.n	8004184 <HAL_TIM_SlaveConfigSynchro+0x40>
 800419a:	46c0      	nop			; (mov r8, r8)
 800419c:	ffffbfff 	.word	0xffffbfff

080041a0 <HAL_TIM_OC_DelayElapsedCallback>:
}
 80041a0:	4770      	bx	lr

080041a2 <HAL_TIM_PWM_PulseFinishedCallback>:
}
 80041a2:	4770      	bx	lr

080041a4 <HAL_TIM_TriggerCallback>:
}
 80041a4:	4770      	bx	lr

080041a6 <HAL_TIM_IRQHandler>:
{
 80041a6:	b510      	push	{r4, lr}
 80041a8:	0004      	movs	r4, r0
  if (__HAL_TIM_GET_FLAG(htim, TIM_FLAG_CC1) != RESET)
 80041aa:	6803      	ldr	r3, [r0, #0]
 80041ac:	691a      	ldr	r2, [r3, #16]
 80041ae:	0792      	lsls	r2, r2, #30
 80041b0:	d50f      	bpl.n	80041d2 <HAL_TIM_IRQHandler+0x2c>
    if (__HAL_TIM_GET_IT_SOURCE(htim, TIM_IT_CC1) != RESET)
 80041b2:	68da      	ldr	r2, [r3, #12]
 80041b4:	0792      	lsls	r2, r2, #30
 80041b6:	d50c      	bpl.n	80041d2 <HAL_TIM_IRQHandler+0x2c>
        __HAL_TIM_CLEAR_IT(htim, TIM_IT_CC1);
 80041b8:	2203      	movs	r2, #3
 80041ba:	4252      	negs	r2, r2
 80041bc:	611a      	str	r2, [r3, #16]
        htim->Channel = HAL_TIM_ACTIVE_CHANNEL_1;
 80041be:	2301      	movs	r3, #1
 80041c0:	7603      	strb	r3, [r0, #24]
        if ((htim->Instance->CCMR1 & TIM_CCMR1_CC1S) != 0x00U)
 80041c2:	6803      	ldr	r3, [r0, #0]
 80041c4:	699b      	ldr	r3, [r3, #24]
 80041c6:	079b      	lsls	r3, r3, #30
 80041c8:	d055      	beq.n	8004276 <HAL_TIM_IRQHandler+0xd0>
          HAL_TIM_IC_CaptureCallback(htim);
 80041ca:	f7fc faeb 	bl	80007a4 <HAL_TIM_IC_CaptureCallback>
        htim->Channel = HAL_TIM_ACTIVE_CHANNEL_CLEARED;
 80041ce:	2300      	movs	r3, #0
 80041d0:	7623      	strb	r3, [r4, #24]
  if (__HAL_TIM_GET_FLAG(htim, TIM_FLAG_CC2) != RESET)
 80041d2:	6823      	ldr	r3, [r4, #0]
 80041d4:	691a      	ldr	r2, [r3, #16]
 80041d6:	0752      	lsls	r2, r2, #29
 80041d8:	d512      	bpl.n	8004200 <HAL_TIM_IRQHandler+0x5a>
    if (__HAL_TIM_GET_IT_SOURCE(htim, TIM_IT_CC2) != RESET)
 80041da:	68da      	ldr	r2, [r3, #12]
 80041dc:	0752      	lsls	r2, r2, #29
 80041de:	d50f      	bpl.n	8004200 <HAL_TIM_IRQHandler+0x5a>
      __HAL_TIM_CLEAR_IT(htim, TIM_IT_CC2);
 80041e0:	2205      	movs	r2, #5
 80041e2:	4252      	negs	r2, r2
 80041e4:	611a      	str	r2, [r3, #16]
      htim->Channel = HAL_TIM_ACTIVE_CHANNEL_2;
 80041e6:	2302      	movs	r3, #2
 80041e8:	7623      	strb	r3, [r4, #24]
      if ((htim->Instance->CCMR1 & TIM_CCMR1_CC2S) != 0x00U)
 80041ea:	6823      	ldr	r3, [r4, #0]
 80041ec:	699a      	ldr	r2, [r3, #24]
 80041ee:	23c0      	movs	r3, #192	; 0xc0
 80041f0:	009b      	lsls	r3, r3, #2
 80041f2:	421a      	tst	r2, r3
 80041f4:	d045      	beq.n	8004282 <HAL_TIM_IRQHandler+0xdc>
        HAL_TIM_IC_CaptureCallback(htim);
 80041f6:	0020      	movs	r0, r4
 80041f8:	f7fc fad4 	bl	80007a4 <HAL_TIM_IC_CaptureCallback>
      htim->Channel = HAL_TIM_ACTIVE_CHANNEL_CLEARED;
 80041fc:	2300      	movs	r3, #0
 80041fe:	7623      	strb	r3, [r4, #24]
  if (__HAL_TIM_GET_FLAG(htim, TIM_FLAG_CC3) != RESET)
 8004200:	6823      	ldr	r3, [r4, #0]
 8004202:	691a      	ldr	r2, [r3, #16]
 8004204:	0712      	lsls	r2, r2, #28
 8004206:	d510      	bpl.n	800422a <HAL_TIM_IRQHandler+0x84>
    if (__HAL_TIM_GET_IT_SOURCE(htim, TIM_IT_CC3) != RESET)
 8004208:	68da      	ldr	r2, [r3, #12]
 800420a:	0712      	lsls	r2, r2, #28
 800420c:	d50d      	bpl.n	800422a <HAL_TIM_IRQHandler+0x84>
      __HAL_TIM_CLEAR_IT(htim, TIM_IT_CC3);
 800420e:	2209      	movs	r2, #9
 8004210:	4252      	negs	r2, r2
 8004212:	611a      	str	r2, [r3, #16]
      htim->Channel = HAL_TIM_ACTIVE_CHANNEL_3;
 8004214:	2304      	movs	r3, #4
 8004216:	7623      	strb	r3, [r4, #24]
      if ((htim->Instance->CCMR2 & TIM_CCMR2_CC3S) != 0x00U)
 8004218:	6823      	ldr	r3, [r4, #0]
 800421a:	69db      	ldr	r3, [r3, #28]
 800421c:	079b      	lsls	r3, r3, #30
 800421e:	d037      	beq.n	8004290 <HAL_TIM_IRQHandler+0xea>
        HAL_TIM_IC_CaptureCallback(htim);
 8004220:	0020      	movs	r0, r4
 8004222:	f7fc fabf 	bl	80007a4 <HAL_TIM_IC_CaptureCallback>
      htim->Channel = HAL_TIM_ACTIVE_CHANNEL_CLEARED;
 8004226:	2300      	movs	r3, #0
 8004228:	7623      	strb	r3, [r4, #24]
  if (__HAL_TIM_GET_FLAG(htim, TIM_FLAG_CC4) != RESET)
 800422a:	6823      	ldr	r3, [r4, #0]
 800422c:	691a      	ldr	r2, [r3, #16]
 800422e:	06d2      	lsls	r2, r2, #27
 8004230:	d512      	bpl.n	8004258 <HAL_TIM_IRQHandler+0xb2>
    if (__HAL_TIM_GET_IT_SOURCE(htim, TIM_IT_CC4) != RESET)
 8004232:	68da      	ldr	r2, [r3, #12]
 8004234:	06d2      	lsls	r2, r2, #27
 8004236:	d50f      	bpl.n	8004258 <HAL_TIM_IRQHandler+0xb2>
      __HAL_TIM_CLEAR_IT(htim, TIM_IT_CC4);
 8004238:	2211      	movs	r2, #17
 800423a:	4252      	negs	r2, r2
 800423c:	611a      	str	r2, [r3, #16]
      htim->Channel = HAL_TIM_ACTIVE_CHANNEL_4;
 800423e:	2308      	movs	r3, #8
 8004240:	7623      	strb	r3, [r4, #24]
      if ((htim->Instance->CCMR2 & TIM_CCMR2_CC4S) != 0x00U)
 8004242:	6823      	ldr	r3, [r4, #0]
 8004244:	69da      	ldr	r2, [r3, #28]
 8004246:	23c0      	movs	r3, #192	; 0xc0
 8004248:	009b      	lsls	r3, r3, #2
 800424a:	421a      	tst	r2, r3
 800424c:	d027      	beq.n	800429e <HAL_TIM_IRQHandler+0xf8>
        HAL_TIM_IC_CaptureCallback(htim);
 800424e:	0020      	movs	r0, r4
 8004250:	f7fc faa8 	bl	80007a4 <HAL_TIM_IC_CaptureCallback>
      htim->Channel = HAL_TIM_ACTIVE_CHANNEL_CLEARED;
 8004254:	2300      	movs	r3, #0
 8004256:	7623      	strb	r3, [r4, #24]
  if (__HAL_TIM_GET_FLAG(htim, TIM_FLAG_UPDATE) != RESET)
 8004258:	6823      	ldr	r3, [r4, #0]
 800425a:	691a      	ldr	r2, [r3, #16]
 800425c:	07d2      	lsls	r2, r2, #31
 800425e:	d502      	bpl.n	8004266 <HAL_TIM_IRQHandler+0xc0>
    if (__HAL_TIM_GET_IT_SOURCE(htim, TIM_IT_UPDATE) != RESET)
 8004260:	68da      	ldr	r2, [r3, #12]
 8004262:	07d2      	lsls	r2, r2, #31
 8004264:	d422      	bmi.n	80042ac <HAL_TIM_IRQHandler+0x106>
  if (__HAL_TIM_GET_FLAG(htim, TIM_FLAG_TRIGGER) != RESET)
 8004266:	6823      	ldr	r3, [r4, #0]
 8004268:	691a      	ldr	r2, [r3, #16]
 800426a:	0652      	lsls	r2, r2, #25
 800426c:	d502      	bpl.n	8004274 <HAL_TIM_IRQHandler+0xce>
    if (__HAL_TIM_GET_IT_SOURCE(htim, TIM_IT_TRIGGER) != RESET)
 800426e:	68da      	ldr	r2, [r3, #12]
 8004270:	0652      	lsls	r2, r2, #25
 8004272:	d422      	bmi.n	80042ba <HAL_TIM_IRQHandler+0x114>
}
 8004274:	bd10      	pop	{r4, pc}
          HAL_TIM_OC_DelayElapsedCallback(htim);
 8004276:	f7ff ff93 	bl	80041a0 <HAL_TIM_OC_DelayElapsedCallback>
          HAL_TIM_PWM_PulseFinishedCallback(htim);
 800427a:	0020      	movs	r0, r4
 800427c:	f7ff ff91 	bl	80041a2 <HAL_TIM_PWM_PulseFinishedCallback>
 8004280:	e7a5      	b.n	80041ce <HAL_TIM_IRQHandler+0x28>
        HAL_TIM_OC_DelayElapsedCallback(htim);
 8004282:	0020      	movs	r0, r4
 8004284:	f7ff ff8c 	bl	80041a0 <HAL_TIM_OC_DelayElapsedCallback>
        HAL_TIM_PWM_PulseFinishedCallback(htim);
 8004288:	0020      	movs	r0, r4
 800428a:	f7ff ff8a 	bl	80041a2 <HAL_TIM_PWM_PulseFinishedCallback>
 800428e:	e7b5      	b.n	80041fc <HAL_TIM_IRQHandler+0x56>
        HAL_TIM_OC_DelayElapsedCallback(htim);
 8004290:	0020      	movs	r0, r4
 8004292:	f7ff ff85 	bl	80041a0 <HAL_TIM_OC_DelayElapsedCallback>
        HAL_TIM_PWM_PulseFinishedCallback(htim);
 8004296:	0020      	movs	r0, r4
 8004298:	f7ff ff83 	bl	80041a2 <HAL_TIM_PWM_PulseFinishedCallback>
 800429c:	e7c3      	b.n	8004226 <HAL_TIM_IRQHandler+0x80>
        HAL_TIM_OC_DelayElapsedCallback(htim);
 800429e:	0020      	movs	r0, r4
 80042a0:	f7ff ff7e 	bl	80041a0 <HAL_TIM_OC_DelayElapsedCallback>
        HAL_TIM_PWM_PulseFinishedCallback(htim);
 80042a4:	0020      	movs	r0, r4
 80042a6:	f7ff ff7c 	bl	80041a2 <HAL_TIM_PWM_PulseFinishedCallback>
 80042aa:	e7d3      	b.n	8004254 <HAL_TIM_IRQHandler+0xae>
      __HAL_TIM_CLEAR_IT(htim, TIM_IT_UPDATE);
 80042ac:	2202      	movs	r2, #2
 80042ae:	4252      	negs	r2, r2
 80042b0:	611a      	str	r2, [r3, #16]
      HAL_TIM_PeriodElapsedCallback(htim);
 80042b2:	0020      	movs	r0, r4
 80042b4:	f7fc fa90 	bl	80007d8 <HAL_TIM_PeriodElapsedCallback>
 80042b8:	e7d5      	b.n	8004266 <HAL_TIM_IRQHandler+0xc0>
      __HAL_TIM_CLEAR_IT(htim, TIM_IT_TRIGGER);
 80042ba:	2241      	movs	r2, #65	; 0x41
 80042bc:	4252      	negs	r2, r2
 80042be:	611a      	str	r2, [r3, #16]
      HAL_TIM_TriggerCallback(htim);
 80042c0:	0020      	movs	r0, r4
 80042c2:	f7ff ff6f 	bl	80041a4 <HAL_TIM_TriggerCallback>
}
 80042c6:	e7d5      	b.n	8004274 <HAL_TIM_IRQHandler+0xce>

080042c8 <HAL_TIM_Base_GetState>:
  return htim->State;
 80042c8:	2339      	movs	r3, #57	; 0x39
 80042ca:	5cc0      	ldrb	r0, [r0, r3]
 80042cc:	b2c0      	uxtb	r0, r0
}
 80042ce:	4770      	bx	lr

080042d0 <HAL_TIM_Encoder_GetState>:
  return htim->State;
 80042d0:	2339      	movs	r3, #57	; 0x39
 80042d2:	5cc0      	ldrb	r0, [r0, r3]
 80042d4:	b2c0      	uxtb	r0, r0
}
 80042d6:	4770      	bx	lr

080042d8 <HAL_TIMEx_MasterConfigSynchronization>:
  *         mode.
  * @retval HAL status
  */
HAL_StatusTypeDef HAL_TIMEx_MasterConfigSynchronization(TIM_HandleTypeDef *htim,
                                                        TIM_MasterConfigTypeDef *sMasterConfig)
{
 80042d8:	b530      	push	{r4, r5, lr}
  assert_param(IS_TIM_MASTER_INSTANCE(htim->Instance));
  assert_param(IS_TIM_TRGO_SOURCE(sMasterConfig->MasterOutputTrigger));
  assert_param(IS_TIM_MSM_STATE(sMasterConfig->MasterSlaveMode));

  /* Check input state */
  __HAL_LOCK(htim);
 80042da:	2338      	movs	r3, #56	; 0x38
 80042dc:	5cc3      	ldrb	r3, [r0, r3]
 80042de:	2b01      	cmp	r3, #1
 80042e0:	d028      	beq.n	8004334 <HAL_TIMEx_MasterConfigSynchronization+0x5c>
 80042e2:	2338      	movs	r3, #56	; 0x38
 80042e4:	2201      	movs	r2, #1
 80042e6:	54c2      	strb	r2, [r0, r3]

  /* Change the handler state */
  htim->State = HAL_TIM_STATE_BUSY;
 80042e8:	3301      	adds	r3, #1
 80042ea:	3201      	adds	r2, #1
 80042ec:	54c2      	strb	r2, [r0, r3]

  /* Get the TIMx CR2 register value */
  tmpcr2 = htim->Instance->CR2;
 80042ee:	6804      	ldr	r4, [r0, #0]
 80042f0:	6863      	ldr	r3, [r4, #4]

  /* Get the TIMx SMCR register value */
  tmpsmcr = htim->Instance->SMCR;
 80042f2:	68a2      	ldr	r2, [r4, #8]

  /* Reset the MMS Bits */
  tmpcr2 &= ~TIM_CR2_MMS;
 80042f4:	2570      	movs	r5, #112	; 0x70
 80042f6:	43ab      	bics	r3, r5
  /* Select the TRGO source */
  tmpcr2 |=  sMasterConfig->MasterOutputTrigger;
 80042f8:	680d      	ldr	r5, [r1, #0]
 80042fa:	432b      	orrs	r3, r5

  /* Update TIMx CR2 */
  htim->Instance->CR2 = tmpcr2;
 80042fc:	6063      	str	r3, [r4, #4]

  if (IS_TIM_SLAVE_INSTANCE(htim->Instance))
 80042fe:	6803      	ldr	r3, [r0, #0]
 8004300:	2480      	movs	r4, #128	; 0x80
 8004302:	05e4      	lsls	r4, r4, #23
 8004304:	42a3      	cmp	r3, r4
 8004306:	d008      	beq.n	800431a <HAL_TIMEx_MasterConfigSynchronization+0x42>
 8004308:	4c0b      	ldr	r4, [pc, #44]	; (8004338 <HAL_TIMEx_MasterConfigSynchronization+0x60>)
 800430a:	42a3      	cmp	r3, r4
 800430c:	d005      	beq.n	800431a <HAL_TIMEx_MasterConfigSynchronization+0x42>
 800430e:	4c0b      	ldr	r4, [pc, #44]	; (800433c <HAL_TIMEx_MasterConfigSynchronization+0x64>)
 8004310:	42a3      	cmp	r3, r4
 8004312:	d002      	beq.n	800431a <HAL_TIMEx_MasterConfigSynchronization+0x42>
 8004314:	4c0a      	ldr	r4, [pc, #40]	; (8004340 <HAL_TIMEx_MasterConfigSynchronization+0x68>)
 8004316:	42a3      	cmp	r3, r4
 8004318:	d104      	bne.n	8004324 <HAL_TIMEx_MasterConfigSynchronization+0x4c>
  {
    /* Reset the MSM Bit */
    tmpsmcr &= ~TIM_SMCR_MSM;
 800431a:	2480      	movs	r4, #128	; 0x80
 800431c:	43a2      	bics	r2, r4
    /* Set master mode */
    tmpsmcr |= sMasterConfig->MasterSlaveMode;
 800431e:	6849      	ldr	r1, [r1, #4]
 8004320:	430a      	orrs	r2, r1

    /* Update TIMx SMCR */
    htim->Instance->SMCR = tmpsmcr;
 8004322:	609a      	str	r2, [r3, #8]
  }

  /* Change the htim state */
  htim->State = HAL_TIM_STATE_READY;
 8004324:	2339      	movs	r3, #57	; 0x39
 8004326:	2201      	movs	r2, #1
 8004328:	54c2      	strb	r2, [r0, r3]

  __HAL_UNLOCK(htim);
 800432a:	3b01      	subs	r3, #1
 800432c:	2200      	movs	r2, #0
 800432e:	54c2      	strb	r2, [r0, r3]

  return HAL_OK;
 8004330:	2000      	movs	r0, #0
}
 8004332:	bd30      	pop	{r4, r5, pc}
  __HAL_LOCK(htim);
 8004334:	2002      	movs	r0, #2
 8004336:	e7fc      	b.n	8004332 <HAL_TIMEx_MasterConfigSynchronization+0x5a>
 8004338:	40000400 	.word	0x40000400
 800433c:	40010800 	.word	0x40010800
 8004340:	40011400 	.word	0x40011400

08004344 <UART_SetConfig>:
  * @brief Configure the UART peripheral.
  * @param huart UART handle.
  * @retval HAL status
  */
HAL_StatusTypeDef UART_SetConfig(UART_HandleTypeDef *huart)
{
 8004344:	b5d0      	push	{r4, r6, r7, lr}
 8004346:	0004      	movs	r4, r0
  uint32_t pclk;

  /* Check the parameters */
  assert_param(IS_UART_BAUDRATE(huart->Init.BaudRate));
  assert_param(IS_UART_WORD_LENGTH(huart->Init.WordLength));
  if (UART_INSTANCE_LOWPOWER(huart))
 8004348:	6801      	ldr	r1, [r0, #0]
  *  set the M bits according to huart->Init.WordLength value
  *  set PCE and PS bits according to huart->Init.Parity value
  *  set TE and RE bits according to huart->Init.Mode value
  *  set OVER8 bit according to huart->Init.OverSampling value */
  tmpreg = (uint32_t)huart->Init.WordLength | huart->Init.Parity | huart->Init.Mode | huart->Init.OverSampling ;
  MODIFY_REG(huart->Instance->CR1, USART_CR1_FIELDS, tmpreg);
 800434a:	680a      	ldr	r2, [r1, #0]
  tmpreg = (uint32_t)huart->Init.WordLength | huart->Init.Parity | huart->Init.Mode | huart->Init.OverSampling ;
 800434c:	6883      	ldr	r3, [r0, #8]
 800434e:	6900      	ldr	r0, [r0, #16]
 8004350:	4303      	orrs	r3, r0
 8004352:	6960      	ldr	r0, [r4, #20]
 8004354:	4303      	orrs	r3, r0
 8004356:	69e0      	ldr	r0, [r4, #28]
 8004358:	4303      	orrs	r3, r0
  MODIFY_REG(huart->Instance->CR1, USART_CR1_FIELDS, tmpreg);
 800435a:	4896      	ldr	r0, [pc, #600]	; (80045b4 <UART_SetConfig+0x270>)
 800435c:	4002      	ands	r2, r0
 800435e:	4313      	orrs	r3, r2
 8004360:	600b      	str	r3, [r1, #0]

  /*-------------------------- USART CR2 Configuration -----------------------*/
  /* Configure the UART Stop Bits: Set STOP[13:12] bits according
  * to huart->Init.StopBits value */
  MODIFY_REG(huart->Instance->CR2, USART_CR2_STOP, huart->Init.StopBits);
 8004362:	6822      	ldr	r2, [r4, #0]
 8004364:	6853      	ldr	r3, [r2, #4]
 8004366:	4994      	ldr	r1, [pc, #592]	; (80045b8 <UART_SetConfig+0x274>)
 8004368:	400b      	ands	r3, r1
 800436a:	68e1      	ldr	r1, [r4, #12]
 800436c:	430b      	orrs	r3, r1
 800436e:	6053      	str	r3, [r2, #4]
  /* Configure
  * - UART HardWare Flow Control: set CTSE and RTSE bits according
  *   to huart->Init.HwFlowCtl value
  * - one-bit sampling method versus three samples' majority rule according
  *   to huart->Init.OneBitSampling (not applicable to LPUART) */
  tmpreg = (uint32_t)huart->Init.HwFlowCtl;
 8004370:	69a1      	ldr	r1, [r4, #24]

  if (!(UART_INSTANCE_LOWPOWER(huart)))
 8004372:	6822      	ldr	r2, [r4, #0]
 8004374:	4b91      	ldr	r3, [pc, #580]	; (80045bc <UART_SetConfig+0x278>)
 8004376:	429a      	cmp	r2, r3
 8004378:	d001      	beq.n	800437e <UART_SetConfig+0x3a>
  {
    tmpreg |= huart->Init.OneBitSampling;
 800437a:	6a23      	ldr	r3, [r4, #32]
 800437c:	4319      	orrs	r1, r3
  }
  MODIFY_REG(huart->Instance->CR3, USART_CR3_FIELDS, tmpreg);
 800437e:	6893      	ldr	r3, [r2, #8]
 8004380:	488f      	ldr	r0, [pc, #572]	; (80045c0 <UART_SetConfig+0x27c>)
 8004382:	4003      	ands	r3, r0
 8004384:	430b      	orrs	r3, r1
 8004386:	6093      	str	r3, [r2, #8]


  /*-------------------------- USART BRR Configuration -----------------------*/
  UART_GETCLOCKSOURCE(huart, clocksource);
 8004388:	6822      	ldr	r2, [r4, #0]
 800438a:	4b8e      	ldr	r3, [pc, #568]	; (80045c4 <UART_SetConfig+0x280>)
 800438c:	429a      	cmp	r2, r3
 800438e:	d024      	beq.n	80043da <UART_SetConfig+0x96>
 8004390:	4b8d      	ldr	r3, [pc, #564]	; (80045c8 <UART_SetConfig+0x284>)
 8004392:	429a      	cmp	r2, r3
 8004394:	d040      	beq.n	8004418 <UART_SetConfig+0xd4>
 8004396:	4b8d      	ldr	r3, [pc, #564]	; (80045cc <UART_SetConfig+0x288>)
 8004398:	429a      	cmp	r2, r3
 800439a:	d100      	bne.n	800439e <UART_SetConfig+0x5a>
 800439c:	e105      	b.n	80045aa <UART_SetConfig+0x266>
 800439e:	4b8c      	ldr	r3, [pc, #560]	; (80045d0 <UART_SetConfig+0x28c>)
 80043a0:	429a      	cmp	r2, r3
 80043a2:	d100      	bne.n	80043a6 <UART_SetConfig+0x62>
 80043a4:	e103      	b.n	80045ae <UART_SetConfig+0x26a>
 80043a6:	4985      	ldr	r1, [pc, #532]	; (80045bc <UART_SetConfig+0x278>)
 80043a8:	2310      	movs	r3, #16
 80043aa:	428a      	cmp	r2, r1
 80043ac:	d128      	bne.n	8004400 <UART_SetConfig+0xbc>
 80043ae:	4b89      	ldr	r3, [pc, #548]	; (80045d4 <UART_SetConfig+0x290>)
 80043b0:	6cdb      	ldr	r3, [r3, #76]	; 0x4c
 80043b2:	22c0      	movs	r2, #192	; 0xc0
 80043b4:	0112      	lsls	r2, r2, #4
 80043b6:	4013      	ands	r3, r2
 80043b8:	2280      	movs	r2, #128	; 0x80
 80043ba:	0112      	lsls	r2, r2, #4
 80043bc:	4293      	cmp	r3, r2
 80043be:	d054      	beq.n	800446a <UART_SetConfig+0x126>
 80043c0:	d843      	bhi.n	800444a <UART_SetConfig+0x106>
 80043c2:	2b00      	cmp	r3, #0
 80043c4:	d04a      	beq.n	800445c <UART_SetConfig+0x118>
 80043c6:	2280      	movs	r2, #128	; 0x80
 80043c8:	00d2      	lsls	r2, r2, #3
 80043ca:	2001      	movs	r0, #1
 80043cc:	4293      	cmp	r3, r2
 80043ce:	d000      	beq.n	80043d2 <UART_SetConfig+0x8e>
 80043d0:	e0c5      	b.n	800455e <UART_SetConfig+0x21a>
        {
          pclk = (uint32_t) HSI_VALUE;
        }
        break;
      case UART_CLOCKSOURCE_SYSCLK:
        pclk = HAL_RCC_GetSysClockFreq();
 80043d2:	f7fe fd61 	bl	8002e98 <HAL_RCC_GetSysClockFreq>
 80043d6:	0003      	movs	r3, r0
        break;
 80043d8:	e043      	b.n	8004462 <UART_SetConfig+0x11e>
  UART_GETCLOCKSOURCE(huart, clocksource);
 80043da:	4b7e      	ldr	r3, [pc, #504]	; (80045d4 <UART_SetConfig+0x290>)
 80043dc:	6cdb      	ldr	r3, [r3, #76]	; 0x4c
 80043de:	2203      	movs	r2, #3
 80043e0:	401a      	ands	r2, r3
 80043e2:	2a02      	cmp	r2, #2
 80043e4:	d100      	bne.n	80043e8 <UART_SetConfig+0xa4>
 80043e6:	e0da      	b.n	800459e <UART_SetConfig+0x25a>
 80043e8:	d900      	bls.n	80043ec <UART_SetConfig+0xa8>
 80043ea:	e0da      	b.n	80045a2 <UART_SetConfig+0x25e>
 80043ec:	2301      	movs	r3, #1
 80043ee:	2a00      	cmp	r2, #0
 80043f0:	d006      	beq.n	8004400 <UART_SetConfig+0xbc>
 80043f2:	3a01      	subs	r2, #1
 80043f4:	1e53      	subs	r3, r2, #1
 80043f6:	419a      	sbcs	r2, r3
 80043f8:	4252      	negs	r2, r2
 80043fa:	230c      	movs	r3, #12
 80043fc:	4013      	ands	r3, r2
 80043fe:	3304      	adds	r3, #4
        }
      } /* if ( (pclk < (3 * huart->Init.BaudRate) ) || (pclk > (4096 * huart->Init.BaudRate) )) */
    } /* if (pclk != 0) */
  }
  /* Check UART Over Sampling to set Baud Rate Register */
  else if (huart->Init.OverSampling == UART_OVERSAMPLING_8)
 8004400:	69e2      	ldr	r2, [r4, #28]
 8004402:	2180      	movs	r1, #128	; 0x80
 8004404:	0209      	lsls	r1, r1, #8
 8004406:	428a      	cmp	r2, r1
 8004408:	d058      	beq.n	80044bc <UART_SetConfig+0x178>
      }
    }
  }
  else
  {
    switch (clocksource)
 800440a:	2b08      	cmp	r3, #8
 800440c:	d900      	bls.n	8004410 <UART_SetConfig+0xcc>
 800440e:	e0c4      	b.n	800459a <UART_SetConfig+0x256>
 8004410:	009b      	lsls	r3, r3, #2
 8004412:	4a71      	ldr	r2, [pc, #452]	; (80045d8 <UART_SetConfig+0x294>)
 8004414:	58d3      	ldr	r3, [r2, r3]
 8004416:	469f      	mov	pc, r3
  UART_GETCLOCKSOURCE(huart, clocksource);
 8004418:	4b6e      	ldr	r3, [pc, #440]	; (80045d4 <UART_SetConfig+0x290>)
 800441a:	6cdb      	ldr	r3, [r3, #76]	; 0x4c
 800441c:	220c      	movs	r2, #12
 800441e:	401a      	ands	r2, r3
 8004420:	2a08      	cmp	r2, #8
 8004422:	d100      	bne.n	8004426 <UART_SetConfig+0xe2>
 8004424:	e0bf      	b.n	80045a6 <UART_SetConfig+0x262>
 8004426:	d80a      	bhi.n	800443e <UART_SetConfig+0xfa>
 8004428:	2300      	movs	r3, #0
 800442a:	2a00      	cmp	r2, #0
 800442c:	d0e8      	beq.n	8004400 <UART_SetConfig+0xbc>
 800442e:	3a04      	subs	r2, #4
 8004430:	1e53      	subs	r3, r2, #1
 8004432:	419a      	sbcs	r2, r3
 8004434:	4252      	negs	r2, r2
 8004436:	230c      	movs	r3, #12
 8004438:	4013      	ands	r3, r2
 800443a:	3304      	adds	r3, #4
 800443c:	e7e0      	b.n	8004400 <UART_SetConfig+0xbc>
 800443e:	3a0c      	subs	r2, #12
 8004440:	1e53      	subs	r3, r2, #1
 8004442:	419a      	sbcs	r2, r3
 8004444:	00d3      	lsls	r3, r2, #3
 8004446:	3308      	adds	r3, #8
 8004448:	e7da      	b.n	8004400 <UART_SetConfig+0xbc>
 800444a:	22c0      	movs	r2, #192	; 0xc0
 800444c:	0112      	lsls	r2, r2, #4
 800444e:	2001      	movs	r0, #1
 8004450:	4293      	cmp	r3, r2
 8004452:	d000      	beq.n	8004456 <UART_SetConfig+0x112>
 8004454:	e083      	b.n	800455e <UART_SetConfig+0x21a>
 8004456:	2380      	movs	r3, #128	; 0x80
 8004458:	021b      	lsls	r3, r3, #8
 800445a:	e012      	b.n	8004482 <UART_SetConfig+0x13e>
        pclk = HAL_RCC_GetPCLK1Freq();
 800445c:	f7ff f97c 	bl	8003758 <HAL_RCC_GetPCLK1Freq>
 8004460:	0003      	movs	r3, r0
    if (pclk != 0U)
 8004462:	2000      	movs	r0, #0
 8004464:	2b00      	cmp	r3, #0
 8004466:	d07a      	beq.n	800455e <UART_SetConfig+0x21a>
 8004468:	e00b      	b.n	8004482 <UART_SetConfig+0x13e>
        if (__HAL_RCC_GET_FLAG(RCC_FLAG_HSIDIV) != 0U)
 800446a:	4b5a      	ldr	r3, [pc, #360]	; (80045d4 <UART_SetConfig+0x290>)
 800446c:	681a      	ldr	r2, [r3, #0]
 800446e:	2310      	movs	r3, #16
 8004470:	4013      	ands	r3, r2
          pclk = (uint32_t)(HSI_VALUE >> 2U);
 8004472:	425a      	negs	r2, r3
 8004474:	4153      	adcs	r3, r2
 8004476:	425b      	negs	r3, r3
 8004478:	4858      	ldr	r0, [pc, #352]	; (80045dc <UART_SetConfig+0x298>)
 800447a:	4003      	ands	r3, r0
 800447c:	4a58      	ldr	r2, [pc, #352]	; (80045e0 <UART_SetConfig+0x29c>)
 800447e:	4694      	mov	ip, r2
 8004480:	4463      	add	r3, ip
      if ((pclk < (3U * huart->Init.BaudRate)) ||
 8004482:	6862      	ldr	r2, [r4, #4]
 8004484:	0051      	lsls	r1, r2, #1
 8004486:	1889      	adds	r1, r1, r2
        ret = HAL_ERROR;
 8004488:	2001      	movs	r0, #1
      if ((pclk < (3U * huart->Init.BaudRate)) ||
 800448a:	428b      	cmp	r3, r1
 800448c:	d367      	bcc.n	800455e <UART_SetConfig+0x21a>
          (pclk > (4096U * huart->Init.BaudRate)))
 800448e:	0311      	lsls	r1, r2, #12
      if ((pclk < (3U * huart->Init.BaudRate)) ||
 8004490:	428b      	cmp	r3, r1
 8004492:	d864      	bhi.n	800455e <UART_SetConfig+0x21a>
        usartdiv = (uint32_t)(UART_DIV_LPUART(pclk, huart->Init.BaudRate));
 8004494:	0e19      	lsrs	r1, r3, #24
 8004496:	0218      	lsls	r0, r3, #8
 8004498:	0856      	lsrs	r6, r2, #1
 800449a:	2700      	movs	r7, #0
 800449c:	1980      	adds	r0, r0, r6
 800449e:	4179      	adcs	r1, r7
 80044a0:	2300      	movs	r3, #0
 80044a2:	f7fb fec7 	bl	8000234 <__aeabi_uldivmod>
 80044a6:	0003      	movs	r3, r0
        if ((usartdiv >= LPUART_BRR_MIN) && (usartdiv <= LPUART_BRR_MAX))
 80044a8:	4a4e      	ldr	r2, [pc, #312]	; (80045e4 <UART_SetConfig+0x2a0>)
 80044aa:	1881      	adds	r1, r0, r2
 80044ac:	4a4e      	ldr	r2, [pc, #312]	; (80045e8 <UART_SetConfig+0x2a4>)
          ret = HAL_ERROR;
 80044ae:	2001      	movs	r0, #1
        if ((usartdiv >= LPUART_BRR_MIN) && (usartdiv <= LPUART_BRR_MAX))
 80044b0:	4291      	cmp	r1, r2
 80044b2:	d854      	bhi.n	800455e <UART_SetConfig+0x21a>
          huart->Instance->BRR = usartdiv;
 80044b4:	6822      	ldr	r2, [r4, #0]
 80044b6:	60d3      	str	r3, [r2, #12]
 80044b8:	2000      	movs	r0, #0
 80044ba:	e050      	b.n	800455e <UART_SetConfig+0x21a>
    switch (clocksource)
 80044bc:	2b08      	cmp	r3, #8
 80044be:	d86a      	bhi.n	8004596 <UART_SetConfig+0x252>
 80044c0:	009b      	lsls	r3, r3, #2
 80044c2:	494a      	ldr	r1, [pc, #296]	; (80045ec <UART_SetConfig+0x2a8>)
 80044c4:	58cb      	ldr	r3, [r1, r3]
 80044c6:	469f      	mov	pc, r3
        pclk = HAL_RCC_GetPCLK1Freq();
 80044c8:	f7ff f946 	bl	8003758 <HAL_RCC_GetPCLK1Freq>
 80044cc:	0002      	movs	r2, r0
    if (pclk != 0U)
 80044ce:	2000      	movs	r0, #0
 80044d0:	2a00      	cmp	r2, #0
 80044d2:	d044      	beq.n	800455e <UART_SetConfig+0x21a>
      usartdiv = (uint16_t)(UART_DIV_SAMPLING8(pclk, huart->Init.BaudRate));
 80044d4:	0050      	lsls	r0, r2, #1
 80044d6:	6863      	ldr	r3, [r4, #4]
 80044d8:	085a      	lsrs	r2, r3, #1
 80044da:	1880      	adds	r0, r0, r2
 80044dc:	0019      	movs	r1, r3
 80044de:	f7fb fe1d 	bl	800011c <__udivsi3>
 80044e2:	0003      	movs	r3, r0
 80044e4:	0402      	lsls	r2, r0, #16
 80044e6:	0c12      	lsrs	r2, r2, #16
      if ((usartdiv >= UART_BRR_MIN) && (usartdiv <= UART_BRR_MAX))
 80044e8:	0016      	movs	r6, r2
 80044ea:	3e10      	subs	r6, #16
 80044ec:	4940      	ldr	r1, [pc, #256]	; (80045f0 <UART_SetConfig+0x2ac>)
        ret = HAL_ERROR;
 80044ee:	2001      	movs	r0, #1
      if ((usartdiv >= UART_BRR_MIN) && (usartdiv <= UART_BRR_MAX))
 80044f0:	428e      	cmp	r6, r1
 80044f2:	d834      	bhi.n	800455e <UART_SetConfig+0x21a>
        brrtemp = (uint16_t)(usartdiv & 0xFFF0U);
 80044f4:	483f      	ldr	r0, [pc, #252]	; (80045f4 <UART_SetConfig+0x2b0>)
 80044f6:	4003      	ands	r3, r0
        huart->Instance->BRR = brrtemp;
 80044f8:	6821      	ldr	r1, [r4, #0]
        brrtemp |= (uint16_t)((usartdiv & (uint16_t)0x000FU) >> 1U);
 80044fa:	0712      	lsls	r2, r2, #28
 80044fc:	0f52      	lsrs	r2, r2, #29
        huart->Instance->BRR = brrtemp;
 80044fe:	4313      	orrs	r3, r2
 8004500:	60cb      	str	r3, [r1, #12]
 8004502:	2000      	movs	r0, #0
 8004504:	e02b      	b.n	800455e <UART_SetConfig+0x21a>
        pclk = HAL_RCC_GetPCLK2Freq();
 8004506:	f7ff f937 	bl	8003778 <HAL_RCC_GetPCLK2Freq>
 800450a:	0002      	movs	r2, r0
        break;
 800450c:	e7df      	b.n	80044ce <UART_SetConfig+0x18a>
        if (__HAL_RCC_GET_FLAG(RCC_FLAG_HSIDIV) != 0U)
 800450e:	4b31      	ldr	r3, [pc, #196]	; (80045d4 <UART_SetConfig+0x290>)
 8004510:	6818      	ldr	r0, [r3, #0]
 8004512:	2210      	movs	r2, #16
 8004514:	4002      	ands	r2, r0
          pclk = (uint32_t)(HSI_VALUE >> 2U);
 8004516:	4253      	negs	r3, r2
 8004518:	415a      	adcs	r2, r3
 800451a:	4250      	negs	r0, r2
 800451c:	4a2f      	ldr	r2, [pc, #188]	; (80045dc <UART_SetConfig+0x298>)
 800451e:	4002      	ands	r2, r0
 8004520:	4b2f      	ldr	r3, [pc, #188]	; (80045e0 <UART_SetConfig+0x29c>)
 8004522:	469c      	mov	ip, r3
 8004524:	4462      	add	r2, ip
 8004526:	e7d5      	b.n	80044d4 <UART_SetConfig+0x190>
        pclk = HAL_RCC_GetSysClockFreq();
 8004528:	f7fe fcb6 	bl	8002e98 <HAL_RCC_GetSysClockFreq>
 800452c:	0002      	movs	r2, r0
        break;
 800452e:	e7ce      	b.n	80044ce <UART_SetConfig+0x18a>
    {
      case UART_CLOCKSOURCE_PCLK1:
        pclk = HAL_RCC_GetPCLK1Freq();
 8004530:	f7ff f912 	bl	8003758 <HAL_RCC_GetPCLK1Freq>
 8004534:	0003      	movs	r3, r0
        pclk = 0U;
        ret = HAL_ERROR;
        break;
    }

    if (pclk != 0U)
 8004536:	2000      	movs	r0, #0
 8004538:	2b00      	cmp	r3, #0
 800453a:	d010      	beq.n	800455e <UART_SetConfig+0x21a>
    {
      /* USARTDIV must be greater than or equal to 0d16 */
      usartdiv = (uint16_t)(UART_DIV_SAMPLING16(pclk, huart->Init.BaudRate));
 800453c:	6862      	ldr	r2, [r4, #4]
 800453e:	0850      	lsrs	r0, r2, #1
 8004540:	18c0      	adds	r0, r0, r3
 8004542:	0011      	movs	r1, r2
 8004544:	f7fb fdea 	bl	800011c <__udivsi3>
 8004548:	0403      	lsls	r3, r0, #16
 800454a:	0c1b      	lsrs	r3, r3, #16
      if ((usartdiv >= UART_BRR_MIN) && (usartdiv <= UART_BRR_MAX))
 800454c:	0019      	movs	r1, r3
 800454e:	3910      	subs	r1, #16
 8004550:	4a27      	ldr	r2, [pc, #156]	; (80045f0 <UART_SetConfig+0x2ac>)
      {
        huart->Instance->BRR = usartdiv;
      }
      else
      {
        ret = HAL_ERROR;
 8004552:	2001      	movs	r0, #1
      if ((usartdiv >= UART_BRR_MIN) && (usartdiv <= UART_BRR_MAX))
 8004554:	4291      	cmp	r1, r2
 8004556:	d802      	bhi.n	800455e <UART_SetConfig+0x21a>
        huart->Instance->BRR = usartdiv;
 8004558:	6822      	ldr	r2, [r4, #0]
 800455a:	60d3      	str	r3, [r2, #12]
 800455c:	2000      	movs	r0, #0
    }
  }


  /* Clear ISR function pointers */
  huart->RxISR = NULL;
 800455e:	2300      	movs	r3, #0
 8004560:	6663      	str	r3, [r4, #100]	; 0x64
  huart->TxISR = NULL;
 8004562:	66a3      	str	r3, [r4, #104]	; 0x68

  return ret;
}
 8004564:	bdd0      	pop	{r4, r6, r7, pc}
        pclk = HAL_RCC_GetPCLK2Freq();
 8004566:	f7ff f907 	bl	8003778 <HAL_RCC_GetPCLK2Freq>
 800456a:	0003      	movs	r3, r0
        break;
 800456c:	e7e3      	b.n	8004536 <UART_SetConfig+0x1f2>
        if (__HAL_RCC_GET_FLAG(RCC_FLAG_HSIDIV) != 0U)
 800456e:	4b19      	ldr	r3, [pc, #100]	; (80045d4 <UART_SetConfig+0x290>)
 8004570:	6818      	ldr	r0, [r3, #0]
 8004572:	2310      	movs	r3, #16
 8004574:	4003      	ands	r3, r0
          pclk = (uint32_t)(HSI_VALUE >> 2U);
 8004576:	425a      	negs	r2, r3
 8004578:	4153      	adcs	r3, r2
 800457a:	4258      	negs	r0, r3
 800457c:	4b17      	ldr	r3, [pc, #92]	; (80045dc <UART_SetConfig+0x298>)
 800457e:	4003      	ands	r3, r0
 8004580:	4a17      	ldr	r2, [pc, #92]	; (80045e0 <UART_SetConfig+0x29c>)
 8004582:	4694      	mov	ip, r2
 8004584:	4463      	add	r3, ip
 8004586:	e7d9      	b.n	800453c <UART_SetConfig+0x1f8>
        pclk = HAL_RCC_GetSysClockFreq();
 8004588:	f7fe fc86 	bl	8002e98 <HAL_RCC_GetSysClockFreq>
 800458c:	0003      	movs	r3, r0
        break;
 800458e:	e7d2      	b.n	8004536 <UART_SetConfig+0x1f2>
    switch (clocksource)
 8004590:	2380      	movs	r3, #128	; 0x80
 8004592:	021b      	lsls	r3, r3, #8
 8004594:	e7d2      	b.n	800453c <UART_SetConfig+0x1f8>
    switch (clocksource)
 8004596:	2001      	movs	r0, #1
 8004598:	e7e1      	b.n	800455e <UART_SetConfig+0x21a>
    switch (clocksource)
 800459a:	2001      	movs	r0, #1
 800459c:	e7df      	b.n	800455e <UART_SetConfig+0x21a>
  UART_GETCLOCKSOURCE(huart, clocksource);
 800459e:	2302      	movs	r3, #2
 80045a0:	e72e      	b.n	8004400 <UART_SetConfig+0xbc>
 80045a2:	2308      	movs	r3, #8
 80045a4:	e72c      	b.n	8004400 <UART_SetConfig+0xbc>
 80045a6:	2302      	movs	r3, #2
 80045a8:	e72a      	b.n	8004400 <UART_SetConfig+0xbc>
 80045aa:	2300      	movs	r3, #0
 80045ac:	e728      	b.n	8004400 <UART_SetConfig+0xbc>
 80045ae:	2300      	movs	r3, #0
 80045b0:	e726      	b.n	8004400 <UART_SetConfig+0xbc>
 80045b2:	46c0      	nop			; (mov r8, r8)
 80045b4:	efff69f3 	.word	0xefff69f3
 80045b8:	ffffcfff 	.word	0xffffcfff
 80045bc:	40004800 	.word	0x40004800
 80045c0:	fffff4ff 	.word	0xfffff4ff
 80045c4:	40013800 	.word	0x40013800
 80045c8:	40004400 	.word	0x40004400
 80045cc:	40004c00 	.word	0x40004c00
 80045d0:	40005000 	.word	0x40005000
 80045d4:	40021000 	.word	0x40021000
 80045d8:	08007e5c 	.word	0x08007e5c
 80045dc:	00b71b00 	.word	0x00b71b00
 80045e0:	003d0900 	.word	0x003d0900
 80045e4:	fffffd00 	.word	0xfffffd00
 80045e8:	000ffcff 	.word	0x000ffcff
 80045ec:	08007e80 	.word	0x08007e80
 80045f0:	0000ffef 	.word	0x0000ffef
 80045f4:	0000fff0 	.word	0x0000fff0

080045f8 <UART_AdvFeatureConfig>:
{
  /* Check whether the set of advanced features to configure is properly set */
  assert_param(IS_UART_ADVFEATURE_INIT(huart->AdvancedInit.AdvFeatureInit));

  /* if required, configure TX pin active level inversion */
  if (HAL_IS_BIT_SET(huart->AdvancedInit.AdvFeatureInit, UART_ADVFEATURE_TXINVERT_INIT))
 80045f8:	6a43      	ldr	r3, [r0, #36]	; 0x24
 80045fa:	07db      	lsls	r3, r3, #31
 80045fc:	d506      	bpl.n	800460c <UART_AdvFeatureConfig+0x14>
  {
    assert_param(IS_UART_ADVFEATURE_TXINV(huart->AdvancedInit.TxPinLevelInvert));
    MODIFY_REG(huart->Instance->CR2, USART_CR2_TXINV, huart->AdvancedInit.TxPinLevelInvert);
 80045fe:	6802      	ldr	r2, [r0, #0]
 8004600:	6853      	ldr	r3, [r2, #4]
 8004602:	492c      	ldr	r1, [pc, #176]	; (80046b4 <UART_AdvFeatureConfig+0xbc>)
 8004604:	400b      	ands	r3, r1
 8004606:	6a81      	ldr	r1, [r0, #40]	; 0x28
 8004608:	430b      	orrs	r3, r1
 800460a:	6053      	str	r3, [r2, #4]
  }

  /* if required, configure RX pin active level inversion */
  if (HAL_IS_BIT_SET(huart->AdvancedInit.AdvFeatureInit, UART_ADVFEATURE_RXINVERT_INIT))
 800460c:	6a43      	ldr	r3, [r0, #36]	; 0x24
 800460e:	079b      	lsls	r3, r3, #30
 8004610:	d506      	bpl.n	8004620 <UART_AdvFeatureConfig+0x28>
  {
    assert_param(IS_UART_ADVFEATURE_RXINV(huart->AdvancedInit.RxPinLevelInvert));
    MODIFY_REG(huart->Instance->CR2, USART_CR2_RXINV, huart->AdvancedInit.RxPinLevelInvert);
 8004612:	6802      	ldr	r2, [r0, #0]
 8004614:	6853      	ldr	r3, [r2, #4]
 8004616:	4928      	ldr	r1, [pc, #160]	; (80046b8 <UART_AdvFeatureConfig+0xc0>)
 8004618:	400b      	ands	r3, r1
 800461a:	6ac1      	ldr	r1, [r0, #44]	; 0x2c
 800461c:	430b      	orrs	r3, r1
 800461e:	6053      	str	r3, [r2, #4]
  }

  /* if required, configure data inversion */
  if (HAL_IS_BIT_SET(huart->AdvancedInit.AdvFeatureInit, UART_ADVFEATURE_DATAINVERT_INIT))
 8004620:	6a43      	ldr	r3, [r0, #36]	; 0x24
 8004622:	075b      	lsls	r3, r3, #29
 8004624:	d506      	bpl.n	8004634 <UART_AdvFeatureConfig+0x3c>
  {
    assert_param(IS_UART_ADVFEATURE_DATAINV(huart->AdvancedInit.DataInvert));
    MODIFY_REG(huart->Instance->CR2, USART_CR2_DATAINV, huart->AdvancedInit.DataInvert);
 8004626:	6802      	ldr	r2, [r0, #0]
 8004628:	6853      	ldr	r3, [r2, #4]
 800462a:	4924      	ldr	r1, [pc, #144]	; (80046bc <UART_AdvFeatureConfig+0xc4>)
 800462c:	400b      	ands	r3, r1
 800462e:	6b01      	ldr	r1, [r0, #48]	; 0x30
 8004630:	430b      	orrs	r3, r1
 8004632:	6053      	str	r3, [r2, #4]
  }

  /* if required, configure RX/TX pins swap */
  if (HAL_IS_BIT_SET(huart->AdvancedInit.AdvFeatureInit, UART_ADVFEATURE_SWAP_INIT))
 8004634:	6a43      	ldr	r3, [r0, #36]	; 0x24
 8004636:	071b      	lsls	r3, r3, #28
 8004638:	d506      	bpl.n	8004648 <UART_AdvFeatureConfig+0x50>
  {
    assert_param(IS_UART_ADVFEATURE_SWAP(huart->AdvancedInit.Swap));
    MODIFY_REG(huart->Instance->CR2, USART_CR2_SWAP, huart->AdvancedInit.Swap);
 800463a:	6802      	ldr	r2, [r0, #0]
 800463c:	6853      	ldr	r3, [r2, #4]
 800463e:	4920      	ldr	r1, [pc, #128]	; (80046c0 <UART_AdvFeatureConfig+0xc8>)
 8004640:	400b      	ands	r3, r1
 8004642:	6b41      	ldr	r1, [r0, #52]	; 0x34
 8004644:	430b      	orrs	r3, r1
 8004646:	6053      	str	r3, [r2, #4]
  }

  /* if required, configure RX overrun detection disabling */
  if (HAL_IS_BIT_SET(huart->AdvancedInit.AdvFeatureInit, UART_ADVFEATURE_RXOVERRUNDISABLE_INIT))
 8004648:	6a43      	ldr	r3, [r0, #36]	; 0x24
 800464a:	06db      	lsls	r3, r3, #27
 800464c:	d506      	bpl.n	800465c <UART_AdvFeatureConfig+0x64>
  {
    assert_param(IS_UART_OVERRUN(huart->AdvancedInit.OverrunDisable));
    MODIFY_REG(huart->Instance->CR3, USART_CR3_OVRDIS, huart->AdvancedInit.OverrunDisable);
 800464e:	6802      	ldr	r2, [r0, #0]
 8004650:	6893      	ldr	r3, [r2, #8]
 8004652:	491c      	ldr	r1, [pc, #112]	; (80046c4 <UART_AdvFeatureConfig+0xcc>)
 8004654:	400b      	ands	r3, r1
 8004656:	6b81      	ldr	r1, [r0, #56]	; 0x38
 8004658:	430b      	orrs	r3, r1
 800465a:	6093      	str	r3, [r2, #8]
  }

  /* if required, configure DMA disabling on reception error */
  if (HAL_IS_BIT_SET(huart->AdvancedInit.AdvFeatureInit, UART_ADVFEATURE_DMADISABLEONERROR_INIT))
 800465c:	6a43      	ldr	r3, [r0, #36]	; 0x24
 800465e:	069b      	lsls	r3, r3, #26
 8004660:	d506      	bpl.n	8004670 <UART_AdvFeatureConfig+0x78>
  {
    assert_param(IS_UART_ADVFEATURE_DMAONRXERROR(huart->AdvancedInit.DMADisableonRxError));
    MODIFY_REG(huart->Instance->CR3, USART_CR3_DDRE, huart->AdvancedInit.DMADisableonRxError);
 8004662:	6802      	ldr	r2, [r0, #0]
 8004664:	6893      	ldr	r3, [r2, #8]
 8004666:	4918      	ldr	r1, [pc, #96]	; (80046c8 <UART_AdvFeatureConfig+0xd0>)
 8004668:	400b      	ands	r3, r1
 800466a:	6bc1      	ldr	r1, [r0, #60]	; 0x3c
 800466c:	430b      	orrs	r3, r1
 800466e:	6093      	str	r3, [r2, #8]
  }

  /* if required, configure auto Baud rate detection scheme */
  if (HAL_IS_BIT_SET(huart->AdvancedInit.AdvFeatureInit, UART_ADVFEATURE_AUTOBAUDRATE_INIT))
 8004670:	6a43      	ldr	r3, [r0, #36]	; 0x24
 8004672:	065b      	lsls	r3, r3, #25
 8004674:	d50b      	bpl.n	800468e <UART_AdvFeatureConfig+0x96>
  {
    assert_param(IS_USART_AUTOBAUDRATE_DETECTION_INSTANCE(huart->Instance));
    assert_param(IS_UART_ADVFEATURE_AUTOBAUDRATE(huart->AdvancedInit.AutoBaudRateEnable));
    MODIFY_REG(huart->Instance->CR2, USART_CR2_ABREN, huart->AdvancedInit.AutoBaudRateEnable);
 8004676:	6802      	ldr	r2, [r0, #0]
 8004678:	6853      	ldr	r3, [r2, #4]
 800467a:	4914      	ldr	r1, [pc, #80]	; (80046cc <UART_AdvFeatureConfig+0xd4>)
 800467c:	400b      	ands	r3, r1
 800467e:	6c01      	ldr	r1, [r0, #64]	; 0x40
 8004680:	430b      	orrs	r3, r1
 8004682:	6053      	str	r3, [r2, #4]
    /* set auto Baudrate detection parameters if detection is enabled */
    if (huart->AdvancedInit.AutoBaudRateEnable == UART_ADVFEATURE_AUTOBAUDRATE_ENABLE)
 8004684:	2380      	movs	r3, #128	; 0x80
 8004686:	035b      	lsls	r3, r3, #13
 8004688:	6c02      	ldr	r2, [r0, #64]	; 0x40
 800468a:	429a      	cmp	r2, r3
 800468c:	d00a      	beq.n	80046a4 <UART_AdvFeatureConfig+0xac>
      MODIFY_REG(huart->Instance->CR2, USART_CR2_ABRMODE, huart->AdvancedInit.AutoBaudRateMode);
    }
  }

  /* if required, configure MSB first on communication line */
  if (HAL_IS_BIT_SET(huart->AdvancedInit.AdvFeatureInit, UART_ADVFEATURE_MSBFIRST_INIT))
 800468e:	6a43      	ldr	r3, [r0, #36]	; 0x24
 8004690:	061b      	lsls	r3, r3, #24
 8004692:	d506      	bpl.n	80046a2 <UART_AdvFeatureConfig+0xaa>
  {
    assert_param(IS_UART_ADVFEATURE_MSBFIRST(huart->AdvancedInit.MSBFirst));
    MODIFY_REG(huart->Instance->CR2, USART_CR2_MSBFIRST, huart->AdvancedInit.MSBFirst);
 8004694:	6802      	ldr	r2, [r0, #0]
 8004696:	6853      	ldr	r3, [r2, #4]
 8004698:	490d      	ldr	r1, [pc, #52]	; (80046d0 <UART_AdvFeatureConfig+0xd8>)
 800469a:	400b      	ands	r3, r1
 800469c:	6c81      	ldr	r1, [r0, #72]	; 0x48
 800469e:	430b      	orrs	r3, r1
 80046a0:	6053      	str	r3, [r2, #4]
  }
}
 80046a2:	4770      	bx	lr
      MODIFY_REG(huart->Instance->CR2, USART_CR2_ABRMODE, huart->AdvancedInit.AutoBaudRateMode);
 80046a4:	6802      	ldr	r2, [r0, #0]
 80046a6:	6853      	ldr	r3, [r2, #4]
 80046a8:	490a      	ldr	r1, [pc, #40]	; (80046d4 <UART_AdvFeatureConfig+0xdc>)
 80046aa:	400b      	ands	r3, r1
 80046ac:	6c41      	ldr	r1, [r0, #68]	; 0x44
 80046ae:	430b      	orrs	r3, r1
 80046b0:	6053      	str	r3, [r2, #4]
 80046b2:	e7ec      	b.n	800468e <UART_AdvFeatureConfig+0x96>
 80046b4:	fffdffff 	.word	0xfffdffff
 80046b8:	fffeffff 	.word	0xfffeffff
 80046bc:	fffbffff 	.word	0xfffbffff
 80046c0:	ffff7fff 	.word	0xffff7fff
 80046c4:	ffffefff 	.word	0xffffefff
 80046c8:	ffffdfff 	.word	0xffffdfff
 80046cc:	ffefffff 	.word	0xffefffff
 80046d0:	fff7ffff 	.word	0xfff7ffff
 80046d4:	ff9fffff 	.word	0xff9fffff

080046d8 <UART_WaitOnFlagUntilTimeout>:
  * @param Timeout   Timeout duration
  * @retval HAL status
  */
HAL_StatusTypeDef UART_WaitOnFlagUntilTimeout(UART_HandleTypeDef *huart, uint32_t Flag, FlagStatus Status,
                                              uint32_t Tickstart, uint32_t Timeout)
{
 80046d8:	b5f8      	push	{r3, r4, r5, r6, r7, lr}
 80046da:	46de      	mov	lr, fp
 80046dc:	4657      	mov	r7, sl
 80046de:	464e      	mov	r6, r9
 80046e0:	4645      	mov	r5, r8
 80046e2:	b5e0      	push	{r5, r6, r7, lr}
 80046e4:	4680      	mov	r8, r0
 80046e6:	000d      	movs	r5, r1
 80046e8:	0016      	movs	r6, r2
 80046ea:	4699      	mov	r9, r3
 80046ec:	9f0a      	ldr	r7, [sp, #40]	; 0x28
        __HAL_UNLOCK(huart);

        return HAL_TIMEOUT;
      }

      if (READ_BIT(huart->Instance->CR1, USART_CR1_RE) != 0U)
 80046ee:	2304      	movs	r3, #4
 80046f0:	469a      	mov	sl, r3
      {
        if (__HAL_UART_GET_FLAG(huart, UART_FLAG_RTOF) == SET)
 80046f2:	2380      	movs	r3, #128	; 0x80
 80046f4:	011b      	lsls	r3, r3, #4
 80046f6:	469b      	mov	fp, r3
  while ((__HAL_UART_GET_FLAG(huart, Flag) ? SET : RESET) == Status)
 80046f8:	4643      	mov	r3, r8
 80046fa:	681b      	ldr	r3, [r3, #0]
 80046fc:	69dc      	ldr	r4, [r3, #28]
 80046fe:	402c      	ands	r4, r5
 8004700:	1b64      	subs	r4, r4, r5
 8004702:	4262      	negs	r2, r4
 8004704:	4154      	adcs	r4, r2
 8004706:	42b4      	cmp	r4, r6
 8004708:	d15c      	bne.n	80047c4 <UART_WaitOnFlagUntilTimeout+0xec>
    if (Timeout != HAL_MAX_DELAY)
 800470a:	1c7a      	adds	r2, r7, #1
 800470c:	d0f6      	beq.n	80046fc <UART_WaitOnFlagUntilTimeout+0x24>
      if (((HAL_GetTick() - Tickstart) > Timeout) || (Timeout == 0U))
 800470e:	f7fd feff 	bl	8002510 <HAL_GetTick>
 8004712:	464b      	mov	r3, r9
 8004714:	1ac0      	subs	r0, r0, r3
 8004716:	42b8      	cmp	r0, r7
 8004718:	d832      	bhi.n	8004780 <UART_WaitOnFlagUntilTimeout+0xa8>
 800471a:	2f00      	cmp	r7, #0
 800471c:	d030      	beq.n	8004780 <UART_WaitOnFlagUntilTimeout+0xa8>
      if (READ_BIT(huart->Instance->CR1, USART_CR1_RE) != 0U)
 800471e:	4643      	mov	r3, r8
 8004720:	681b      	ldr	r3, [r3, #0]
 8004722:	681a      	ldr	r2, [r3, #0]
 8004724:	4651      	mov	r1, sl
 8004726:	4211      	tst	r1, r2
 8004728:	d0e6      	beq.n	80046f8 <UART_WaitOnFlagUntilTimeout+0x20>
        if (__HAL_UART_GET_FLAG(huart, UART_FLAG_RTOF) == SET)
 800472a:	69da      	ldr	r2, [r3, #28]
 800472c:	4659      	mov	r1, fp
 800472e:	420a      	tst	r2, r1
 8004730:	d0e2      	beq.n	80046f8 <UART_WaitOnFlagUntilTimeout+0x20>
        {
          /* Clear Receiver Timeout flag*/
          __HAL_UART_CLEAR_FLAG(huart, UART_CLEAR_RTOF);
 8004732:	2280      	movs	r2, #128	; 0x80
 8004734:	0112      	lsls	r2, r2, #4
 8004736:	621a      	str	r2, [r3, #32]
 */
__STATIC_FORCEINLINE uint32_t __get_PRIMASK(void)
{
  uint32_t result;

  __ASM volatile ("MRS %0, primask" : "=r" (result) :: "memory");
 8004738:	f3ef 8010 	mrs	r0, PRIMASK
  \details Assigns the given value to the Priority Mask Register.
  \param [in]    priMask  Priority Mask
 */
__STATIC_FORCEINLINE void __set_PRIMASK(uint32_t priMask)
{
  __ASM volatile ("MSR primask, %0" : : "r" (priMask) : "memory");
 800473c:	2201      	movs	r2, #1
 800473e:	f382 8810 	msr	PRIMASK, r2

          /* Disable TXE, RXNE, PE and ERR (Frame error, noise error, overrun error)
             interrupts for the interrupt process */
          ATOMIC_CLEAR_BIT(huart->Instance->CR1, (USART_CR1_RXNEIE | USART_CR1_PEIE | USART_CR1_TXEIE));
 8004742:	4643      	mov	r3, r8
 8004744:	6819      	ldr	r1, [r3, #0]
 8004746:	680b      	ldr	r3, [r1, #0]
 8004748:	4c22      	ldr	r4, [pc, #136]	; (80047d4 <UART_WaitOnFlagUntilTimeout+0xfc>)
 800474a:	4023      	ands	r3, r4
 800474c:	600b      	str	r3, [r1, #0]
 800474e:	f380 8810 	msr	PRIMASK, r0
  __ASM volatile ("MRS %0, primask" : "=r" (result) :: "memory");
 8004752:	f3ef 8010 	mrs	r0, PRIMASK
  __ASM volatile ("MSR primask, %0" : : "r" (priMask) : "memory");
 8004756:	f382 8810 	msr	PRIMASK, r2
          ATOMIC_CLEAR_BIT(huart->Instance->CR3, USART_CR3_EIE);
 800475a:	4643      	mov	r3, r8
 800475c:	6819      	ldr	r1, [r3, #0]
 800475e:	688b      	ldr	r3, [r1, #8]
 8004760:	4393      	bics	r3, r2
 8004762:	608b      	str	r3, [r1, #8]
 8004764:	f380 8810 	msr	PRIMASK, r0

          huart->gState = HAL_UART_STATE_READY;
 8004768:	2320      	movs	r3, #32
 800476a:	4642      	mov	r2, r8
 800476c:	6793      	str	r3, [r2, #120]	; 0x78
          huart->RxState = HAL_UART_STATE_READY;
 800476e:	67d3      	str	r3, [r2, #124]	; 0x7c
          huart->ErrorCode = HAL_UART_ERROR_RTO;
 8004770:	2280      	movs	r2, #128	; 0x80
 8004772:	4641      	mov	r1, r8
 8004774:	508b      	str	r3, [r1, r2]

          /* Process Unlocked */
          __HAL_UNLOCK(huart);
 8004776:	3354      	adds	r3, #84	; 0x54
 8004778:	2200      	movs	r2, #0
 800477a:	54ca      	strb	r2, [r1, r3]

          return HAL_TIMEOUT;
 800477c:	2003      	movs	r0, #3
 800477e:	e022      	b.n	80047c6 <UART_WaitOnFlagUntilTimeout+0xee>
  __ASM volatile ("MRS %0, primask" : "=r" (result) :: "memory");
 8004780:	f3ef 8010 	mrs	r0, PRIMASK
  __ASM volatile ("MSR primask, %0" : : "r" (priMask) : "memory");
 8004784:	2201      	movs	r2, #1
 8004786:	f382 8810 	msr	PRIMASK, r2
        ATOMIC_CLEAR_BIT(huart->Instance->CR1, (USART_CR1_RXNEIE | USART_CR1_PEIE | USART_CR1_TXEIE));
 800478a:	4643      	mov	r3, r8
 800478c:	6819      	ldr	r1, [r3, #0]
 800478e:	680b      	ldr	r3, [r1, #0]
 8004790:	4c10      	ldr	r4, [pc, #64]	; (80047d4 <UART_WaitOnFlagUntilTimeout+0xfc>)
 8004792:	4023      	ands	r3, r4
 8004794:	600b      	str	r3, [r1, #0]
 8004796:	f380 8810 	msr	PRIMASK, r0
  __ASM volatile ("MRS %0, primask" : "=r" (result) :: "memory");
 800479a:	f3ef 8010 	mrs	r0, PRIMASK
  __ASM volatile ("MSR primask, %0" : : "r" (priMask) : "memory");
 800479e:	f382 8810 	msr	PRIMASK, r2
        ATOMIC_CLEAR_BIT(huart->Instance->CR3, USART_CR3_EIE);
 80047a2:	4643      	mov	r3, r8
 80047a4:	6819      	ldr	r1, [r3, #0]
 80047a6:	688b      	ldr	r3, [r1, #8]
 80047a8:	4393      	bics	r3, r2
 80047aa:	608b      	str	r3, [r1, #8]
 80047ac:	f380 8810 	msr	PRIMASK, r0
        huart->gState = HAL_UART_STATE_READY;
 80047b0:	2320      	movs	r3, #32
 80047b2:	4642      	mov	r2, r8
 80047b4:	6793      	str	r3, [r2, #120]	; 0x78
        huart->RxState = HAL_UART_STATE_READY;
 80047b6:	67d3      	str	r3, [r2, #124]	; 0x7c
        __HAL_UNLOCK(huart);
 80047b8:	3354      	adds	r3, #84	; 0x54
 80047ba:	2200      	movs	r2, #0
 80047bc:	4641      	mov	r1, r8
 80047be:	54ca      	strb	r2, [r1, r3]
        return HAL_TIMEOUT;
 80047c0:	2003      	movs	r0, #3
 80047c2:	e000      	b.n	80047c6 <UART_WaitOnFlagUntilTimeout+0xee>
        }
      }
    }
  }
  return HAL_OK;
 80047c4:	2000      	movs	r0, #0
}
 80047c6:	bcf0      	pop	{r4, r5, r6, r7}
 80047c8:	46bb      	mov	fp, r7
 80047ca:	46b2      	mov	sl, r6
 80047cc:	46a9      	mov	r9, r5
 80047ce:	46a0      	mov	r8, r4
 80047d0:	bdf8      	pop	{r3, r4, r5, r6, r7, pc}
 80047d2:	46c0      	nop			; (mov r8, r8)
 80047d4:	fffffe5f 	.word	0xfffffe5f

080047d8 <UART_CheckIdleState>:
{
 80047d8:	b530      	push	{r4, r5, lr}
 80047da:	b083      	sub	sp, #12
 80047dc:	0004      	movs	r4, r0
  huart->ErrorCode = HAL_UART_ERROR_NONE;
 80047de:	2380      	movs	r3, #128	; 0x80
 80047e0:	2200      	movs	r2, #0
 80047e2:	50c2      	str	r2, [r0, r3]
  tickstart = HAL_GetTick();
 80047e4:	f7fd fe94 	bl	8002510 <HAL_GetTick>
 80047e8:	0005      	movs	r5, r0
  if ((huart->Instance->CR1 & USART_CR1_TE) == USART_CR1_TE)
 80047ea:	6822      	ldr	r2, [r4, #0]
 80047ec:	6812      	ldr	r2, [r2, #0]
 80047ee:	0713      	lsls	r3, r2, #28
 80047f0:	d40d      	bmi.n	800480e <UART_CheckIdleState+0x36>
  if ((huart->Instance->CR1 & USART_CR1_RE) == USART_CR1_RE)
 80047f2:	6823      	ldr	r3, [r4, #0]
 80047f4:	681b      	ldr	r3, [r3, #0]
 80047f6:	075b      	lsls	r3, r3, #29
 80047f8:	d416      	bmi.n	8004828 <UART_CheckIdleState+0x50>
  huart->gState = HAL_UART_STATE_READY;
 80047fa:	2320      	movs	r3, #32
 80047fc:	67a3      	str	r3, [r4, #120]	; 0x78
  huart->RxState = HAL_UART_STATE_READY;
 80047fe:	67e3      	str	r3, [r4, #124]	; 0x7c
  huart->ReceptionType = HAL_UART_RECEPTION_STANDARD;
 8004800:	2300      	movs	r3, #0
 8004802:	6623      	str	r3, [r4, #96]	; 0x60
  __HAL_UNLOCK(huart);
 8004804:	2274      	movs	r2, #116	; 0x74
 8004806:	54a3      	strb	r3, [r4, r2]
  return HAL_OK;
 8004808:	2000      	movs	r0, #0
}
 800480a:	b003      	add	sp, #12
 800480c:	bd30      	pop	{r4, r5, pc}
    if (UART_WaitOnFlagUntilTimeout(huart, USART_ISR_TEACK, RESET, tickstart, HAL_UART_TIMEOUT_VALUE) != HAL_OK)
 800480e:	2180      	movs	r1, #128	; 0x80
 8004810:	4b0c      	ldr	r3, [pc, #48]	; (8004844 <UART_CheckIdleState+0x6c>)
 8004812:	9300      	str	r3, [sp, #0]
 8004814:	0003      	movs	r3, r0
 8004816:	2200      	movs	r2, #0
 8004818:	0389      	lsls	r1, r1, #14
 800481a:	0020      	movs	r0, r4
 800481c:	f7ff ff5c 	bl	80046d8 <UART_WaitOnFlagUntilTimeout>
 8004820:	2800      	cmp	r0, #0
 8004822:	d0e6      	beq.n	80047f2 <UART_CheckIdleState+0x1a>
      return HAL_TIMEOUT;
 8004824:	2003      	movs	r0, #3
 8004826:	e7f0      	b.n	800480a <UART_CheckIdleState+0x32>
    if (UART_WaitOnFlagUntilTimeout(huart, USART_ISR_REACK, RESET, tickstart, HAL_UART_TIMEOUT_VALUE) != HAL_OK)
 8004828:	2180      	movs	r1, #128	; 0x80
 800482a:	4b06      	ldr	r3, [pc, #24]	; (8004844 <UART_CheckIdleState+0x6c>)
 800482c:	9300      	str	r3, [sp, #0]
 800482e:	002b      	movs	r3, r5
 8004830:	2200      	movs	r2, #0
 8004832:	03c9      	lsls	r1, r1, #15
 8004834:	0020      	movs	r0, r4
 8004836:	f7ff ff4f 	bl	80046d8 <UART_WaitOnFlagUntilTimeout>
 800483a:	2800      	cmp	r0, #0
 800483c:	d0dd      	beq.n	80047fa <UART_CheckIdleState+0x22>
      return HAL_TIMEOUT;
 800483e:	2003      	movs	r0, #3
 8004840:	e7e3      	b.n	800480a <UART_CheckIdleState+0x32>
 8004842:	46c0      	nop			; (mov r8, r8)
 8004844:	01ffffff 	.word	0x01ffffff

08004848 <HAL_UART_Init>:
{
 8004848:	b510      	push	{r4, lr}
 800484a:	1e04      	subs	r4, r0, #0
  if (huart == NULL)
 800484c:	d02e      	beq.n	80048ac <HAL_UART_Init+0x64>
  if (huart->gState == HAL_UART_STATE_RESET)
 800484e:	6f83      	ldr	r3, [r0, #120]	; 0x78
 8004850:	2b00      	cmp	r3, #0
 8004852:	d021      	beq.n	8004898 <HAL_UART_Init+0x50>
  huart->gState = HAL_UART_STATE_BUSY;
 8004854:	2324      	movs	r3, #36	; 0x24
 8004856:	67a3      	str	r3, [r4, #120]	; 0x78
  __HAL_UART_DISABLE(huart);
 8004858:	6822      	ldr	r2, [r4, #0]
 800485a:	6813      	ldr	r3, [r2, #0]
 800485c:	2101      	movs	r1, #1
 800485e:	438b      	bics	r3, r1
 8004860:	6013      	str	r3, [r2, #0]
  if (UART_SetConfig(huart) == HAL_ERROR)
 8004862:	0020      	movs	r0, r4
 8004864:	f7ff fd6e 	bl	8004344 <UART_SetConfig>
 8004868:	2801      	cmp	r0, #1
 800486a:	d014      	beq.n	8004896 <HAL_UART_Init+0x4e>
  if (huart->AdvancedInit.AdvFeatureInit != UART_ADVFEATURE_NO_INIT)
 800486c:	6a63      	ldr	r3, [r4, #36]	; 0x24
 800486e:	2b00      	cmp	r3, #0
 8004870:	d118      	bne.n	80048a4 <HAL_UART_Init+0x5c>
  CLEAR_BIT(huart->Instance->CR2, (USART_CR2_LINEN | USART_CR2_CLKEN));
 8004872:	6822      	ldr	r2, [r4, #0]
 8004874:	6853      	ldr	r3, [r2, #4]
 8004876:	490e      	ldr	r1, [pc, #56]	; (80048b0 <HAL_UART_Init+0x68>)
 8004878:	400b      	ands	r3, r1
 800487a:	6053      	str	r3, [r2, #4]
  CLEAR_BIT(huart->Instance->CR3, (USART_CR3_SCEN | USART_CR3_HDSEL | USART_CR3_IREN));
 800487c:	6822      	ldr	r2, [r4, #0]
 800487e:	6893      	ldr	r3, [r2, #8]
 8004880:	212a      	movs	r1, #42	; 0x2a
 8004882:	438b      	bics	r3, r1
 8004884:	6093      	str	r3, [r2, #8]
  __HAL_UART_ENABLE(huart);
 8004886:	6822      	ldr	r2, [r4, #0]
 8004888:	6813      	ldr	r3, [r2, #0]
 800488a:	3929      	subs	r1, #41	; 0x29
 800488c:	430b      	orrs	r3, r1
 800488e:	6013      	str	r3, [r2, #0]
  return (UART_CheckIdleState(huart));
 8004890:	0020      	movs	r0, r4
 8004892:	f7ff ffa1 	bl	80047d8 <UART_CheckIdleState>
}
 8004896:	bd10      	pop	{r4, pc}
    huart->Lock = HAL_UNLOCKED;
 8004898:	3374      	adds	r3, #116	; 0x74
 800489a:	2200      	movs	r2, #0
 800489c:	54c2      	strb	r2, [r0, r3]
    HAL_UART_MspInit(huart);
 800489e:	f7fd fd99 	bl	80023d4 <HAL_UART_MspInit>
 80048a2:	e7d7      	b.n	8004854 <HAL_UART_Init+0xc>
    UART_AdvFeatureConfig(huart);
 80048a4:	0020      	movs	r0, r4
 80048a6:	f7ff fea7 	bl	80045f8 <UART_AdvFeatureConfig>
 80048aa:	e7e2      	b.n	8004872 <HAL_UART_Init+0x2a>
    return HAL_ERROR;
 80048ac:	2001      	movs	r0, #1
 80048ae:	e7f2      	b.n	8004896 <HAL_UART_Init+0x4e>
 80048b0:	ffffb7ff 	.word	0xffffb7ff

080048b4 <__errno>:
 80048b4:	4b01      	ldr	r3, [pc, #4]	; (80048bc <__errno+0x8>)
 80048b6:	6818      	ldr	r0, [r3, #0]
 80048b8:	4770      	bx	lr
 80048ba:	46c0      	nop			; (mov r8, r8)
 80048bc:	20000020 	.word	0x20000020

080048c0 <__libc_init_array>:
 80048c0:	b570      	push	{r4, r5, r6, lr}
 80048c2:	2600      	movs	r6, #0
 80048c4:	4d0c      	ldr	r5, [pc, #48]	; (80048f8 <__libc_init_array+0x38>)
 80048c6:	4c0d      	ldr	r4, [pc, #52]	; (80048fc <__libc_init_array+0x3c>)
 80048c8:	1b64      	subs	r4, r4, r5
 80048ca:	10a4      	asrs	r4, r4, #2
 80048cc:	42a6      	cmp	r6, r4
 80048ce:	d109      	bne.n	80048e4 <__libc_init_array+0x24>
 80048d0:	2600      	movs	r6, #0
 80048d2:	f000 fc8b 	bl	80051ec <_init>
 80048d6:	4d0a      	ldr	r5, [pc, #40]	; (8004900 <__libc_init_array+0x40>)
 80048d8:	4c0a      	ldr	r4, [pc, #40]	; (8004904 <__libc_init_array+0x44>)
 80048da:	1b64      	subs	r4, r4, r5
 80048dc:	10a4      	asrs	r4, r4, #2
 80048de:	42a6      	cmp	r6, r4
 80048e0:	d105      	bne.n	80048ee <__libc_init_array+0x2e>
 80048e2:	bd70      	pop	{r4, r5, r6, pc}
 80048e4:	00b3      	lsls	r3, r6, #2
 80048e6:	58eb      	ldr	r3, [r5, r3]
 80048e8:	4798      	blx	r3
 80048ea:	3601      	adds	r6, #1
 80048ec:	e7ee      	b.n	80048cc <__libc_init_array+0xc>
 80048ee:	00b3      	lsls	r3, r6, #2
 80048f0:	58eb      	ldr	r3, [r5, r3]
 80048f2:	4798      	blx	r3
 80048f4:	3601      	adds	r6, #1
 80048f6:	e7f2      	b.n	80048de <__libc_init_array+0x1e>
 80048f8:	08007ee0 	.word	0x08007ee0
 80048fc:	08007ee0 	.word	0x08007ee0
 8004900:	08007ee0 	.word	0x08007ee0
 8004904:	08007ee4 	.word	0x08007ee4

08004908 <memcpy>:
 8004908:	2300      	movs	r3, #0
 800490a:	b510      	push	{r4, lr}
 800490c:	429a      	cmp	r2, r3
 800490e:	d100      	bne.n	8004912 <memcpy+0xa>
 8004910:	bd10      	pop	{r4, pc}
 8004912:	5ccc      	ldrb	r4, [r1, r3]
 8004914:	54c4      	strb	r4, [r0, r3]
 8004916:	3301      	adds	r3, #1
 8004918:	e7f8      	b.n	800490c <memcpy+0x4>

0800491a <memset>:
 800491a:	0003      	movs	r3, r0
 800491c:	1882      	adds	r2, r0, r2
 800491e:	4293      	cmp	r3, r2
 8004920:	d100      	bne.n	8004924 <memset+0xa>
 8004922:	4770      	bx	lr
 8004924:	7019      	strb	r1, [r3, #0]
 8004926:	3301      	adds	r3, #1
 8004928:	e7f9      	b.n	800491e <memset+0x4>
	...

0800492c <siprintf>:
 800492c:	b40e      	push	{r1, r2, r3}
 800492e:	b500      	push	{lr}
 8004930:	490b      	ldr	r1, [pc, #44]	; (8004960 <siprintf+0x34>)
 8004932:	b09c      	sub	sp, #112	; 0x70
 8004934:	ab1d      	add	r3, sp, #116	; 0x74
 8004936:	9002      	str	r0, [sp, #8]
 8004938:	9006      	str	r0, [sp, #24]
 800493a:	9107      	str	r1, [sp, #28]
 800493c:	9104      	str	r1, [sp, #16]
 800493e:	4809      	ldr	r0, [pc, #36]	; (8004964 <siprintf+0x38>)
 8004940:	4909      	ldr	r1, [pc, #36]	; (8004968 <siprintf+0x3c>)
 8004942:	cb04      	ldmia	r3!, {r2}
 8004944:	9105      	str	r1, [sp, #20]
 8004946:	6800      	ldr	r0, [r0, #0]
 8004948:	a902      	add	r1, sp, #8
 800494a:	9301      	str	r3, [sp, #4]
 800494c:	f000 f870 	bl	8004a30 <_svfiprintf_r>
 8004950:	2300      	movs	r3, #0
 8004952:	9a02      	ldr	r2, [sp, #8]
 8004954:	7013      	strb	r3, [r2, #0]
 8004956:	b01c      	add	sp, #112	; 0x70
 8004958:	bc08      	pop	{r3}
 800495a:	b003      	add	sp, #12
 800495c:	4718      	bx	r3
 800495e:	46c0      	nop			; (mov r8, r8)
 8004960:	7fffffff 	.word	0x7fffffff
 8004964:	20000020 	.word	0x20000020
 8004968:	ffff0208 	.word	0xffff0208

0800496c <__ssputs_r>:
 800496c:	b5f0      	push	{r4, r5, r6, r7, lr}
 800496e:	688e      	ldr	r6, [r1, #8]
 8004970:	b085      	sub	sp, #20
 8004972:	0007      	movs	r7, r0
 8004974:	000c      	movs	r4, r1
 8004976:	9203      	str	r2, [sp, #12]
 8004978:	9301      	str	r3, [sp, #4]
 800497a:	429e      	cmp	r6, r3
 800497c:	d83c      	bhi.n	80049f8 <__ssputs_r+0x8c>
 800497e:	2390      	movs	r3, #144	; 0x90
 8004980:	898a      	ldrh	r2, [r1, #12]
 8004982:	00db      	lsls	r3, r3, #3
 8004984:	421a      	tst	r2, r3
 8004986:	d034      	beq.n	80049f2 <__ssputs_r+0x86>
 8004988:	6909      	ldr	r1, [r1, #16]
 800498a:	6823      	ldr	r3, [r4, #0]
 800498c:	6960      	ldr	r0, [r4, #20]
 800498e:	1a5b      	subs	r3, r3, r1
 8004990:	9302      	str	r3, [sp, #8]
 8004992:	2303      	movs	r3, #3
 8004994:	4343      	muls	r3, r0
 8004996:	0fdd      	lsrs	r5, r3, #31
 8004998:	18ed      	adds	r5, r5, r3
 800499a:	9b01      	ldr	r3, [sp, #4]
 800499c:	9802      	ldr	r0, [sp, #8]
 800499e:	3301      	adds	r3, #1
 80049a0:	181b      	adds	r3, r3, r0
 80049a2:	106d      	asrs	r5, r5, #1
 80049a4:	42ab      	cmp	r3, r5
 80049a6:	d900      	bls.n	80049aa <__ssputs_r+0x3e>
 80049a8:	001d      	movs	r5, r3
 80049aa:	0553      	lsls	r3, r2, #21
 80049ac:	d532      	bpl.n	8004a14 <__ssputs_r+0xa8>
 80049ae:	0029      	movs	r1, r5
 80049b0:	0038      	movs	r0, r7
 80049b2:	f000 fb49 	bl	8005048 <_malloc_r>
 80049b6:	1e06      	subs	r6, r0, #0
 80049b8:	d109      	bne.n	80049ce <__ssputs_r+0x62>
 80049ba:	230c      	movs	r3, #12
 80049bc:	603b      	str	r3, [r7, #0]
 80049be:	2340      	movs	r3, #64	; 0x40
 80049c0:	2001      	movs	r0, #1
 80049c2:	89a2      	ldrh	r2, [r4, #12]
 80049c4:	4240      	negs	r0, r0
 80049c6:	4313      	orrs	r3, r2
 80049c8:	81a3      	strh	r3, [r4, #12]
 80049ca:	b005      	add	sp, #20
 80049cc:	bdf0      	pop	{r4, r5, r6, r7, pc}
 80049ce:	9a02      	ldr	r2, [sp, #8]
 80049d0:	6921      	ldr	r1, [r4, #16]
 80049d2:	f7ff ff99 	bl	8004908 <memcpy>
 80049d6:	89a3      	ldrh	r3, [r4, #12]
 80049d8:	4a14      	ldr	r2, [pc, #80]	; (8004a2c <__ssputs_r+0xc0>)
 80049da:	401a      	ands	r2, r3
 80049dc:	2380      	movs	r3, #128	; 0x80
 80049de:	4313      	orrs	r3, r2
 80049e0:	81a3      	strh	r3, [r4, #12]
 80049e2:	9b02      	ldr	r3, [sp, #8]
 80049e4:	6126      	str	r6, [r4, #16]
 80049e6:	18f6      	adds	r6, r6, r3
 80049e8:	6026      	str	r6, [r4, #0]
 80049ea:	6165      	str	r5, [r4, #20]
 80049ec:	9e01      	ldr	r6, [sp, #4]
 80049ee:	1aed      	subs	r5, r5, r3
 80049f0:	60a5      	str	r5, [r4, #8]
 80049f2:	9b01      	ldr	r3, [sp, #4]
 80049f4:	429e      	cmp	r6, r3
 80049f6:	d900      	bls.n	80049fa <__ssputs_r+0x8e>
 80049f8:	9e01      	ldr	r6, [sp, #4]
 80049fa:	0032      	movs	r2, r6
 80049fc:	9903      	ldr	r1, [sp, #12]
 80049fe:	6820      	ldr	r0, [r4, #0]
 8004a00:	f000 faa3 	bl	8004f4a <memmove>
 8004a04:	68a3      	ldr	r3, [r4, #8]
 8004a06:	2000      	movs	r0, #0
 8004a08:	1b9b      	subs	r3, r3, r6
 8004a0a:	60a3      	str	r3, [r4, #8]
 8004a0c:	6823      	ldr	r3, [r4, #0]
 8004a0e:	199e      	adds	r6, r3, r6
 8004a10:	6026      	str	r6, [r4, #0]
 8004a12:	e7da      	b.n	80049ca <__ssputs_r+0x5e>
 8004a14:	002a      	movs	r2, r5
 8004a16:	0038      	movs	r0, r7
 8004a18:	f000 fb8c 	bl	8005134 <_realloc_r>
 8004a1c:	1e06      	subs	r6, r0, #0
 8004a1e:	d1e0      	bne.n	80049e2 <__ssputs_r+0x76>
 8004a20:	0038      	movs	r0, r7
 8004a22:	6921      	ldr	r1, [r4, #16]
 8004a24:	f000 faa4 	bl	8004f70 <_free_r>
 8004a28:	e7c7      	b.n	80049ba <__ssputs_r+0x4e>
 8004a2a:	46c0      	nop			; (mov r8, r8)
 8004a2c:	fffffb7f 	.word	0xfffffb7f

08004a30 <_svfiprintf_r>:
 8004a30:	b5f0      	push	{r4, r5, r6, r7, lr}
 8004a32:	b0a1      	sub	sp, #132	; 0x84
 8004a34:	9003      	str	r0, [sp, #12]
 8004a36:	001d      	movs	r5, r3
 8004a38:	898b      	ldrh	r3, [r1, #12]
 8004a3a:	000f      	movs	r7, r1
 8004a3c:	0016      	movs	r6, r2
 8004a3e:	061b      	lsls	r3, r3, #24
 8004a40:	d511      	bpl.n	8004a66 <_svfiprintf_r+0x36>
 8004a42:	690b      	ldr	r3, [r1, #16]
 8004a44:	2b00      	cmp	r3, #0
 8004a46:	d10e      	bne.n	8004a66 <_svfiprintf_r+0x36>
 8004a48:	2140      	movs	r1, #64	; 0x40
 8004a4a:	f000 fafd 	bl	8005048 <_malloc_r>
 8004a4e:	6038      	str	r0, [r7, #0]
 8004a50:	6138      	str	r0, [r7, #16]
 8004a52:	2800      	cmp	r0, #0
 8004a54:	d105      	bne.n	8004a62 <_svfiprintf_r+0x32>
 8004a56:	230c      	movs	r3, #12
 8004a58:	9a03      	ldr	r2, [sp, #12]
 8004a5a:	3801      	subs	r0, #1
 8004a5c:	6013      	str	r3, [r2, #0]
 8004a5e:	b021      	add	sp, #132	; 0x84
 8004a60:	bdf0      	pop	{r4, r5, r6, r7, pc}
 8004a62:	2340      	movs	r3, #64	; 0x40
 8004a64:	617b      	str	r3, [r7, #20]
 8004a66:	2300      	movs	r3, #0
 8004a68:	ac08      	add	r4, sp, #32
 8004a6a:	6163      	str	r3, [r4, #20]
 8004a6c:	3320      	adds	r3, #32
 8004a6e:	7663      	strb	r3, [r4, #25]
 8004a70:	3310      	adds	r3, #16
 8004a72:	76a3      	strb	r3, [r4, #26]
 8004a74:	9507      	str	r5, [sp, #28]
 8004a76:	0035      	movs	r5, r6
 8004a78:	782b      	ldrb	r3, [r5, #0]
 8004a7a:	2b00      	cmp	r3, #0
 8004a7c:	d001      	beq.n	8004a82 <_svfiprintf_r+0x52>
 8004a7e:	2b25      	cmp	r3, #37	; 0x25
 8004a80:	d147      	bne.n	8004b12 <_svfiprintf_r+0xe2>
 8004a82:	1bab      	subs	r3, r5, r6
 8004a84:	9305      	str	r3, [sp, #20]
 8004a86:	42b5      	cmp	r5, r6
 8004a88:	d00c      	beq.n	8004aa4 <_svfiprintf_r+0x74>
 8004a8a:	0032      	movs	r2, r6
 8004a8c:	0039      	movs	r1, r7
 8004a8e:	9803      	ldr	r0, [sp, #12]
 8004a90:	f7ff ff6c 	bl	800496c <__ssputs_r>
 8004a94:	1c43      	adds	r3, r0, #1
 8004a96:	d100      	bne.n	8004a9a <_svfiprintf_r+0x6a>
 8004a98:	e0ae      	b.n	8004bf8 <_svfiprintf_r+0x1c8>
 8004a9a:	6962      	ldr	r2, [r4, #20]
 8004a9c:	9b05      	ldr	r3, [sp, #20]
 8004a9e:	4694      	mov	ip, r2
 8004aa0:	4463      	add	r3, ip
 8004aa2:	6163      	str	r3, [r4, #20]
 8004aa4:	782b      	ldrb	r3, [r5, #0]
 8004aa6:	2b00      	cmp	r3, #0
 8004aa8:	d100      	bne.n	8004aac <_svfiprintf_r+0x7c>
 8004aaa:	e0a5      	b.n	8004bf8 <_svfiprintf_r+0x1c8>
 8004aac:	2201      	movs	r2, #1
 8004aae:	2300      	movs	r3, #0
 8004ab0:	4252      	negs	r2, r2
 8004ab2:	6062      	str	r2, [r4, #4]
 8004ab4:	a904      	add	r1, sp, #16
 8004ab6:	3254      	adds	r2, #84	; 0x54
 8004ab8:	1852      	adds	r2, r2, r1
 8004aba:	1c6e      	adds	r6, r5, #1
 8004abc:	6023      	str	r3, [r4, #0]
 8004abe:	60e3      	str	r3, [r4, #12]
 8004ac0:	60a3      	str	r3, [r4, #8]
 8004ac2:	7013      	strb	r3, [r2, #0]
 8004ac4:	65a3      	str	r3, [r4, #88]	; 0x58
 8004ac6:	2205      	movs	r2, #5
 8004ac8:	7831      	ldrb	r1, [r6, #0]
 8004aca:	4854      	ldr	r0, [pc, #336]	; (8004c1c <_svfiprintf_r+0x1ec>)
 8004acc:	f000 fa32 	bl	8004f34 <memchr>
 8004ad0:	1c75      	adds	r5, r6, #1
 8004ad2:	2800      	cmp	r0, #0
 8004ad4:	d11f      	bne.n	8004b16 <_svfiprintf_r+0xe6>
 8004ad6:	6822      	ldr	r2, [r4, #0]
 8004ad8:	06d3      	lsls	r3, r2, #27
 8004ada:	d504      	bpl.n	8004ae6 <_svfiprintf_r+0xb6>
 8004adc:	2353      	movs	r3, #83	; 0x53
 8004ade:	a904      	add	r1, sp, #16
 8004ae0:	185b      	adds	r3, r3, r1
 8004ae2:	2120      	movs	r1, #32
 8004ae4:	7019      	strb	r1, [r3, #0]
 8004ae6:	0713      	lsls	r3, r2, #28
 8004ae8:	d504      	bpl.n	8004af4 <_svfiprintf_r+0xc4>
 8004aea:	2353      	movs	r3, #83	; 0x53
 8004aec:	a904      	add	r1, sp, #16
 8004aee:	185b      	adds	r3, r3, r1
 8004af0:	212b      	movs	r1, #43	; 0x2b
 8004af2:	7019      	strb	r1, [r3, #0]
 8004af4:	7833      	ldrb	r3, [r6, #0]
 8004af6:	2b2a      	cmp	r3, #42	; 0x2a
 8004af8:	d016      	beq.n	8004b28 <_svfiprintf_r+0xf8>
 8004afa:	0035      	movs	r5, r6
 8004afc:	2100      	movs	r1, #0
 8004afe:	200a      	movs	r0, #10
 8004b00:	68e3      	ldr	r3, [r4, #12]
 8004b02:	782a      	ldrb	r2, [r5, #0]
 8004b04:	1c6e      	adds	r6, r5, #1
 8004b06:	3a30      	subs	r2, #48	; 0x30
 8004b08:	2a09      	cmp	r2, #9
 8004b0a:	d94e      	bls.n	8004baa <_svfiprintf_r+0x17a>
 8004b0c:	2900      	cmp	r1, #0
 8004b0e:	d111      	bne.n	8004b34 <_svfiprintf_r+0x104>
 8004b10:	e017      	b.n	8004b42 <_svfiprintf_r+0x112>
 8004b12:	3501      	adds	r5, #1
 8004b14:	e7b0      	b.n	8004a78 <_svfiprintf_r+0x48>
 8004b16:	4b41      	ldr	r3, [pc, #260]	; (8004c1c <_svfiprintf_r+0x1ec>)
 8004b18:	6822      	ldr	r2, [r4, #0]
 8004b1a:	1ac0      	subs	r0, r0, r3
 8004b1c:	2301      	movs	r3, #1
 8004b1e:	4083      	lsls	r3, r0
 8004b20:	4313      	orrs	r3, r2
 8004b22:	002e      	movs	r6, r5
 8004b24:	6023      	str	r3, [r4, #0]
 8004b26:	e7ce      	b.n	8004ac6 <_svfiprintf_r+0x96>
 8004b28:	9b07      	ldr	r3, [sp, #28]
 8004b2a:	1d19      	adds	r1, r3, #4
 8004b2c:	681b      	ldr	r3, [r3, #0]
 8004b2e:	9107      	str	r1, [sp, #28]
 8004b30:	2b00      	cmp	r3, #0
 8004b32:	db01      	blt.n	8004b38 <_svfiprintf_r+0x108>
 8004b34:	930b      	str	r3, [sp, #44]	; 0x2c
 8004b36:	e004      	b.n	8004b42 <_svfiprintf_r+0x112>
 8004b38:	425b      	negs	r3, r3
 8004b3a:	60e3      	str	r3, [r4, #12]
 8004b3c:	2302      	movs	r3, #2
 8004b3e:	4313      	orrs	r3, r2
 8004b40:	6023      	str	r3, [r4, #0]
 8004b42:	782b      	ldrb	r3, [r5, #0]
 8004b44:	2b2e      	cmp	r3, #46	; 0x2e
 8004b46:	d10a      	bne.n	8004b5e <_svfiprintf_r+0x12e>
 8004b48:	786b      	ldrb	r3, [r5, #1]
 8004b4a:	2b2a      	cmp	r3, #42	; 0x2a
 8004b4c:	d135      	bne.n	8004bba <_svfiprintf_r+0x18a>
 8004b4e:	9b07      	ldr	r3, [sp, #28]
 8004b50:	3502      	adds	r5, #2
 8004b52:	1d1a      	adds	r2, r3, #4
 8004b54:	681b      	ldr	r3, [r3, #0]
 8004b56:	9207      	str	r2, [sp, #28]
 8004b58:	2b00      	cmp	r3, #0
 8004b5a:	db2b      	blt.n	8004bb4 <_svfiprintf_r+0x184>
 8004b5c:	9309      	str	r3, [sp, #36]	; 0x24
 8004b5e:	4e30      	ldr	r6, [pc, #192]	; (8004c20 <_svfiprintf_r+0x1f0>)
 8004b60:	2203      	movs	r2, #3
 8004b62:	0030      	movs	r0, r6
 8004b64:	7829      	ldrb	r1, [r5, #0]
 8004b66:	f000 f9e5 	bl	8004f34 <memchr>
 8004b6a:	2800      	cmp	r0, #0
 8004b6c:	d006      	beq.n	8004b7c <_svfiprintf_r+0x14c>
 8004b6e:	2340      	movs	r3, #64	; 0x40
 8004b70:	1b80      	subs	r0, r0, r6
 8004b72:	4083      	lsls	r3, r0
 8004b74:	6822      	ldr	r2, [r4, #0]
 8004b76:	3501      	adds	r5, #1
 8004b78:	4313      	orrs	r3, r2
 8004b7a:	6023      	str	r3, [r4, #0]
 8004b7c:	7829      	ldrb	r1, [r5, #0]
 8004b7e:	2206      	movs	r2, #6
 8004b80:	4828      	ldr	r0, [pc, #160]	; (8004c24 <_svfiprintf_r+0x1f4>)
 8004b82:	1c6e      	adds	r6, r5, #1
 8004b84:	7621      	strb	r1, [r4, #24]
 8004b86:	f000 f9d5 	bl	8004f34 <memchr>
 8004b8a:	2800      	cmp	r0, #0
 8004b8c:	d03c      	beq.n	8004c08 <_svfiprintf_r+0x1d8>
 8004b8e:	4b26      	ldr	r3, [pc, #152]	; (8004c28 <_svfiprintf_r+0x1f8>)
 8004b90:	2b00      	cmp	r3, #0
 8004b92:	d125      	bne.n	8004be0 <_svfiprintf_r+0x1b0>
 8004b94:	2207      	movs	r2, #7
 8004b96:	9b07      	ldr	r3, [sp, #28]
 8004b98:	3307      	adds	r3, #7
 8004b9a:	4393      	bics	r3, r2
 8004b9c:	3308      	adds	r3, #8
 8004b9e:	9307      	str	r3, [sp, #28]
 8004ba0:	6963      	ldr	r3, [r4, #20]
 8004ba2:	9a04      	ldr	r2, [sp, #16]
 8004ba4:	189b      	adds	r3, r3, r2
 8004ba6:	6163      	str	r3, [r4, #20]
 8004ba8:	e765      	b.n	8004a76 <_svfiprintf_r+0x46>
 8004baa:	4343      	muls	r3, r0
 8004bac:	0035      	movs	r5, r6
 8004bae:	2101      	movs	r1, #1
 8004bb0:	189b      	adds	r3, r3, r2
 8004bb2:	e7a6      	b.n	8004b02 <_svfiprintf_r+0xd2>
 8004bb4:	2301      	movs	r3, #1
 8004bb6:	425b      	negs	r3, r3
 8004bb8:	e7d0      	b.n	8004b5c <_svfiprintf_r+0x12c>
 8004bba:	2300      	movs	r3, #0
 8004bbc:	200a      	movs	r0, #10
 8004bbe:	001a      	movs	r2, r3
 8004bc0:	3501      	adds	r5, #1
 8004bc2:	6063      	str	r3, [r4, #4]
 8004bc4:	7829      	ldrb	r1, [r5, #0]
 8004bc6:	1c6e      	adds	r6, r5, #1
 8004bc8:	3930      	subs	r1, #48	; 0x30
 8004bca:	2909      	cmp	r1, #9
 8004bcc:	d903      	bls.n	8004bd6 <_svfiprintf_r+0x1a6>
 8004bce:	2b00      	cmp	r3, #0
 8004bd0:	d0c5      	beq.n	8004b5e <_svfiprintf_r+0x12e>
 8004bd2:	9209      	str	r2, [sp, #36]	; 0x24
 8004bd4:	e7c3      	b.n	8004b5e <_svfiprintf_r+0x12e>
 8004bd6:	4342      	muls	r2, r0
 8004bd8:	0035      	movs	r5, r6
 8004bda:	2301      	movs	r3, #1
 8004bdc:	1852      	adds	r2, r2, r1
 8004bde:	e7f1      	b.n	8004bc4 <_svfiprintf_r+0x194>
 8004be0:	ab07      	add	r3, sp, #28
 8004be2:	9300      	str	r3, [sp, #0]
 8004be4:	003a      	movs	r2, r7
 8004be6:	0021      	movs	r1, r4
 8004be8:	4b10      	ldr	r3, [pc, #64]	; (8004c2c <_svfiprintf_r+0x1fc>)
 8004bea:	9803      	ldr	r0, [sp, #12]
 8004bec:	e000      	b.n	8004bf0 <_svfiprintf_r+0x1c0>
 8004bee:	bf00      	nop
 8004bf0:	9004      	str	r0, [sp, #16]
 8004bf2:	9b04      	ldr	r3, [sp, #16]
 8004bf4:	3301      	adds	r3, #1
 8004bf6:	d1d3      	bne.n	8004ba0 <_svfiprintf_r+0x170>
 8004bf8:	89bb      	ldrh	r3, [r7, #12]
 8004bfa:	980d      	ldr	r0, [sp, #52]	; 0x34
 8004bfc:	065b      	lsls	r3, r3, #25
 8004bfe:	d400      	bmi.n	8004c02 <_svfiprintf_r+0x1d2>
 8004c00:	e72d      	b.n	8004a5e <_svfiprintf_r+0x2e>
 8004c02:	2001      	movs	r0, #1
 8004c04:	4240      	negs	r0, r0
 8004c06:	e72a      	b.n	8004a5e <_svfiprintf_r+0x2e>
 8004c08:	ab07      	add	r3, sp, #28
 8004c0a:	9300      	str	r3, [sp, #0]
 8004c0c:	003a      	movs	r2, r7
 8004c0e:	0021      	movs	r1, r4
 8004c10:	4b06      	ldr	r3, [pc, #24]	; (8004c2c <_svfiprintf_r+0x1fc>)
 8004c12:	9803      	ldr	r0, [sp, #12]
 8004c14:	f000 f87c 	bl	8004d10 <_printf_i>
 8004c18:	e7ea      	b.n	8004bf0 <_svfiprintf_r+0x1c0>
 8004c1a:	46c0      	nop			; (mov r8, r8)
 8004c1c:	08007ea4 	.word	0x08007ea4
 8004c20:	08007eaa 	.word	0x08007eaa
 8004c24:	08007eae 	.word	0x08007eae
 8004c28:	00000000 	.word	0x00000000
 8004c2c:	0800496d 	.word	0x0800496d

08004c30 <_printf_common>:
 8004c30:	b5f7      	push	{r0, r1, r2, r4, r5, r6, r7, lr}
 8004c32:	0015      	movs	r5, r2
 8004c34:	9301      	str	r3, [sp, #4]
 8004c36:	688a      	ldr	r2, [r1, #8]
 8004c38:	690b      	ldr	r3, [r1, #16]
 8004c3a:	000c      	movs	r4, r1
 8004c3c:	9000      	str	r0, [sp, #0]
 8004c3e:	4293      	cmp	r3, r2
 8004c40:	da00      	bge.n	8004c44 <_printf_common+0x14>
 8004c42:	0013      	movs	r3, r2
 8004c44:	0022      	movs	r2, r4
 8004c46:	602b      	str	r3, [r5, #0]
 8004c48:	3243      	adds	r2, #67	; 0x43
 8004c4a:	7812      	ldrb	r2, [r2, #0]
 8004c4c:	2a00      	cmp	r2, #0
 8004c4e:	d001      	beq.n	8004c54 <_printf_common+0x24>
 8004c50:	3301      	adds	r3, #1
 8004c52:	602b      	str	r3, [r5, #0]
 8004c54:	6823      	ldr	r3, [r4, #0]
 8004c56:	069b      	lsls	r3, r3, #26
 8004c58:	d502      	bpl.n	8004c60 <_printf_common+0x30>
 8004c5a:	682b      	ldr	r3, [r5, #0]
 8004c5c:	3302      	adds	r3, #2
 8004c5e:	602b      	str	r3, [r5, #0]
 8004c60:	6822      	ldr	r2, [r4, #0]
 8004c62:	2306      	movs	r3, #6
 8004c64:	0017      	movs	r7, r2
 8004c66:	401f      	ands	r7, r3
 8004c68:	421a      	tst	r2, r3
 8004c6a:	d027      	beq.n	8004cbc <_printf_common+0x8c>
 8004c6c:	0023      	movs	r3, r4
 8004c6e:	3343      	adds	r3, #67	; 0x43
 8004c70:	781b      	ldrb	r3, [r3, #0]
 8004c72:	1e5a      	subs	r2, r3, #1
 8004c74:	4193      	sbcs	r3, r2
 8004c76:	6822      	ldr	r2, [r4, #0]
 8004c78:	0692      	lsls	r2, r2, #26
 8004c7a:	d430      	bmi.n	8004cde <_printf_common+0xae>
 8004c7c:	0022      	movs	r2, r4
 8004c7e:	9901      	ldr	r1, [sp, #4]
 8004c80:	9800      	ldr	r0, [sp, #0]
 8004c82:	9e08      	ldr	r6, [sp, #32]
 8004c84:	3243      	adds	r2, #67	; 0x43
 8004c86:	47b0      	blx	r6
 8004c88:	1c43      	adds	r3, r0, #1
 8004c8a:	d025      	beq.n	8004cd8 <_printf_common+0xa8>
 8004c8c:	2306      	movs	r3, #6
 8004c8e:	6820      	ldr	r0, [r4, #0]
 8004c90:	682a      	ldr	r2, [r5, #0]
 8004c92:	68e1      	ldr	r1, [r4, #12]
 8004c94:	2500      	movs	r5, #0
 8004c96:	4003      	ands	r3, r0
 8004c98:	2b04      	cmp	r3, #4
 8004c9a:	d103      	bne.n	8004ca4 <_printf_common+0x74>
 8004c9c:	1a8d      	subs	r5, r1, r2
 8004c9e:	43eb      	mvns	r3, r5
 8004ca0:	17db      	asrs	r3, r3, #31
 8004ca2:	401d      	ands	r5, r3
 8004ca4:	68a3      	ldr	r3, [r4, #8]
 8004ca6:	6922      	ldr	r2, [r4, #16]
 8004ca8:	4293      	cmp	r3, r2
 8004caa:	dd01      	ble.n	8004cb0 <_printf_common+0x80>
 8004cac:	1a9b      	subs	r3, r3, r2
 8004cae:	18ed      	adds	r5, r5, r3
 8004cb0:	2700      	movs	r7, #0
 8004cb2:	42bd      	cmp	r5, r7
 8004cb4:	d120      	bne.n	8004cf8 <_printf_common+0xc8>
 8004cb6:	2000      	movs	r0, #0
 8004cb8:	e010      	b.n	8004cdc <_printf_common+0xac>
 8004cba:	3701      	adds	r7, #1
 8004cbc:	68e3      	ldr	r3, [r4, #12]
 8004cbe:	682a      	ldr	r2, [r5, #0]
 8004cc0:	1a9b      	subs	r3, r3, r2
 8004cc2:	42bb      	cmp	r3, r7
 8004cc4:	ddd2      	ble.n	8004c6c <_printf_common+0x3c>
 8004cc6:	0022      	movs	r2, r4
 8004cc8:	2301      	movs	r3, #1
 8004cca:	9901      	ldr	r1, [sp, #4]
 8004ccc:	9800      	ldr	r0, [sp, #0]
 8004cce:	9e08      	ldr	r6, [sp, #32]
 8004cd0:	3219      	adds	r2, #25
 8004cd2:	47b0      	blx	r6
 8004cd4:	1c43      	adds	r3, r0, #1
 8004cd6:	d1f0      	bne.n	8004cba <_printf_common+0x8a>
 8004cd8:	2001      	movs	r0, #1
 8004cda:	4240      	negs	r0, r0
 8004cdc:	bdfe      	pop	{r1, r2, r3, r4, r5, r6, r7, pc}
 8004cde:	2030      	movs	r0, #48	; 0x30
 8004ce0:	18e1      	adds	r1, r4, r3
 8004ce2:	3143      	adds	r1, #67	; 0x43
 8004ce4:	7008      	strb	r0, [r1, #0]
 8004ce6:	0021      	movs	r1, r4
 8004ce8:	1c5a      	adds	r2, r3, #1
 8004cea:	3145      	adds	r1, #69	; 0x45
 8004cec:	7809      	ldrb	r1, [r1, #0]
 8004cee:	18a2      	adds	r2, r4, r2
 8004cf0:	3243      	adds	r2, #67	; 0x43
 8004cf2:	3302      	adds	r3, #2
 8004cf4:	7011      	strb	r1, [r2, #0]
 8004cf6:	e7c1      	b.n	8004c7c <_printf_common+0x4c>
 8004cf8:	0022      	movs	r2, r4
 8004cfa:	2301      	movs	r3, #1
 8004cfc:	9901      	ldr	r1, [sp, #4]
 8004cfe:	9800      	ldr	r0, [sp, #0]
 8004d00:	9e08      	ldr	r6, [sp, #32]
 8004d02:	321a      	adds	r2, #26
 8004d04:	47b0      	blx	r6
 8004d06:	1c43      	adds	r3, r0, #1
 8004d08:	d0e6      	beq.n	8004cd8 <_printf_common+0xa8>
 8004d0a:	3701      	adds	r7, #1
 8004d0c:	e7d1      	b.n	8004cb2 <_printf_common+0x82>
	...

08004d10 <_printf_i>:
 8004d10:	b5f0      	push	{r4, r5, r6, r7, lr}
 8004d12:	b08b      	sub	sp, #44	; 0x2c
 8004d14:	9206      	str	r2, [sp, #24]
 8004d16:	000a      	movs	r2, r1
 8004d18:	3243      	adds	r2, #67	; 0x43
 8004d1a:	9307      	str	r3, [sp, #28]
 8004d1c:	9005      	str	r0, [sp, #20]
 8004d1e:	9204      	str	r2, [sp, #16]
 8004d20:	7e0a      	ldrb	r2, [r1, #24]
 8004d22:	000c      	movs	r4, r1
 8004d24:	9b10      	ldr	r3, [sp, #64]	; 0x40
 8004d26:	2a78      	cmp	r2, #120	; 0x78
 8004d28:	d807      	bhi.n	8004d3a <_printf_i+0x2a>
 8004d2a:	2a62      	cmp	r2, #98	; 0x62
 8004d2c:	d809      	bhi.n	8004d42 <_printf_i+0x32>
 8004d2e:	2a00      	cmp	r2, #0
 8004d30:	d100      	bne.n	8004d34 <_printf_i+0x24>
 8004d32:	e0c1      	b.n	8004eb8 <_printf_i+0x1a8>
 8004d34:	2a58      	cmp	r2, #88	; 0x58
 8004d36:	d100      	bne.n	8004d3a <_printf_i+0x2a>
 8004d38:	e08c      	b.n	8004e54 <_printf_i+0x144>
 8004d3a:	0026      	movs	r6, r4
 8004d3c:	3642      	adds	r6, #66	; 0x42
 8004d3e:	7032      	strb	r2, [r6, #0]
 8004d40:	e022      	b.n	8004d88 <_printf_i+0x78>
 8004d42:	0010      	movs	r0, r2
 8004d44:	3863      	subs	r0, #99	; 0x63
 8004d46:	2815      	cmp	r0, #21
 8004d48:	d8f7      	bhi.n	8004d3a <_printf_i+0x2a>
 8004d4a:	f7fb f9dd 	bl	8000108 <__gnu_thumb1_case_shi>
 8004d4e:	0016      	.short	0x0016
 8004d50:	fff6001f 	.word	0xfff6001f
 8004d54:	fff6fff6 	.word	0xfff6fff6
 8004d58:	001ffff6 	.word	0x001ffff6
 8004d5c:	fff6fff6 	.word	0xfff6fff6
 8004d60:	fff6fff6 	.word	0xfff6fff6
 8004d64:	003600a8 	.word	0x003600a8
 8004d68:	fff6009a 	.word	0xfff6009a
 8004d6c:	00b9fff6 	.word	0x00b9fff6
 8004d70:	0036fff6 	.word	0x0036fff6
 8004d74:	fff6fff6 	.word	0xfff6fff6
 8004d78:	009e      	.short	0x009e
 8004d7a:	0026      	movs	r6, r4
 8004d7c:	681a      	ldr	r2, [r3, #0]
 8004d7e:	3642      	adds	r6, #66	; 0x42
 8004d80:	1d11      	adds	r1, r2, #4
 8004d82:	6019      	str	r1, [r3, #0]
 8004d84:	6813      	ldr	r3, [r2, #0]
 8004d86:	7033      	strb	r3, [r6, #0]
 8004d88:	2301      	movs	r3, #1
 8004d8a:	e0a7      	b.n	8004edc <_printf_i+0x1cc>
 8004d8c:	6808      	ldr	r0, [r1, #0]
 8004d8e:	6819      	ldr	r1, [r3, #0]
 8004d90:	1d0a      	adds	r2, r1, #4
 8004d92:	0605      	lsls	r5, r0, #24
 8004d94:	d50b      	bpl.n	8004dae <_printf_i+0x9e>
 8004d96:	680d      	ldr	r5, [r1, #0]
 8004d98:	601a      	str	r2, [r3, #0]
 8004d9a:	2d00      	cmp	r5, #0
 8004d9c:	da03      	bge.n	8004da6 <_printf_i+0x96>
 8004d9e:	232d      	movs	r3, #45	; 0x2d
 8004da0:	9a04      	ldr	r2, [sp, #16]
 8004da2:	426d      	negs	r5, r5
 8004da4:	7013      	strb	r3, [r2, #0]
 8004da6:	4b61      	ldr	r3, [pc, #388]	; (8004f2c <_printf_i+0x21c>)
 8004da8:	270a      	movs	r7, #10
 8004daa:	9303      	str	r3, [sp, #12]
 8004dac:	e01b      	b.n	8004de6 <_printf_i+0xd6>
 8004dae:	680d      	ldr	r5, [r1, #0]
 8004db0:	601a      	str	r2, [r3, #0]
 8004db2:	0641      	lsls	r1, r0, #25
 8004db4:	d5f1      	bpl.n	8004d9a <_printf_i+0x8a>
 8004db6:	b22d      	sxth	r5, r5
 8004db8:	e7ef      	b.n	8004d9a <_printf_i+0x8a>
 8004dba:	680d      	ldr	r5, [r1, #0]
 8004dbc:	6819      	ldr	r1, [r3, #0]
 8004dbe:	1d08      	adds	r0, r1, #4
 8004dc0:	6018      	str	r0, [r3, #0]
 8004dc2:	062e      	lsls	r6, r5, #24
 8004dc4:	d501      	bpl.n	8004dca <_printf_i+0xba>
 8004dc6:	680d      	ldr	r5, [r1, #0]
 8004dc8:	e003      	b.n	8004dd2 <_printf_i+0xc2>
 8004dca:	066d      	lsls	r5, r5, #25
 8004dcc:	d5fb      	bpl.n	8004dc6 <_printf_i+0xb6>
 8004dce:	680d      	ldr	r5, [r1, #0]
 8004dd0:	b2ad      	uxth	r5, r5
 8004dd2:	4b56      	ldr	r3, [pc, #344]	; (8004f2c <_printf_i+0x21c>)
 8004dd4:	2708      	movs	r7, #8
 8004dd6:	9303      	str	r3, [sp, #12]
 8004dd8:	2a6f      	cmp	r2, #111	; 0x6f
 8004dda:	d000      	beq.n	8004dde <_printf_i+0xce>
 8004ddc:	3702      	adds	r7, #2
 8004dde:	0023      	movs	r3, r4
 8004de0:	2200      	movs	r2, #0
 8004de2:	3343      	adds	r3, #67	; 0x43
 8004de4:	701a      	strb	r2, [r3, #0]
 8004de6:	6863      	ldr	r3, [r4, #4]
 8004de8:	60a3      	str	r3, [r4, #8]
 8004dea:	2b00      	cmp	r3, #0
 8004dec:	db03      	blt.n	8004df6 <_printf_i+0xe6>
 8004dee:	2204      	movs	r2, #4
 8004df0:	6821      	ldr	r1, [r4, #0]
 8004df2:	4391      	bics	r1, r2
 8004df4:	6021      	str	r1, [r4, #0]
 8004df6:	2d00      	cmp	r5, #0
 8004df8:	d102      	bne.n	8004e00 <_printf_i+0xf0>
 8004dfa:	9e04      	ldr	r6, [sp, #16]
 8004dfc:	2b00      	cmp	r3, #0
 8004dfe:	d00c      	beq.n	8004e1a <_printf_i+0x10a>
 8004e00:	9e04      	ldr	r6, [sp, #16]
 8004e02:	0028      	movs	r0, r5
 8004e04:	0039      	movs	r1, r7
 8004e06:	f7fb fa0f 	bl	8000228 <__aeabi_uidivmod>
 8004e0a:	9b03      	ldr	r3, [sp, #12]
 8004e0c:	3e01      	subs	r6, #1
 8004e0e:	5c5b      	ldrb	r3, [r3, r1]
 8004e10:	7033      	strb	r3, [r6, #0]
 8004e12:	002b      	movs	r3, r5
 8004e14:	0005      	movs	r5, r0
 8004e16:	429f      	cmp	r7, r3
 8004e18:	d9f3      	bls.n	8004e02 <_printf_i+0xf2>
 8004e1a:	2f08      	cmp	r7, #8
 8004e1c:	d109      	bne.n	8004e32 <_printf_i+0x122>
 8004e1e:	6823      	ldr	r3, [r4, #0]
 8004e20:	07db      	lsls	r3, r3, #31
 8004e22:	d506      	bpl.n	8004e32 <_printf_i+0x122>
 8004e24:	6863      	ldr	r3, [r4, #4]
 8004e26:	6922      	ldr	r2, [r4, #16]
 8004e28:	4293      	cmp	r3, r2
 8004e2a:	dc02      	bgt.n	8004e32 <_printf_i+0x122>
 8004e2c:	2330      	movs	r3, #48	; 0x30
 8004e2e:	3e01      	subs	r6, #1
 8004e30:	7033      	strb	r3, [r6, #0]
 8004e32:	9b04      	ldr	r3, [sp, #16]
 8004e34:	1b9b      	subs	r3, r3, r6
 8004e36:	6123      	str	r3, [r4, #16]
 8004e38:	9b07      	ldr	r3, [sp, #28]
 8004e3a:	0021      	movs	r1, r4
 8004e3c:	9300      	str	r3, [sp, #0]
 8004e3e:	9805      	ldr	r0, [sp, #20]
 8004e40:	9b06      	ldr	r3, [sp, #24]
 8004e42:	aa09      	add	r2, sp, #36	; 0x24
 8004e44:	f7ff fef4 	bl	8004c30 <_printf_common>
 8004e48:	1c43      	adds	r3, r0, #1
 8004e4a:	d14c      	bne.n	8004ee6 <_printf_i+0x1d6>
 8004e4c:	2001      	movs	r0, #1
 8004e4e:	4240      	negs	r0, r0
 8004e50:	b00b      	add	sp, #44	; 0x2c
 8004e52:	bdf0      	pop	{r4, r5, r6, r7, pc}
 8004e54:	3145      	adds	r1, #69	; 0x45
 8004e56:	700a      	strb	r2, [r1, #0]
 8004e58:	4a34      	ldr	r2, [pc, #208]	; (8004f2c <_printf_i+0x21c>)
 8004e5a:	9203      	str	r2, [sp, #12]
 8004e5c:	681a      	ldr	r2, [r3, #0]
 8004e5e:	6821      	ldr	r1, [r4, #0]
 8004e60:	ca20      	ldmia	r2!, {r5}
 8004e62:	601a      	str	r2, [r3, #0]
 8004e64:	0608      	lsls	r0, r1, #24
 8004e66:	d516      	bpl.n	8004e96 <_printf_i+0x186>
 8004e68:	07cb      	lsls	r3, r1, #31
 8004e6a:	d502      	bpl.n	8004e72 <_printf_i+0x162>
 8004e6c:	2320      	movs	r3, #32
 8004e6e:	4319      	orrs	r1, r3
 8004e70:	6021      	str	r1, [r4, #0]
 8004e72:	2710      	movs	r7, #16
 8004e74:	2d00      	cmp	r5, #0
 8004e76:	d1b2      	bne.n	8004dde <_printf_i+0xce>
 8004e78:	2320      	movs	r3, #32
 8004e7a:	6822      	ldr	r2, [r4, #0]
 8004e7c:	439a      	bics	r2, r3
 8004e7e:	6022      	str	r2, [r4, #0]
 8004e80:	e7ad      	b.n	8004dde <_printf_i+0xce>
 8004e82:	2220      	movs	r2, #32
 8004e84:	6809      	ldr	r1, [r1, #0]
 8004e86:	430a      	orrs	r2, r1
 8004e88:	6022      	str	r2, [r4, #0]
 8004e8a:	0022      	movs	r2, r4
 8004e8c:	2178      	movs	r1, #120	; 0x78
 8004e8e:	3245      	adds	r2, #69	; 0x45
 8004e90:	7011      	strb	r1, [r2, #0]
 8004e92:	4a27      	ldr	r2, [pc, #156]	; (8004f30 <_printf_i+0x220>)
 8004e94:	e7e1      	b.n	8004e5a <_printf_i+0x14a>
 8004e96:	0648      	lsls	r0, r1, #25
 8004e98:	d5e6      	bpl.n	8004e68 <_printf_i+0x158>
 8004e9a:	b2ad      	uxth	r5, r5
 8004e9c:	e7e4      	b.n	8004e68 <_printf_i+0x158>
 8004e9e:	681a      	ldr	r2, [r3, #0]
 8004ea0:	680d      	ldr	r5, [r1, #0]
 8004ea2:	1d10      	adds	r0, r2, #4
 8004ea4:	6949      	ldr	r1, [r1, #20]
 8004ea6:	6018      	str	r0, [r3, #0]
 8004ea8:	6813      	ldr	r3, [r2, #0]
 8004eaa:	062e      	lsls	r6, r5, #24
 8004eac:	d501      	bpl.n	8004eb2 <_printf_i+0x1a2>
 8004eae:	6019      	str	r1, [r3, #0]
 8004eb0:	e002      	b.n	8004eb8 <_printf_i+0x1a8>
 8004eb2:	066d      	lsls	r5, r5, #25
 8004eb4:	d5fb      	bpl.n	8004eae <_printf_i+0x19e>
 8004eb6:	8019      	strh	r1, [r3, #0]
 8004eb8:	2300      	movs	r3, #0
 8004eba:	9e04      	ldr	r6, [sp, #16]
 8004ebc:	6123      	str	r3, [r4, #16]
 8004ebe:	e7bb      	b.n	8004e38 <_printf_i+0x128>
 8004ec0:	681a      	ldr	r2, [r3, #0]
 8004ec2:	1d11      	adds	r1, r2, #4
 8004ec4:	6019      	str	r1, [r3, #0]
 8004ec6:	6816      	ldr	r6, [r2, #0]
 8004ec8:	2100      	movs	r1, #0
 8004eca:	0030      	movs	r0, r6
 8004ecc:	6862      	ldr	r2, [r4, #4]
 8004ece:	f000 f831 	bl	8004f34 <memchr>
 8004ed2:	2800      	cmp	r0, #0
 8004ed4:	d001      	beq.n	8004eda <_printf_i+0x1ca>
 8004ed6:	1b80      	subs	r0, r0, r6
 8004ed8:	6060      	str	r0, [r4, #4]
 8004eda:	6863      	ldr	r3, [r4, #4]
 8004edc:	6123      	str	r3, [r4, #16]
 8004ede:	2300      	movs	r3, #0
 8004ee0:	9a04      	ldr	r2, [sp, #16]
 8004ee2:	7013      	strb	r3, [r2, #0]
 8004ee4:	e7a8      	b.n	8004e38 <_printf_i+0x128>
 8004ee6:	6923      	ldr	r3, [r4, #16]
 8004ee8:	0032      	movs	r2, r6
 8004eea:	9906      	ldr	r1, [sp, #24]
 8004eec:	9805      	ldr	r0, [sp, #20]
 8004eee:	9d07      	ldr	r5, [sp, #28]
 8004ef0:	47a8      	blx	r5
 8004ef2:	1c43      	adds	r3, r0, #1
 8004ef4:	d0aa      	beq.n	8004e4c <_printf_i+0x13c>
 8004ef6:	6823      	ldr	r3, [r4, #0]
 8004ef8:	079b      	lsls	r3, r3, #30
 8004efa:	d415      	bmi.n	8004f28 <_printf_i+0x218>
 8004efc:	9b09      	ldr	r3, [sp, #36]	; 0x24
 8004efe:	68e0      	ldr	r0, [r4, #12]
 8004f00:	4298      	cmp	r0, r3
 8004f02:	daa5      	bge.n	8004e50 <_printf_i+0x140>
 8004f04:	0018      	movs	r0, r3
 8004f06:	e7a3      	b.n	8004e50 <_printf_i+0x140>
 8004f08:	0022      	movs	r2, r4
 8004f0a:	2301      	movs	r3, #1
 8004f0c:	9906      	ldr	r1, [sp, #24]
 8004f0e:	9805      	ldr	r0, [sp, #20]
 8004f10:	9e07      	ldr	r6, [sp, #28]
 8004f12:	3219      	adds	r2, #25
 8004f14:	47b0      	blx	r6
 8004f16:	1c43      	adds	r3, r0, #1
 8004f18:	d098      	beq.n	8004e4c <_printf_i+0x13c>
 8004f1a:	3501      	adds	r5, #1
 8004f1c:	68e3      	ldr	r3, [r4, #12]
 8004f1e:	9a09      	ldr	r2, [sp, #36]	; 0x24
 8004f20:	1a9b      	subs	r3, r3, r2
 8004f22:	42ab      	cmp	r3, r5
 8004f24:	dcf0      	bgt.n	8004f08 <_printf_i+0x1f8>
 8004f26:	e7e9      	b.n	8004efc <_printf_i+0x1ec>
 8004f28:	2500      	movs	r5, #0
 8004f2a:	e7f7      	b.n	8004f1c <_printf_i+0x20c>
 8004f2c:	08007eb5 	.word	0x08007eb5
 8004f30:	08007ec6 	.word	0x08007ec6

08004f34 <memchr>:
 8004f34:	b2c9      	uxtb	r1, r1
 8004f36:	1882      	adds	r2, r0, r2
 8004f38:	4290      	cmp	r0, r2
 8004f3a:	d101      	bne.n	8004f40 <memchr+0xc>
 8004f3c:	2000      	movs	r0, #0
 8004f3e:	4770      	bx	lr
 8004f40:	7803      	ldrb	r3, [r0, #0]
 8004f42:	428b      	cmp	r3, r1
 8004f44:	d0fb      	beq.n	8004f3e <memchr+0xa>
 8004f46:	3001      	adds	r0, #1
 8004f48:	e7f6      	b.n	8004f38 <memchr+0x4>

08004f4a <memmove>:
 8004f4a:	b510      	push	{r4, lr}
 8004f4c:	4288      	cmp	r0, r1
 8004f4e:	d902      	bls.n	8004f56 <memmove+0xc>
 8004f50:	188b      	adds	r3, r1, r2
 8004f52:	4298      	cmp	r0, r3
 8004f54:	d303      	bcc.n	8004f5e <memmove+0x14>
 8004f56:	2300      	movs	r3, #0
 8004f58:	e007      	b.n	8004f6a <memmove+0x20>
 8004f5a:	5c8b      	ldrb	r3, [r1, r2]
 8004f5c:	5483      	strb	r3, [r0, r2]
 8004f5e:	3a01      	subs	r2, #1
 8004f60:	d2fb      	bcs.n	8004f5a <memmove+0x10>
 8004f62:	bd10      	pop	{r4, pc}
 8004f64:	5ccc      	ldrb	r4, [r1, r3]
 8004f66:	54c4      	strb	r4, [r0, r3]
 8004f68:	3301      	adds	r3, #1
 8004f6a:	429a      	cmp	r2, r3
 8004f6c:	d1fa      	bne.n	8004f64 <memmove+0x1a>
 8004f6e:	e7f8      	b.n	8004f62 <memmove+0x18>

08004f70 <_free_r>:
 8004f70:	b570      	push	{r4, r5, r6, lr}
 8004f72:	0005      	movs	r5, r0
 8004f74:	2900      	cmp	r1, #0
 8004f76:	d010      	beq.n	8004f9a <_free_r+0x2a>
 8004f78:	1f0c      	subs	r4, r1, #4
 8004f7a:	6823      	ldr	r3, [r4, #0]
 8004f7c:	2b00      	cmp	r3, #0
 8004f7e:	da00      	bge.n	8004f82 <_free_r+0x12>
 8004f80:	18e4      	adds	r4, r4, r3
 8004f82:	0028      	movs	r0, r5
 8004f84:	f000 f918 	bl	80051b8 <__malloc_lock>
 8004f88:	4a1d      	ldr	r2, [pc, #116]	; (8005000 <_free_r+0x90>)
 8004f8a:	6813      	ldr	r3, [r2, #0]
 8004f8c:	2b00      	cmp	r3, #0
 8004f8e:	d105      	bne.n	8004f9c <_free_r+0x2c>
 8004f90:	6063      	str	r3, [r4, #4]
 8004f92:	6014      	str	r4, [r2, #0]
 8004f94:	0028      	movs	r0, r5
 8004f96:	f000 f917 	bl	80051c8 <__malloc_unlock>
 8004f9a:	bd70      	pop	{r4, r5, r6, pc}
 8004f9c:	42a3      	cmp	r3, r4
 8004f9e:	d908      	bls.n	8004fb2 <_free_r+0x42>
 8004fa0:	6821      	ldr	r1, [r4, #0]
 8004fa2:	1860      	adds	r0, r4, r1
 8004fa4:	4283      	cmp	r3, r0
 8004fa6:	d1f3      	bne.n	8004f90 <_free_r+0x20>
 8004fa8:	6818      	ldr	r0, [r3, #0]
 8004faa:	685b      	ldr	r3, [r3, #4]
 8004fac:	1841      	adds	r1, r0, r1
 8004fae:	6021      	str	r1, [r4, #0]
 8004fb0:	e7ee      	b.n	8004f90 <_free_r+0x20>
 8004fb2:	001a      	movs	r2, r3
 8004fb4:	685b      	ldr	r3, [r3, #4]
 8004fb6:	2b00      	cmp	r3, #0
 8004fb8:	d001      	beq.n	8004fbe <_free_r+0x4e>
 8004fba:	42a3      	cmp	r3, r4
 8004fbc:	d9f9      	bls.n	8004fb2 <_free_r+0x42>
 8004fbe:	6811      	ldr	r1, [r2, #0]
 8004fc0:	1850      	adds	r0, r2, r1
 8004fc2:	42a0      	cmp	r0, r4
 8004fc4:	d10b      	bne.n	8004fde <_free_r+0x6e>
 8004fc6:	6820      	ldr	r0, [r4, #0]
 8004fc8:	1809      	adds	r1, r1, r0
 8004fca:	1850      	adds	r0, r2, r1
 8004fcc:	6011      	str	r1, [r2, #0]
 8004fce:	4283      	cmp	r3, r0
 8004fd0:	d1e0      	bne.n	8004f94 <_free_r+0x24>
 8004fd2:	6818      	ldr	r0, [r3, #0]
 8004fd4:	685b      	ldr	r3, [r3, #4]
 8004fd6:	1841      	adds	r1, r0, r1
 8004fd8:	6011      	str	r1, [r2, #0]
 8004fda:	6053      	str	r3, [r2, #4]
 8004fdc:	e7da      	b.n	8004f94 <_free_r+0x24>
 8004fde:	42a0      	cmp	r0, r4
 8004fe0:	d902      	bls.n	8004fe8 <_free_r+0x78>
 8004fe2:	230c      	movs	r3, #12
 8004fe4:	602b      	str	r3, [r5, #0]
 8004fe6:	e7d5      	b.n	8004f94 <_free_r+0x24>
 8004fe8:	6821      	ldr	r1, [r4, #0]
 8004fea:	1860      	adds	r0, r4, r1
 8004fec:	4283      	cmp	r3, r0
 8004fee:	d103      	bne.n	8004ff8 <_free_r+0x88>
 8004ff0:	6818      	ldr	r0, [r3, #0]
 8004ff2:	685b      	ldr	r3, [r3, #4]
 8004ff4:	1841      	adds	r1, r0, r1
 8004ff6:	6021      	str	r1, [r4, #0]
 8004ff8:	6063      	str	r3, [r4, #4]
 8004ffa:	6054      	str	r4, [r2, #4]
 8004ffc:	e7ca      	b.n	8004f94 <_free_r+0x24>
 8004ffe:	46c0      	nop			; (mov r8, r8)
 8005000:	20000808 	.word	0x20000808

08005004 <sbrk_aligned>:
 8005004:	b570      	push	{r4, r5, r6, lr}
 8005006:	4e0f      	ldr	r6, [pc, #60]	; (8005044 <sbrk_aligned+0x40>)
 8005008:	000d      	movs	r5, r1
 800500a:	6831      	ldr	r1, [r6, #0]
 800500c:	0004      	movs	r4, r0
 800500e:	2900      	cmp	r1, #0
 8005010:	d102      	bne.n	8005018 <sbrk_aligned+0x14>
 8005012:	f000 f8bf 	bl	8005194 <_sbrk_r>
 8005016:	6030      	str	r0, [r6, #0]
 8005018:	0029      	movs	r1, r5
 800501a:	0020      	movs	r0, r4
 800501c:	f000 f8ba 	bl	8005194 <_sbrk_r>
 8005020:	1c43      	adds	r3, r0, #1
 8005022:	d00a      	beq.n	800503a <sbrk_aligned+0x36>
 8005024:	2303      	movs	r3, #3
 8005026:	1cc5      	adds	r5, r0, #3
 8005028:	439d      	bics	r5, r3
 800502a:	42a8      	cmp	r0, r5
 800502c:	d007      	beq.n	800503e <sbrk_aligned+0x3a>
 800502e:	1a29      	subs	r1, r5, r0
 8005030:	0020      	movs	r0, r4
 8005032:	f000 f8af 	bl	8005194 <_sbrk_r>
 8005036:	1c43      	adds	r3, r0, #1
 8005038:	d101      	bne.n	800503e <sbrk_aligned+0x3a>
 800503a:	2501      	movs	r5, #1
 800503c:	426d      	negs	r5, r5
 800503e:	0028      	movs	r0, r5
 8005040:	bd70      	pop	{r4, r5, r6, pc}
 8005042:	46c0      	nop			; (mov r8, r8)
 8005044:	2000080c 	.word	0x2000080c

08005048 <_malloc_r>:
 8005048:	b5f7      	push	{r0, r1, r2, r4, r5, r6, r7, lr}
 800504a:	2203      	movs	r2, #3
 800504c:	1ccb      	adds	r3, r1, #3
 800504e:	4393      	bics	r3, r2
 8005050:	3308      	adds	r3, #8
 8005052:	0006      	movs	r6, r0
 8005054:	001f      	movs	r7, r3
 8005056:	2b0c      	cmp	r3, #12
 8005058:	d232      	bcs.n	80050c0 <_malloc_r+0x78>
 800505a:	270c      	movs	r7, #12
 800505c:	42b9      	cmp	r1, r7
 800505e:	d831      	bhi.n	80050c4 <_malloc_r+0x7c>
 8005060:	0030      	movs	r0, r6
 8005062:	f000 f8a9 	bl	80051b8 <__malloc_lock>
 8005066:	4d32      	ldr	r5, [pc, #200]	; (8005130 <_malloc_r+0xe8>)
 8005068:	682b      	ldr	r3, [r5, #0]
 800506a:	001c      	movs	r4, r3
 800506c:	2c00      	cmp	r4, #0
 800506e:	d12e      	bne.n	80050ce <_malloc_r+0x86>
 8005070:	0039      	movs	r1, r7
 8005072:	0030      	movs	r0, r6
 8005074:	f7ff ffc6 	bl	8005004 <sbrk_aligned>
 8005078:	0004      	movs	r4, r0
 800507a:	1c43      	adds	r3, r0, #1
 800507c:	d11e      	bne.n	80050bc <_malloc_r+0x74>
 800507e:	682c      	ldr	r4, [r5, #0]
 8005080:	0025      	movs	r5, r4
 8005082:	2d00      	cmp	r5, #0
 8005084:	d14a      	bne.n	800511c <_malloc_r+0xd4>
 8005086:	6823      	ldr	r3, [r4, #0]
 8005088:	0029      	movs	r1, r5
 800508a:	18e3      	adds	r3, r4, r3
 800508c:	0030      	movs	r0, r6
 800508e:	9301      	str	r3, [sp, #4]
 8005090:	f000 f880 	bl	8005194 <_sbrk_r>
 8005094:	9b01      	ldr	r3, [sp, #4]
 8005096:	4283      	cmp	r3, r0
 8005098:	d143      	bne.n	8005122 <_malloc_r+0xda>
 800509a:	6823      	ldr	r3, [r4, #0]
 800509c:	3703      	adds	r7, #3
 800509e:	1aff      	subs	r7, r7, r3
 80050a0:	2303      	movs	r3, #3
 80050a2:	439f      	bics	r7, r3
 80050a4:	3708      	adds	r7, #8
 80050a6:	2f0c      	cmp	r7, #12
 80050a8:	d200      	bcs.n	80050ac <_malloc_r+0x64>
 80050aa:	270c      	movs	r7, #12
 80050ac:	0039      	movs	r1, r7
 80050ae:	0030      	movs	r0, r6
 80050b0:	f7ff ffa8 	bl	8005004 <sbrk_aligned>
 80050b4:	1c43      	adds	r3, r0, #1
 80050b6:	d034      	beq.n	8005122 <_malloc_r+0xda>
 80050b8:	6823      	ldr	r3, [r4, #0]
 80050ba:	19df      	adds	r7, r3, r7
 80050bc:	6027      	str	r7, [r4, #0]
 80050be:	e013      	b.n	80050e8 <_malloc_r+0xa0>
 80050c0:	2b00      	cmp	r3, #0
 80050c2:	dacb      	bge.n	800505c <_malloc_r+0x14>
 80050c4:	230c      	movs	r3, #12
 80050c6:	2500      	movs	r5, #0
 80050c8:	6033      	str	r3, [r6, #0]
 80050ca:	0028      	movs	r0, r5
 80050cc:	bdfe      	pop	{r1, r2, r3, r4, r5, r6, r7, pc}
 80050ce:	6822      	ldr	r2, [r4, #0]
 80050d0:	1bd1      	subs	r1, r2, r7
 80050d2:	d420      	bmi.n	8005116 <_malloc_r+0xce>
 80050d4:	290b      	cmp	r1, #11
 80050d6:	d917      	bls.n	8005108 <_malloc_r+0xc0>
 80050d8:	19e2      	adds	r2, r4, r7
 80050da:	6027      	str	r7, [r4, #0]
 80050dc:	42a3      	cmp	r3, r4
 80050de:	d111      	bne.n	8005104 <_malloc_r+0xbc>
 80050e0:	602a      	str	r2, [r5, #0]
 80050e2:	6863      	ldr	r3, [r4, #4]
 80050e4:	6011      	str	r1, [r2, #0]
 80050e6:	6053      	str	r3, [r2, #4]
 80050e8:	0030      	movs	r0, r6
 80050ea:	0025      	movs	r5, r4
 80050ec:	f000 f86c 	bl	80051c8 <__malloc_unlock>
 80050f0:	2207      	movs	r2, #7
 80050f2:	350b      	adds	r5, #11
 80050f4:	1d23      	adds	r3, r4, #4
 80050f6:	4395      	bics	r5, r2
 80050f8:	1aea      	subs	r2, r5, r3
 80050fa:	429d      	cmp	r5, r3
 80050fc:	d0e5      	beq.n	80050ca <_malloc_r+0x82>
 80050fe:	1b5b      	subs	r3, r3, r5
 8005100:	50a3      	str	r3, [r4, r2]
 8005102:	e7e2      	b.n	80050ca <_malloc_r+0x82>
 8005104:	605a      	str	r2, [r3, #4]
 8005106:	e7ec      	b.n	80050e2 <_malloc_r+0x9a>
 8005108:	6862      	ldr	r2, [r4, #4]
 800510a:	42a3      	cmp	r3, r4
 800510c:	d101      	bne.n	8005112 <_malloc_r+0xca>
 800510e:	602a      	str	r2, [r5, #0]
 8005110:	e7ea      	b.n	80050e8 <_malloc_r+0xa0>
 8005112:	605a      	str	r2, [r3, #4]
 8005114:	e7e8      	b.n	80050e8 <_malloc_r+0xa0>
 8005116:	0023      	movs	r3, r4
 8005118:	6864      	ldr	r4, [r4, #4]
 800511a:	e7a7      	b.n	800506c <_malloc_r+0x24>
 800511c:	002c      	movs	r4, r5
 800511e:	686d      	ldr	r5, [r5, #4]
 8005120:	e7af      	b.n	8005082 <_malloc_r+0x3a>
 8005122:	230c      	movs	r3, #12
 8005124:	0030      	movs	r0, r6
 8005126:	6033      	str	r3, [r6, #0]
 8005128:	f000 f84e 	bl	80051c8 <__malloc_unlock>
 800512c:	e7cd      	b.n	80050ca <_malloc_r+0x82>
 800512e:	46c0      	nop			; (mov r8, r8)
 8005130:	20000808 	.word	0x20000808

08005134 <_realloc_r>:
 8005134:	b5f7      	push	{r0, r1, r2, r4, r5, r6, r7, lr}
 8005136:	0007      	movs	r7, r0
 8005138:	000e      	movs	r6, r1
 800513a:	0014      	movs	r4, r2
 800513c:	2900      	cmp	r1, #0
 800513e:	d105      	bne.n	800514c <_realloc_r+0x18>
 8005140:	0011      	movs	r1, r2
 8005142:	f7ff ff81 	bl	8005048 <_malloc_r>
 8005146:	0005      	movs	r5, r0
 8005148:	0028      	movs	r0, r5
 800514a:	bdfe      	pop	{r1, r2, r3, r4, r5, r6, r7, pc}
 800514c:	2a00      	cmp	r2, #0
 800514e:	d103      	bne.n	8005158 <_realloc_r+0x24>
 8005150:	f7ff ff0e 	bl	8004f70 <_free_r>
 8005154:	0025      	movs	r5, r4
 8005156:	e7f7      	b.n	8005148 <_realloc_r+0x14>
 8005158:	f000 f83e 	bl	80051d8 <_malloc_usable_size_r>
 800515c:	9001      	str	r0, [sp, #4]
 800515e:	4284      	cmp	r4, r0
 8005160:	d803      	bhi.n	800516a <_realloc_r+0x36>
 8005162:	0035      	movs	r5, r6
 8005164:	0843      	lsrs	r3, r0, #1
 8005166:	42a3      	cmp	r3, r4
 8005168:	d3ee      	bcc.n	8005148 <_realloc_r+0x14>
 800516a:	0021      	movs	r1, r4
 800516c:	0038      	movs	r0, r7
 800516e:	f7ff ff6b 	bl	8005048 <_malloc_r>
 8005172:	1e05      	subs	r5, r0, #0
 8005174:	d0e8      	beq.n	8005148 <_realloc_r+0x14>
 8005176:	9b01      	ldr	r3, [sp, #4]
 8005178:	0022      	movs	r2, r4
 800517a:	429c      	cmp	r4, r3
 800517c:	d900      	bls.n	8005180 <_realloc_r+0x4c>
 800517e:	001a      	movs	r2, r3
 8005180:	0031      	movs	r1, r6
 8005182:	0028      	movs	r0, r5
 8005184:	f7ff fbc0 	bl	8004908 <memcpy>
 8005188:	0031      	movs	r1, r6
 800518a:	0038      	movs	r0, r7
 800518c:	f7ff fef0 	bl	8004f70 <_free_r>
 8005190:	e7da      	b.n	8005148 <_realloc_r+0x14>
	...

08005194 <_sbrk_r>:
 8005194:	2300      	movs	r3, #0
 8005196:	b570      	push	{r4, r5, r6, lr}
 8005198:	4d06      	ldr	r5, [pc, #24]	; (80051b4 <_sbrk_r+0x20>)
 800519a:	0004      	movs	r4, r0
 800519c:	0008      	movs	r0, r1
 800519e:	602b      	str	r3, [r5, #0]
 80051a0:	f7fc fefa 	bl	8001f98 <_sbrk>
 80051a4:	1c43      	adds	r3, r0, #1
 80051a6:	d103      	bne.n	80051b0 <_sbrk_r+0x1c>
 80051a8:	682b      	ldr	r3, [r5, #0]
 80051aa:	2b00      	cmp	r3, #0
 80051ac:	d000      	beq.n	80051b0 <_sbrk_r+0x1c>
 80051ae:	6023      	str	r3, [r4, #0]
 80051b0:	bd70      	pop	{r4, r5, r6, pc}
 80051b2:	46c0      	nop			; (mov r8, r8)
 80051b4:	20000810 	.word	0x20000810

080051b8 <__malloc_lock>:
 80051b8:	b510      	push	{r4, lr}
 80051ba:	4802      	ldr	r0, [pc, #8]	; (80051c4 <__malloc_lock+0xc>)
 80051bc:	f000 f814 	bl	80051e8 <__retarget_lock_acquire_recursive>
 80051c0:	bd10      	pop	{r4, pc}
 80051c2:	46c0      	nop			; (mov r8, r8)
 80051c4:	20000814 	.word	0x20000814

080051c8 <__malloc_unlock>:
 80051c8:	b510      	push	{r4, lr}
 80051ca:	4802      	ldr	r0, [pc, #8]	; (80051d4 <__malloc_unlock+0xc>)
 80051cc:	f000 f80d 	bl	80051ea <__retarget_lock_release_recursive>
 80051d0:	bd10      	pop	{r4, pc}
 80051d2:	46c0      	nop			; (mov r8, r8)
 80051d4:	20000814 	.word	0x20000814

080051d8 <_malloc_usable_size_r>:
 80051d8:	1f0b      	subs	r3, r1, #4
 80051da:	681b      	ldr	r3, [r3, #0]
 80051dc:	1f18      	subs	r0, r3, #4
 80051de:	2b00      	cmp	r3, #0
 80051e0:	da01      	bge.n	80051e6 <_malloc_usable_size_r+0xe>
 80051e2:	580b      	ldr	r3, [r1, r0]
 80051e4:	18c0      	adds	r0, r0, r3
 80051e6:	4770      	bx	lr

080051e8 <__retarget_lock_acquire_recursive>:
 80051e8:	4770      	bx	lr

080051ea <__retarget_lock_release_recursive>:
 80051ea:	4770      	bx	lr

080051ec <_init>:
 80051ec:	b5f8      	push	{r3, r4, r5, r6, r7, lr}
 80051ee:	46c0      	nop			; (mov r8, r8)
 80051f0:	bcf8      	pop	{r3, r4, r5, r6, r7}
 80051f2:	bc08      	pop	{r3}
 80051f4:	469e      	mov	lr, r3
 80051f6:	4770      	bx	lr

080051f8 <_fini>:
 80051f8:	b5f8      	push	{r3, r4, r5, r6, r7, lr}
 80051fa:	46c0      	nop			; (mov r8, r8)
 80051fc:	bcf8      	pop	{r3, r4, r5, r6, r7}
 80051fe:	bc08      	pop	{r3}
 8005200:	469e      	mov	lr, r3
 8005202:	4770      	bx	lr
